(dp0
S'labels_index'
p1
(dp2
Vtlink_inc
p3
I7
sVtlink_end
p4
I4
sVtlink_sim
p5
I8
sS'n/a'
p6
I0
sVtlink_ide
p7
I6
sVtlink_beg
p8
I2
sVtlink_bef
p9
I1
sVtlink_i_bef
p10
I5
sVtlink_dur
p11
I3
ssS'indexed_features'
p12
(dp13
Vdependency_bag
p14
(dp15
Vadjunct,conjunct,obj,pd,root,subj,
p16
I2303
sVadjunct,adjunct_rc,aux,comp,root,
p17
I2124
sVadjunct,comp,obj,root,subj,
p18
I289
sVaux,comp_fin,comp_inf,conjunct,root,
p19
I2139
sVadjunct,comp_fin,neg,obj,root,subj,
p20
I1073
sVadjunct,adjunct_rc,comp,mwe,root,subj,
p21
I1366
sVapp,obj,root,subj,
p22
I448
sVadjunct,conjunct,ne,root,subj,
p23
I444
sVadjunct_rc,comp_inf,obj,root,
p24
I573
sVadjunct,comp,comp_fin,comp_inf,ne,obj,obj_th,root,
p25
I1611
sVadjunct,app,comp,comp_fin,obj,root,
p26
I63
sVadjunct,comp,comp_fin,conjunct,obj_th,punct,root,
p27
I1668
sVadjunct_compar,comp,comp_inf,conjunct,obj,pd,root,
p28
I1415
sVabbrev_punct,adjunct,comp,comp_ag,obj,root,
p29
I1888
sVadjunct,comp,comp_ag,comp_fin,root,
p30
I1245
sVadjunct_qt,comp,comp_fin,conjunct,obj_th,root,
p31
I2175
sVadjunct,aux,cond,conjunct,root,
p32
I2112
sVadjunct,adjunct_qt,comp,comp_fin,mwe,root,
p33
I98
sVadjunct,comp,comp_inf,conjunct,obj,refl,root,subj,
p34
I77
sVobj,obj_th,root,
p35
I1087
sVadjunct_qt,comp,comp_fin,root,
p36
I762
sVadjunct_rc,comp_inf,mwe,obj,root,
p37
I574
sVcomp_inf,conjunct,neg,root,
p38
I197
sVadjunct,adjunct_rc,obj,pre_coord,root,
p39
I442
sVadjunct,conjunct,obj,root,
p40
I130
sVcomp_fin,conjunct,obj,obj_th,root,subj,
p41
I1150
sVadjunct,neg,pd,root,
p42
I512
sVadjunct,comp,comp_fin,comp_inf,punct,root,
p43
I1478
sVadjunct,app,comp,ne,punct,root,
p44
I1083
sVadjunct,comp,comp_inf,pd,root,subj,
p45
I2192
sVadjunct,comp,comp_fin,conjunct,ne,punct,root,
p46
I2142
sVcomp_fin,conjunct,ne,obj_th,root,
p47
I1870
sVadjunct,app,comp,comp_fin,obj,root,subj,
p48
I64
sVadjunct,comp,conjunct,ne,obj,root,
p49
I467
sVadjunct,adjunct_qt,comp,obj,root,
p50
I1001
sVadjunct,adjunct_qt,comp,comp_fin,conjunct,refl,root,subj,
p51
I1750
sVadjunct,aux,conjunct,refl,root,
p52
I336
sVadjunct_qt,aglt,comp_fin,root,
p53
I617
sVadjunct,adjunct_rc,conjunct,pd,root,
p54
I1695
sVadjunct,comp_inf,root,
p55
I175
sVadjunct,adjunct_qt,app,conjunct,mwe,punct,root,
p56
I1788
sVadjunct,adjunct_qt,comp_fin,root,
p57
I815
sVcomp,pd,root,subj,
p58
I700
sVadjunct,adjunct_qt,ne,obj_th,root,
p59
I1883
sVapp,comp,root,
p60
I803
sVadjunct_rc,comp,conjunct,mwe,obj_th,punct,root,
p61
I1347
sVadjunct,aux,comp,root,
p62
I980
sVcomp,comp_fin,conjunct,pd,root,
p63
I696
sVadjunct,app,comp_ag,root,subj,
p64
I1512
sVcomp,mwe,obj,punct,root,
p65
I1955
sVcomp,obj_th,root,
p66
I461
sVadjunct,comp,comp_fin,mwe,root,
p67
I550
sVadjunct,obj_th,pd,root,
p68
I1453
sVadjunct,app,comp,ne,obj_th,root,subj,
p69
I1885
sVadjunct,adjunct_rc,comp,comp_inf,punct,root,
p70
I1288
sVadjunct,adjunct_rc,comp,comp_fin,obj,punct,root,subj,
p71
I1139
sVadjunct_qt,obj_th,pd,root,
p72
I2227
sVadjunct,adjunct_qt,comp,comp_fin,conjunct,punct,root,
p73
I1679
sVadjunct,aux,pd,root,
p74
I1018
sVadjunct,adjunct_rc,comp,conjunct,ne,root,subj,
p75
I2277
sVadjunct,app,conjunct,obj,punct,root,subj,
p76
I410
sVadjunct_rc,comp_fin,conjunct,obj,root,
p77
I1107
sVcomp,comp_fin,pd,root,subj,
p78
I1124
sVcomp_fin,comp_inf,obj,root,
p79
I151
sVadjunct,comp,comp_fin,conjunct,mwe,punct,root,subj,
p80
I2216
sVadjunct,comp_fin,comp_inf,conjunct,pd,root,
p81
I1928
sVadjunct_rc,comp,comp_fin,obj,root,subj,
p82
I1675
sVcomp,ne,root,subj,
p83
I1091
sVaux,conjunct,neg,root,
p84
I148
sVconjunct,root,subj,
p85
I43
sVneg,obj,root,
p86
I1583
sVaux,comp_fin,comp_inf,root,subj,
p87
I1354
sVadjunct,comp_fin,ne,obj_th,root,
p88
I2107
sVadjunct,adjunct_qt,conjunct,imp,obj,root,
p89
I2343
sVcomp,comp_fin,comp_inf,neg,root,
p90
I1565
sVadjunct,adjunct_compar,adjunct_qt,comp,comp_fin,comp_inf,pd,punct,root,
p91
I2200
sVadjunct,adjunct_rc,comp_inf,conjunct,refl,root,
p92
I1989
sVabbrev_punct,app,comp,comp_ag,ne,root,
p93
I1806
sVadjunct_rc,conjunct,obj,pd,root,
p94
I649
sVadjunct,comp_inf,conjunct,obj,obj_th,punct,root,
p95
I1337
sVadjunct,adjunct_qt,comp_inf,conjunct,obj,punct,root,
p96
I1964
sVadjunct,adjunct_rc,comp_fin,conjunct,root,subj,
p97
I1112
sVadjunct,adjunct_rc,obj_th,refl,root,
p98
I1323
sVadjunct,adjunct_qt,comp,comp_fin,obj_th,root,
p99
I2196
sVadjunct,comp,conjunct,mwe,root,subj,
p100
I487
sVadjunct,comp,obj,obj_th,root,
p101
I707
sVcomp_inf,root,
p102
I32
sVadjunct_compar,conjunct,punct,root,
p103
I938
sVcomp,conjunct,mwe,obj_th,root,
p104
I2237
sVadjunct_qt,comp,comp_fin,punct,root,
p105
I1254
sVadjunct,comp,comp_fin,ne,pd,root,subj,
p106
I1559
sVadjunct,comp,conjunct,obj,root,
p107
I132
sVabbrev_punct,adjunct,conjunct,root,subj,
p108
I966
sVadjunct,app,comp,conjunct,ne,obj_th,root,
p109
I591
sVconjunct,mwe,obj,root,
p110
I2101
sVapp,conjunct,punct,root,subj,
p111
I1332
sVabbrev_punct,comp,pd,root,
p112
I1102
sVadjunct,aux,comp,comp_fin,obj,root,subj,
p113
I2316
sVadjunct,aux,comp,conjunct,root,subj,
p114
I981
sVadjunct,adjunct_rc,comp,conjunct,mwe,ne,obj_th,root,
p115
I1351
sVadjunct,adjunct_rc,comp_fin,comp_inf,conjunct,obj,punct,root,subj,
p116
I158
sVadjunct,adjunct_rc,comp,punct,root,
p117
I476
sVadjunct,adjunct_rc,comp,conjunct,neg,root,
p118
I1756
sVadjunct,adjunct_rc,obj,punct,root,subj,
p119
I1093
sVadjunct,comp,comp_fin,comp_inf,neg,obj,root,subj,
p120
I2111
sVmwe,punct,root,subj,
p121
I1633
sVabbrev_punct,adjunct,comp,mwe,root,
p122
I969
sVadjunct,adjunct_rc,conjunct,refl,root,
p123
I2011
sVadjunct,app,comp,conjunct,obj_th,root,
p124
I590
sVadjunct,adjunct_rc,comp,conjunct,mwe,obj,punct,root,subj,
p125
I2328
sVadjunct,adjunct_rc,comp_fin,punct,root,
p126
I2066
sVadjunct,adjunct_qt,obj,root,
p127
I998
sVcomp_fin,conjunct,obj,punct,root,
p128
I415
sVcomp,comp_fin,comp_inf,conjunct,root,subj,
p129
I191
sVcomp,mwe,ne,root,
p130
I1696
sVadjunct,adjunct_rc,comp_fin,conjunct,root,
p131
I1110
sVadjunct,comp,conjunct,neg,obj,root,subj,
p132
I76
sVadjunct_qt,adjunct_rc,comp,comp_fin,conjunct,obj,pd,root,
p133
I625
sVcomp,comp_fin,obj_th,root,
p134
I333
sVadjunct,comp,neg,obj_th,root,
p135
I1580
sVadjunct,adjunct_qt,comp,comp_fin,comp_inf,conjunct,obj,root,
p136
I1898
sVadjunct_qt,ne,root,subj,
p137
I771
sVadjunct,comp,comp_fin,comp_inf,pd,root,
p138
I1175
sVadjunct,adjunct_rc,comp,pd,refl,root,subj,
p139
I1868
sVadjunct,conjunct,ne,punct,root,subj,
p140
I589
sVcomp,root,subj,
p141
I371
sVadjunct,adjunct_rc,comp,mwe,punct,root,subj,
p142
I1624
sVadjunct_qt,comp_ag,root,
p143
I2031
sVadjunct,app,comp,comp_inf,root,
p144
I28
sVadjunct,comp,obj_th,refl,root,
p145
I1581
sVadjunct,adjunct_qt,pd,punct,root,
p146
I268
sVadjunct_rc,app,root,subj,
p147
I1442
sVadjunct_compar,root,
p148
I1029
sVadjunct,comp,comp_fin,root,subj,
p149
I182
sVadjunct,adjunct_rc,comp_fin,mwe,pd,root,
p150
I434
sVcomp_fin,comp_inf,obj,punct,root,
p151
I345
sVadjunct,adjunct_compar,comp,comp_fin,conjunct,mwe,root,
p152
I1008
sVadjunct,adjunct_rc,comp,conjunct,mwe,root,subj,
p153
I2168
sVadjunct,app,comp,conjunct,punct,root,
p154
I1602
sVadjunct,adjunct_compar,adjunct_qt,aux,comp,comp_fin,comp_inf,pd,root,
p155
I2193
sVadjunct,comp,comp_ag,comp_fin,conjunct,root,
p156
I1406
sVcomp,conjunct,obj,refl,root,
p157
I1866
sVadjunct,comp,obj,punct,root,subj,
p158
I493
sVabbrev_punct,adjunct,comp_inf,conjunct,obj,root,
p159
I1412
sVadjunct,adjunct_compar,comp,comp_fin,conjunct,mwe,obj,root,subj,
p160
I2126
sVadjunct,adjunct_qt,comp,comp_fin,conjunct,pd,root,subj,
p161
I228
sVapp,comp,comp_fin,conjunct,root,subj,
p162
I1790
sVadjunct,conjunct,obj,pre_coord,root,
p163
I2104
sVadjunct,
p164
I1917
sVapp,comp_fin,comp_inf,conjunct,obj,root,
p165
I465
sVcomp_fin,conjunct,root,
p166
I127
sVadjunct_qt,conjunct,neg,root,subj,
p167
I1097
sVcomp,conjunct,obj_th,refl,root,
p168
I1465
sVadjunct,adjunct_qt,adjunct_rc,obj,obj_th,root,
p169
I638
sVadjunct_compar,comp,comp_inf,conjunct,root,
p170
I945
sVadjunct_compar,comp,comp_fin,cond,conjunct,root,
p171
I1644
sVadjunct_rc,conjunct,punct,root,subj,
p172
I1384
sVadjunct,adjunct_rc,comp,conjunct,mwe,obj,root,subj,
p173
I2327
sVadjunct,adjunct_compar,adjunct_qt,comp,comp_fin,comp_inf,pd,root,subj,
p174
I1507
sVadjunct,adjunct_qt,comp,root,
p175
I486
sVadjunct,comp,conjunct,ne,root,
p176
I23
sVadjunct,app,comp,conjunct,mwe,root,
p177
I463
sVcomp,comp_fin,comp_inf,root,subj,
p178
I2148
sVadjunct_rc,obj,refl,root,
p179
I1121
sVadjunct,app,comp,comp_fin,comp_inf,conjunct,obj,root,
p180
I466
sVadjunct,app,pd,root,
p181
I451
sVadjunct_rc,root,
p182
I572
sVcomp,comp_fin,conjunct,obj_th,root,subj,
p183
I168
sVadjunct,conjunct,refl,root,
p184
I139
sVadjunct,adjunct_rc,conjunct,mwe,root,subj,
p185
I2167
sVadjunct,comp,comp_inf,mwe,root,
p186
I482
sVadjunct,app,ne,punct,root,subj,
p187
I2321
sVcomp_fin,conjunct,obj_th,root,subj,
p188
I1163
sVcomp,conjunct,neg,root,subj,
p189
I2306
sVadjunct,comp,comp_inf,conjunct,obj,punct,root,
p190
I199
sVadjunct,comp_fin,obj_th,punct,root,
p191
I254
sVadjunct,conjunct,
p192
I1911
sVabbrev_punct,adjunct,adjunct_rc,comp,root,subj,
p193
I1322
sVadjunct,conjunct,neg,root,
p194
I603
sVabbrev_punct,adjunct,comp,mwe,obj,root,
p195
I932
sVadjunct,mwe,pd,punct,root,
p196
I2025
sVadjunct,adjunct_qt,conjunct,punct,root,
p197
I922
sVaux,conjunct,root,subj,
p198
I813
sVadjunct,aux,comp,comp_fin,comp_inf,root,
p199
I1978
sVadjunct_qt,comp,
p200
I1710
sVcomp,comp_ag,pd,root,
p201
I1850
sVadjunct,adjunct_qt,comp_fin,mwe,pd,root,
p202
I105
sVadjunct_compar,comp,obj,root,
p203
I2081
sVadjunct,comp_inf,conjunct,root,subj,
p204
I195
sVadjunct,adjunct_qt,comp,comp_fin,obj,pd,root,subj,
p205
I1375
sVconjunct,mwe,root,
p206
I1003
sVadjunct,app,conjunct,obj,obj_th,root,
p207
I1524
sVadjunct,conjunct,mwe,root,subj,
p208
I518
sVadjunct,aux,neg,root,
p209
I607
sVadjunct,obj,pre_coord,root,subj,
p210
I2106
sVadjunct,adjunct_rc,app,comp,conjunct,obj,root,
p211
I787
sVadjunct_compar,comp_fin,comp_inf,root,
p212
I2014
sVadjunct,adjunct_rc,app,comp,comp_fin,comp_inf,conjunct,obj,root,subj,
p213
I67
sVadjunct,comp_inf,obj_th,root,
p214
I311
sVadjunct,comp_fin,root,
p215
I246
sVadjunct_compar,comp_fin,refl,root,
p216
I1593
sVadjunct,adjunct_compar,comp,comp_fin,conjunct,root,subj,
p217
I1160
sVobj_th,root,
p218
I30
sVadjunct,comp,comp_inf,conjunct,obj_th,root,
p219
I1398
sVconjunct,obj_th,punct,root,
p220
I984
sVadjunct_rc,conjunct,obj,punct,root,
p221
I2046
sVpd,refl,root,
p222
I1561
sVadjunct,comp,comp_ag,punct,root,subj,
p223
I2266
sVcond,root,
p224
I106
sVadjunct,app,obj,root,
p225
I447
sVadjunct,adjunct_compar,comp,comp_inf,conjunct,mwe,root,
p226
I956
sVadjunct,comp,comp_inf,neg,root,
p227
I1407
sVadjunct,app,comp,comp_fin,ne,punct,root,subj,
p228
I1765
sVadjunct,adjunct_qt,adjunct_rc,comp,mwe,obj,root,
p229
I2050
sVabbrev_punct,adjunct,comp_fin,conjunct,obj,root,
p230
I1656
sVadjunct_compar,comp,ne,root,
p231
I2309
sVadjunct,comp,conjunct,mwe,root,
p232
I462
sVadjunct,adjunct_compar,punct,root,
p233
I1218
sVadjunct,adjunct_rc,app,comp_inf,conjunct,obj,root,
p234
I791
sVconjunct,refl,root,
p235
I47
sVapp,comp_fin,conjunct,root,subj,
p236
I877
sVadjunct,app,ne,obj,obj_th,root,
p237
I261
sVabbrev_punct,adjunct,comp,conjunct,root,subj,
p238
I1096
sVadjunct,adjunct_compar,comp,comp_ag,conjunct,root,
p239
I530
sVadjunct,comp,comp_fin,comp_inf,conjunct,obj,obj_th,pre_coord,root,
p240
I2265
sVadjunct,adjunct_compar,adjunct_qt,conjunct,punct,root,
p241
I1519
sVadjunct_rc,comp_fin,mwe,pd,root,
p242
I432
sVadjunct,aglt,comp_fin,root,
p243
I1209
sVadjunct,adjunct_qt,app,comp,mwe,root,
p244
I1738
sVaux,root,
p245
I8
sVadjunct,comp,mwe,ne,obj,root,subj,
p246
I929
sVadjunct,adjunct_rc,comp,pd,punct,root,subj,
p247
I1867
sVadjunct,comp,comp_fin,conjunct,pd,root,subj,
p248
I1122
sVadjunct,aglt,root,subj,
p249
I1592
sVadjunct,comp,comp_fin,conjunct,mwe,pd,root,subj,
p250
I2217
sVcomp_fin,mwe,obj,punct,root,
p251
I2041
sVadjunct,adjunct_qt,item,root,
p252
I974
sVadjunct,comp_fin,conjunct,neg,root,subj,
p253
I1933
sVapp,comp_inf,obj,root,
p254
I1233
sVadjunct,comp,comp_fin,conjunct,obj,obj_th,punct,root,subj,
p255
I1152
sVobj,pd,root,
p256
I688
sVadjunct,comp,mwe,punct,root,
p257
I479
sVadjunct,adjunct_compar,adjunct_qt,comp,comp_fin,comp_inf,conjunct,root,
p258
I1575
sVadjunct,comp_ag,obj_th,root,
p259
I369
sVcomp,pd,root,
p260
I794
sVadjunct_compar,comp,comp_inf,root,
p261
I955
sVadjunct,comp,obj,pd,punct,root,
p262
I1554
sVadjunct,adjunct_qt,adjunct_rc,root,subj,
p263
I1046
sVcomp,comp_fin,mwe,obj_th,root,
p264
I724
sVadjunct,adjunct_rc,comp_fin,conjunct,obj,root,
p265
I379
sVcomp_ag,mwe,root,
p266
I2233
sVcomp,conjunct,ne,
p267
I839
sVabbrev_punct,adjunct,comp,conjunct,ne,obj,root,
p268
I2086
sVcomp,comp_ag,conjunct,root,
p269
I304
sVcomp_fin,mwe,root,
p270
I1330
sVadjunct,comp_ag,conjunct,ne,root,
p271
I963
sVabbrev_punct,adjunct,conjunct,mwe,obj,root,
p272
I1495
sVadjunct,comp,pd,punct,root,
p273
I715
sVadjunct,conjunct,pd,root,subj,
p274
I600
sVadjunct,comp,comp_ag,conjunct,obj,root,subj,
p275
I1874
sVapp,root,subj,
p276
I1
sVadjunct,adjunct_rc,comp_fin,conjunct,neg,obj,root,
p277
I378
sVaux,root,subj,
p278
I1166
sVadjunct,comp_fin,obj,root,
p279
I548
sVadjunct,mwe,obj,obj_th,root,subj,
p280
I2064
sVadjunct,comp,comp_fin,comp_inf,conjunct,root,
p281
I430
sVadjunct_rc,comp,obj,root,
p282
I1120
sVaglt,comp,comp_fin,root,
p283
I582
sVadjunct,aux,obj,root,
p284
I595
sVabbrev_punct,adjunct,adjunct_rc,app,ne,root,subj,
p285
I1080
sVadjunct,app,comp,ne,root,subj,
p286
I725
sVadjunct_qt,adjunct_rc,refl,root,subj,
p287
I1371
sVadjunct,comp,comp_ag,conjunct,obj_th,root,
p288
I1949
sVadjunct,comp,conjunct,obj_th,pd,root,
p289
I1841
sVcomp,conjunct,ne,root,subj,
p290
I1542
sVadjunct,comp_fin,comp_inf,obj,obj_th,root,
p291
I793
sVadjunct,app,comp,comp_fin,ne,root,
p292
I1466
sVcomp_fin,conjunct,obj,punct,root,subj,
p293
I1203
sVobj,pre_coord,root,
p294
I330
sVadjunct,adjunct_qt,comp,ne,obj,root,
p295
I1876
sVadjunct,adjunct_rc,comp,comp_fin,conjunct,root,subj,
p296
I1113
sVadjunct,adjunct_qt,app,comp,conjunct,root,
p297
I851
sVconjunct,obj,obj_th,root,
p298
I718
sVabbrev_punct,adjunct,conjunct,ne,root,subj,
p299
I1635
sVapp,comp,root,subj,
p300
I2119
sVadjunct,adjunct_qt,obj_th,root,
p301
I220
sVadjunct,comp_inf,obj,punct,root,
p302
I1115
sVadjunct,adjunct_rc,comp,obj,root,
p303
I520
sVadjunct,conjunct,pd,refl,root,
p304
I2318
sVadjunct,comp,comp_inf,conjunct,root,subj,
p305
I747
sVadjunct,adjunct_qt,comp_inf,conjunct,obj,root,
p306
I1622
sVadjunct,comp,comp_fin,comp_inf,conjunct,obj,punct,root,
p307
I202
sVadjunct,adjunct_qt,adjunct_rc,conjunct,neg,root,subj,
p308
I1051
sVadjunct,comp,comp_inf,conjunct,obj_th,punct,root,
p309
I1400
sVadjunct,comp,comp_ag,mwe,obj,pd,root,
p310
I2024
sVconjunct,imp,root,
p311
I2054
sVadjunct_rc,comp_fin,comp_inf,conjunct,pd,root,
p312
I1229
sVadjunct,adjunct_qt,comp,comp_fin,obj,root,
p313
I1314
sVadjunct,conjunct,mwe,obj_th,punct,root,
p314
I1698
sVcomp,subj,
p315
I841
sVabbrev_punct,comp,conjunct,root,
p316
I567
sVabbrev_punct,pd,root,
p317
I2122
sVabbrev_punct,adjunct,conjunct,obj,pre_coord,punct,root,subj,
p318
I364
sVadjunct,adjunct_compar,adjunct_qt,comp,comp_fin,conjunct,root,subj,
p319
I1749
sVadjunct_compar,obj,punct,root,
p320
I2083
sVadjunct,conjunct,obj,punct,root,subj,
p321
I365
sVadjunct,adjunct_compar,comp,comp_fin,conjunct,root,
p322
I741
sVadjunct,comp,obj_th,root,
p323
I257
sVadjunct,adjunct_qt,comp_fin,mwe,refl,root,
p324
I96
sVadjunct,adjunct_qt,comp,comp_fin,mwe,obj,root,
p325
I115
sVadjunct,adjunct_qt,comp,obj_th,punct,root,
p326
I2247
sVadjunct,adjunct_qt,comp,comp_fin,conjunct,root,subj,
p327
I1748
sVadjunct,comp_fin,mwe,obj,root,
p328
I1753
sVadjunct,adjunct_qt,app,comp,conjunct,mwe,root,
p329
I853
sVadjunct,mwe,punct,root,
p330
I1059
sVadjunct,conjunct,mwe,punct,root,
p331
I1808
sVadjunct,comp,comp_inf,obj,pd,root,
p332
I2190
sVadjunct,comp,conjunct,obj_th,root,
p333
I223
sVadjunct,pd,refl,root,
p334
I1301
sVadjunct,comp,punct,
p335
I1705
sVcomp_fin,ne,root,subj,
p336
I1857
sVadjunct_rc,comp,conjunct,root,
p337
I1951
sVadjunct,comp_ag,obj,root,subj,
p338
I1640
sVadjunct,adjunct_compar,comp,conjunct,mwe,punct,root,subj,
p339
I1428
sVadjunct_qt,comp,comp_fin,mwe,root,
p340
I1251
sVadjunct,comp,conjunct,mwe,ne,obj,root,
p341
I1632
sVadjunct,adjunct_compar,pd,root,
p342
I1174
sVadjunct,adjunct_rc,conjunct,obj,punct,root,
p343
I403
sVadjunct,comp,refl,root,
p344
I547
sVadjunct,adjunct_qt,comp,conjunct,mwe,obj,punct,root,subj,
p345
I328
sVcomp_fin,obj,pd,root,
p346
I556
sVadjunct,adjunct_qt,comp,conjunct,obj,root,
p347
I325
sVadjunct_rc,comp,comp_fin,comp_inf,punct,root,subj,
p348
I1042
sVadjunct,comp,comp_ag,ne,obj,root,
p349
I2058
sVadjunct,comp_fin,mwe,root,subj,
p350
I808
sVadjunct,comp_fin,conjunct,root,
p351
I133
sVcomp,comp_fin,cond,conjunct,root,subj,
p352
I165
sVadjunct,adjunct_qt,comp,comp_fin,mwe,root,subj,
p353
I99
sVadjunct,comp,ne,punct,root,subj,
p354
I1558
sVadjunct,adjunct_qt,adjunct_rc,obj,obj_th,punct,root,
p355
I637
sVcomp,punct,root,
p356
I34
sVadjunct,adjunct_qt,comp,comp_inf,obj,root,
p357
I1746
sVadjunct,aux,comp,comp_fin,comp_inf,conjunct,punct,root,subj,
p358
I1264
sVadjunct,adjunct_compar,comp,pd,root,
p359
I1173
sVadjunct,comp,comp_fin,conjunct,ne,obj_th,root,
p360
I1669
sVcomp,comp_fin,obj_th,root,subj,
p361
I778
sVabbrev_punct,adjunct,comp,root,subj,
p362
I710
sVapp,comp,conjunct,punct,root,subj,
p363
I2307
sVaglt,comp,comp_fin,conjunct,root,
p364
I1147
sVabbrev_punct,adjunct,comp,ne,root,subj,
p365
I2244
sVadjunct,comp,comp_fin,comp_inf,conjunct,punct,root,subj,
p366
I915
sVadjunct,adjunct_rc,app,obj,root,subj,
p367
I2285
sVadjunct,adjunct_qt,app,conjunct,ne,root,
p368
I1649
sVadjunct,comp,comp_ag,refl,root,
p369
I2263
sVabbrev_punct,adjunct,adjunct_rc,root,subj,
p370
I897
sVadjunct,adjunct_qt,app,root,subj,
p371
I2020
sVadjunct,comp,comp_inf,conjunct,punct,root,
p372
I1360
sVadjunct,conjunct,item,root,subj,
p373
I2276
sVadjunct,comp,comp_inf,root,
p374
I26
sVadjunct,comp,comp_fin,comp_inf,obj_th,subj,
p375
I1728
sVadjunct,comp,comp_fin,conjunct,ne,pd,punct,root,
p376
I2141
sVadjunct_qt,app,conjunct,root,
p377
I1620
sVadjunct_qt,conjunct,root,subj,
p378
I214
sVadjunct,adjunct_rc,app,conjunct,root,subj,
p379
I1873
sVadjunct,comp_inf,conjunct,obj,punct,root,
p380
I507
sVadjunct_rc,punct,root,subj,
p381
I203
sVadjunct,adjunct_rc,comp,mwe,obj,punct,root,
p382
I1444
sVadjunct,comp,comp_fin,conjunct,obj,punct,root,
p383
I1117
sVcomp,mwe,obj,root,
p384
I1514
sVadjunct_qt,comp,mwe,obj,refl,root,
p385
I1957
sVadjunct,adjunct_qt,conjunct,obj,root,
p386
I120
sVadjunct,app,comp_fin,obj_th,punct,root,
p387
I2337
sVadjunct,adjunct_rc,conjunct,punct,root,
p388
I1676
sVadjunct,adjunct_qt,comp,conjunct,punct,root,
p389
I857
sVcomp,comp_ag,conjunct,obj_th,root,
p390
I1945
sVadjunct,adjunct_rc,punct,root,subj,
p391
I748
sVadjunct,comp_fin,conjunct,root,subj,
p392
I134
sVadjunct_qt,adjunct_rc,comp_fin,pd,punct,root,
p393
I630
sVadjunct,adjunct_qt,comp_fin,comp_inf,root,
p394
I1996
sVadjunct,adjunct_rc,comp,obj_th,root,
p395
I1181
sVadjunct_rc,comp,comp_fin,comp_inf,conjunct,root,subj,
p396
I1800
sVadjunct,comp,conjunct,obj_th,punct,root,subj,
p397
I90
sVabbrev_punct,adjunct_qt,app,comp,root,
p398
I1743
sVabbrev_punct,adjunct,ne,root,
p399
I525
sVadjunct,mwe,ne,punct,root,
p400
I564
sVadjunct,comp,comp_fin,comp_inf,conjunct,obj_th,refl,root,
p401
I1934
sVadjunct,conjunct,neg,pd,root,subj,
p402
I934
sVadjunct,adjunct_compar,conjunct,punct,root,
p403
I1579
sVadjunct,adjunct_rc,comp,comp_fin,conjunct,obj_th,root,subj,
p404
I1773
sVadjunct,adjunct_qt,comp,comp_fin,comp_inf,mwe,obj,root,
p405
I55
sVadjunct,mwe,pd,root,
p406
I513
sVadjunct,mwe,obj_th,root,
p407
I835
sVadjunct,adjunct_rc,comp_fin,comp_inf,conjunct,obj,root,subj,
p408
I112
sVcomp_fin,comp_inf,conjunct,pd,root,
p409
I2137
sVadjunct_qt,comp,comp_fin,mwe,pd,root,
p410
I93
sVcomp_inf,obj_th,root,
p411
I568
sVadjunct,ne,punct,root,subj,
p412
I1557
sVadjunct_qt,adjunct_rc,root,subj,
p413
I1049
sVcomp_ag,conjunct,root,
p414
I632
sVadjunct,adjunct_rc,app,ne,obj,root,subj,
p415
I1076
sVadjunct_rc,obj,root,
p416
I522
sVcomp,comp_fin,cond,conjunct,root,
p417
I1389
sVadjunct,aux,comp_fin,comp_inf,obj,root,subj,
p418
I1969
sVapp,mwe,obj,root,
p419
I351
sVconjunct,item,root,
p420
I711
sVadjunct,mwe,root,subj,
p421
I320
sVadjunct,ne,pd,root,subj,
p422
I2036
sVadjunct,app,conjunct,punct,root,subj,
p423
I1693
sVpunct,root,subj,
p424
I272
sVadjunct_qt,punct,root,
p425
I57
sVapp,ne,root,
p426
I213
sVadjunct_rc,comp_inf,obj,punct,root,
p427
I1474
sVadjunct,comp,mwe,obj,punct,root,
p428
I1421
sVcomp,comp_fin,comp_inf,conjunct,obj,obj_th,root,
p429
I1225
sVabbrev_punct,adjunct,comp,mwe,ne,root,
p430
I1847
sVadjunct_rc,conjunct,punct,root,
p431
I1792
sVpre_coord,root,
p432
I2035
sVadjunct,app,ne,root,
p433
I360
sVadjunct,adjunct_rc,app,obj,root,
p434
I472
sVadjunct,adjunct_qt,comp,comp_fin,comp_inf,obj,pd,root,subj,
p435
I1502
sVadjunct,comp,comp_inf,obj,root,subj,
p436
I2185
sVadjunct,adjunct_qt,comp,obj,root,subj,
p437
I1639
sVadjunct,comp,conjunct,ne,obj,root,subj,
p438
I494
sVadjunct_rc,obj,punct,root,
p439
I521
sVadjunct,adjunct_rc,comp_fin,obj,pd,root,
p440
I1275
sVadjunct_qt,adjunct_rc,comp,comp_fin,punct,root,
p441
I1249
sVcomp_inf,mwe,obj,root,
p442
I1262
sVadjunct,comp,comp_fin,comp_inf,obj_th,punct,
p443
I1727
sVadjunct,aux,conjunct,obj,root,subj,
p444
I2181
sVadjunct,adjunct_qt,adjunct_rc,comp,cond,mwe,root,
p445
I1363
sVadjunct,comp,conjunct,obj_th,root,subj,
p446
I91
sVadjunct,comp,comp_fin,conjunct,ne,root,
p447
I918
sVadjunct,comp,root,subj,
p448
I24
sVadjunct_qt,comp,conjunct,root,
p449
I121
sVadjunct_qt,conjunct,obj,obj_th,pd,root,
p450
I2229
sVadjunct,comp,comp_fin,mwe,refl,root,subj,
p451
I2155
sVadjunct,adjunct_qt,comp_fin,conjunct,root,
p452
I1831
sVcomp,comp_fin,comp_inf,conjunct,obj,root,subj,
p453
I339
sVadjunct,comp,comp_fin,conjunct,pd,root,
p454
I695
sVapp,conjunct,root,
p455
I728
sVcomp_fin,comp_inf,root,
p456
I150
sVadjunct,app,conjunct,mwe,root,subj,
p457
I545
sVadjunct_compar,comp_fin,conjunct,root,
p458
I940
sVadjunct,comp,conjunct,mwe,ne,root,
p459
I1237
sVadjunct,adjunct_rc,obj_th,root,subj,
p460
I2062
sVadjunct,comp,conjunct,pd,root,subj,
p461
I701
sVadjunct,adjunct_qt,conjunct,obj_th,refl,root,
p462
I1842
sVadjunct,adjunct_rc,comp,punct,root,subj,
p463
I1382
sVadjunct,comp,comp_fin,pd,root,subj,
p464
I1024
sVadjunct,aux,comp,comp_fin,root,subj,
p465
I1570
sVadjunct,adjunct_rc,comp,comp_fin,comp_inf,conjunct,pd,punct,root,subj,
p466
I2296
sVadjunct,obj,punct,root,subj,
p467
I366
sVadjunct,aux,comp_fin,comp_inf,neg,obj,root,subj,
p468
I1968
sVadjunct,adjunct_rc,app,ne,root,
p469
I1077
sVcomp,ne,root,
p470
I497
sVapp,comp,obj,punct,root,
p471
I1691
sVadjunct,comp,conjunct,obj,obj_th,root,subj,
p472
I1074
sVadjunct,comp,comp_fin,comp_inf,obj,obj_th,root,subj,
p473
I1610
sVadjunct,comp,comp_fin,conjunct,obj,refl,root,
p474
I1198
sVadjunct_compar,comp,conjunct,pd,root,
p475
I2305
sVadjunct,comp,comp_fin,comp_inf,conjunct,mwe,obj,root,subj,
p476
I1358
sVadjunct,comp,pre_coord,root,
p477
I1436
sVadjunct_compar,comp,punct,root,
p478
I2272
sVcomp_fin,comp_inf,conjunct,refl,root,
p479
I2211
sVconjunct,refl,root,subj,
p480
I921
sVadjunct,aux,comp_fin,root,
p481
I1242
sVadjunct,adjunct_compar,comp,comp_inf,conjunct,pd,root,
p482
I1418
sVcomp_fin,obj,root,subj,
p483
I1164
sVapp,conjunct,root,subj,
p484
I489
sVadjunct,app,conjunct,root,
p485
I377
sVadjunct_qt,conjunct,neg,root,
p486
I119
sVconjunct,obj,root,
p487
I188
sVadjunct,mwe,obj,punct,root,
p488
I1515
sVadjunct,adjunct_compar,comp_fin,conjunct,root,subj,
p489
I1835
sVadjunct_qt,adjunct_rc,ne,root,subj,
p490
I2151
sVadjunct_compar,comp,comp_fin,conjunct,root,subj,
p491
I1642
sVcomp,comp_fin,obj_th,refl,root,
p492
I2013
sVabbrev_punct,adjunct,app,ne,root,
p493
I1086
sVneg,root,
p494
I174
sVcomp,comp_fin,conjunct,neg,root,
p495
I585
sVadjunct,comp,mwe,refl,root,subj,
p496
I1448
sVadjunct,app,pd,punct,root,
p497
I566
sVadjunct,app,comp,root,subj,
p498
I2
sVadjunct_rc,conjunct,mwe,root,
p499
I1345
sVabbrev_punct,adjunct,comp,pd,root,
p500
I1126
sVadjunct_rc,ne,punct,root,subj,
p501
I1560
sVadjunct,aux,comp,comp_fin,comp_inf,obj,root,
p502
I2299
sVadjunct,comp_fin,comp_inf,obj,root,subj,
p503
I1967
sVcomp_fin,comp_inf,obj,obj_th,root,
p504
I1606
sVadjunct_compar,adjunct_qt,root,
p505
I2022
sVadjunct,adjunct_compar,comp_fin,comp_inf,conjunct,root,subj,
p506
I2205
sVcomp_fin,conjunct,neg,root,
p507
I1896
sVapp,comp,conjunct,obj_th,root,
p508
I227
sVadjunct,conjunct,obj,
p509
I1905
sVcomp,comp_ag,mwe,root,
p510
I2234
sVadjunct,comp,comp_fin,mwe,refl,root,
p511
I2070
sVcomp,comp_fin,conjunct,neg,root,subj,
p512
I2346
sVcomp,comp_inf,punct,root,
p513
I910
sVadjunct,app,comp_fin,obj_th,root,
p514
I2336
sVcomp,comp_inf,conjunct,obj_th,root,
p515
I2051
sVadjunct,comp,comp_fin,comp_inf,conjunct,mwe,obj,obj_th,
p516
I1733
sVadjunct,adjunct_qt,comp,conjunct,pd,root,
p517
I1253
sVadjunct,pd,root,subj,
p518
I597
sVadjunct,adjunct_rc,comp,mwe,obj,obj_th,punct,root,subj,
p519
I654
sVadjunct_rc,comp,cond,obj,root,
p520
I2080
sVabbrev_punct,adjunct,comp,comp_inf,root,
p521
I2274
sVadjunct,adjunct_rc,comp,comp_inf,conjunct,obj,pd,root,
p522
I1981
sVadjunct,adjunct_rc,app,comp,root,subj,
p523
I2284
sVadjunct,mwe,ne,root,
p524
I565
sVadjunct,refl,root,subj,
p525
I862
sVadjunct,comp,comp_fin,comp_inf,conjunct,obj,obj_th,
p526
I1731
sVadjunct,comp,mwe,obj,refl,root,subj,
p527
I927
sVadjunct_qt,adjunct_rc,aglt,comp_fin,pd,root,
p528
I620
sVabbrev_punct,adjunct,comp,conjunct,ne,root,
p529
I1060
sVadjunct,adjunct_compar,comp_fin,comp_inf,conjunct,punct,root,
p530
I1577
sVadjunct,comp,comp_fin,obj,punct,root,subj,
p531
I678
sVadjunct,adjunct_compar,app,comp,conjunct,mwe,punct,root,subj,
p532
I1430
sVadjunct,adjunct_compar,comp_fin,conjunct,root,
p533
I740
sVadjunct,adjunct_rc,conjunct,neg,obj,root,
p534
I408
sVabbrev_punct,adjunct,comp,conjunct,pd,root,
p535
I1020
sVcomp,comp_fin,comp_inf,obj_th,root,
p536
I2145
sVadjunct,adjunct_rc,app,comp,comp_fin,conjunct,obj,root,subj,
p537
I52
sVadjunct,adjunct_rc,comp,mwe,obj,root,subj,
p538
I1090
sVadjunct,comp,comp_fin,conjunct,neg,root,subj,
p539
I1171
sVcomp,comp_ag,comp_fin,obj,pd,root,
p540
I2214
sVadjunct,conjunct,pd,punct,root,subj,
p541
I935
sVadjunct,conjunct,ne,obj,root,subj,
p542
I1057
sVadjunct,adjunct_rc,comp,comp_inf,conjunct,root,
p543
I317
sVadjunct,comp,conjunct,obj_th,punct,root,
p544
I832
sVroot,subj,
p545
I7
sVadjunct,comp,comp_fin,comp_inf,mwe,obj_th,root,
p546
I2286
sVadjunct,adjunct_rc,cond,conjunct,obj,root,
p547
I2282
sVadjunct,adjunct_qt,conjunct,obj,pd,root,
p548
I2345
sVadjunct,comp,ne,obj,root,
p549
I455
sVadjunct,app,comp,comp_fin,obj,pd,root,
p550
I62
sVadjunct,adjunct_compar,comp,root,subj,
p551
I1413
sVconjunct,ne,neg,obj,root,
p552
I1670
sVadjunct,conjunct,ne,pd,root,
p553
I1527
sVadjunct_compar,comp_fin,comp_inf,conjunct,root,
p554
I944
sVadjunct_qt,conjunct,refl,root,
p555
I923
sVadjunct,comp_fin,comp_inf,obj_th,root,
p556
I889
sVadjunct,adjunct_compar,comp,ne,root,
p557
I1627
sVcomp_inf,conjunct,obj_th,root,
p558
I666
sVadjunct,comp,comp_fin,conjunct,obj,root,
p559
I394
sVadjunct,adjunct_rc,ne,obj_th,root,subj,
p560
I2320
sVabbrev_punct,adjunct_qt,adjunct_rc,root,subj,
p561
I2150
sVabbrev_punct,adjunct,comp_fin,obj_th,root,
p562
I1469
sVadjunct,adjunct_rc,comp,obj,punct,root,subj,
p563
I1930
sVconjunct,obj_th,root,
p564
I222
sVadjunct,comp_fin,mwe,obj,obj_th,root,
p565
I1683
sVadjunct,comp,comp_inf,ne,obj,root,
p566
I2334
sVcomp,obj,root,subj,
p567
I413
sVadjunct,comp_inf,obj,obj_th,root,
p568
I1169
sVcomp,conjunct,ne,root,
p569
I721
sVobj,punct,root,
p570
I633
sVadjunct,comp,comp_fin,ne,root,
p571
I919
sVadjunct_compar,root,subj,
p572
I1658
sVadjunct_compar,comp_fin,obj_th,punct,root,subj,
p573
I1865
sVcomp_inf,conjunct,root,subj,
p574
I196
sVadjunct,aux,comp,comp_fin,conjunct,root,
p575
I1298
sVadjunct,comp_fin,comp_inf,obj,refl,root,subj,
p576
I2260
sVadjunct,adjunct_qt,comp_fin,mwe,root,
p577
I95
sVadjunct,comp,comp_fin,obj_th,root,
p578
I256
sVapp,mwe,root,
p579
I697
sVadjunct_qt,comp_inf,root,
p580
I825
sVadjunct,comp_inf,conjunct,obj_th,punct,root,
p581
I1399
sVadjunct,comp,comp_inf,conjunct,mwe,root,
p582
I670
sVconjunct,obj,punct,root,
p583
I241
sVcomp_fin,conjunct,punct,root,subj,
p584
I1587
sVadjunct,conjunct,punct,refl,root,
p585
I2186
sVabbrev_punct,adjunct,conjunct,obj,root,
p586
I1494
sVadjunct,ne,punct,root,
p587
I1473
sVadjunct,adjunct_qt,comp,comp_fin,comp_inf,mwe,ne,obj,root,
p588
I56
sVadjunct,comp_fin,comp_inf,mwe,obj,root,
p589
I1258
sVadjunct_compar,comp_fin,obj_th,root,
p590
I1862
sVadjunct,aglt,obj_th,root,
p591
I1137
sVadjunct,comp,obj_th,root,subj,
p592
I937
sVadjunct_qt,comp_fin,obj,root,
p593
I1313
sVadjunct,adjunct_qt,adjunct_rc,comp,comp_fin,conjunct,obj,pd,root,
p594
I626
sVadjunct,adjunct_qt,app,punct,root,
p595
I1739
sVadjunct,comp,comp_fin,conjunct,mwe,obj,root,subj,
p596
I1392
sVadjunct,comp,conjunct,ne,obj,punct,root,
p597
I1423
sVadjunct_rc,aglt,comp_fin,conjunct,obj,root,subj,
p598
I1204
sVabbrev_punct,adjunct,root,
p599
I436
sVadjunct,obj_th,punct,root,subj,
p600
I644
sVapp,obj_th,punct,root,
p601
I799
sVadjunct,adjunct_rc,comp_fin,root,subj,
p602
I750
sVadjunct,adjunct_rc,comp,mwe,obj,obj_th,root,subj,
p603
I655
sVcomp_fin,comp_inf,conjunct,obj,root,
p604
I340
sVadjunct,adjunct_qt,conjunct,ne,obj,root,subj,
p605
I2342
sVadjunct,adjunct_rc,comp_fin,conjunct,refl,root,subj,
p606
I2089
sVadjunct,adjunct_rc,comp_fin,conjunct,obj,root,subj,
p607
I397
sVaux,conjunct,root,
p608
I149
sVadjunct,comp,comp_fin,conjunct,pd,punct,root,
p609
I1292
sVadjunct,comp_inf,obj,refl,root,
p610
I187
sVadjunct,app,comp,conjunct,item,obj,root,subj,
p611
I1434
sVadjunct,comp,comp_inf,conjunct,neg,root,
p612
I1361
sVadjunct,comp,comp_fin,conjunct,ne,root,subj,
p613
I1299
sVadjunct,comp,conjunct,
p614
I842
sVadjunct,comp,conjunct,root,
p615
I6
sVadjunct,adjunct_rc,conjunct,pd,root,subj,
p616
I1880
sVadjunct,comp,comp_fin,obj,pd,root,
p617
I1054
sVadjunct,comp_inf,conjunct,obj_th,refl,root,
p618
I2160
sVcomp,comp_fin,comp_inf,obj_th,punct,root,
p619
I2146
sVadjunct,app,comp,comp_fin,conjunct,obj,obj_th,root,subj,
p620
I71
sVadjunct,comp,conjunct,mwe,
p621
I1708
sVaux,comp,obj,root,
p622
I2170
sVadjunct,conjunct,mwe,pd,root,
p623
I231
sVcomp,comp_inf,conjunct,obj,root,subj,
p624
I1459
sVadjunct,conjunct,root,
p625
I18
sVaux,comp_fin,comp_inf,obj,root,
p626
I992
sVadjunct_compar,comp,conjunct,ne,root,
p627
I2118
sVadjunct,aux,obj_th,root,subj,
p628
I2215
sVadjunct,comp,conjunct,pd,root,
p629
I307
sVadjunct,comp,comp_ag,obj,
p630
I1716
sVadjunct,comp,comp_inf,pd,root,
p631
I515
sVadjunct,comp_fin,obj_th,root,
p632
I255
sVabbrev_punct,adjunct,app,comp,root,
p633
I2085
sVadjunct,app,root,
p634
I279
sVcomp,mwe,punct,root,
p635
I1437
sVadjunct_rc,conjunct,refl,root,subj,
p636
I2315
sVconjunct,neg,root,
p637
I51
sVcomp_fin,conjunct,obj,root,
p638
I390
sVrefl,root,subj,
p639
I1368
sVadjunct,adjunct_qt,comp_fin,comp_inf,obj,obj_th,root,
p640
I2221
sVadjunct,comp_fin,conjunct,pd,root,
p641
I652
sVcomp_fin,root,
p642
I265
sVadjunct,obj,obj_th,root,
p643
I300
sVitem,root,
p644
I964
sVcomp_fin,conjunct,obj,root,subj,
p645
I392
sVadjunct,app,comp,comp_fin,obj,obj_th,punct,root,
p646
I2176
sVabbrev_punct,adjunct,app,conjunct,root,
p647
I1603
sVadjunct,app,comp,comp_fin,ne,obj_th,root,subj,
p648
I1767
sVcomp_fin,conjunct,refl,root,
p649
I1832
sVabbrev_punct,conjunct,ne,obj,root,
p650
I1671
sVne,obj,root,subj,
p651
I1075
sVadjunct,comp,comp_ag,conjunct,obj_th,root,subj,
p652
I1947
sVne,root,subj,
p653
I283
sVadjunct,comp,comp_fin,comp_inf,conjunct,obj,obj_th,root,subj,
p654
I2292
sVadjunct,comp_fin,root,subj,
p655
I236
sVadjunct,comp,comp_ag,conjunct,punct,root,
p656
I1875
sVcomp,comp_fin,mwe,punct,root,
p657
I1329
sVcomp,conjunct,
p658
I838
sVadjunct,comp_fin,conjunct,punct,root,subj,
p659
I234
sVadjunct,comp_ag,root,subj,
p660
I562
sVadjunct,comp_inf,conjunct,obj,pd,root,
p661
I1516
sVadjunct,app,comp_fin,punct,root,subj,
p662
I1858
sVadjunct,adjunct_rc,pd,punct,root,
p663
I2163
sVadjunct,comp,comp_fin,conjunct,obj_th,root,subj,
p664
I1309
sVadjunct,comp,comp_fin,comp_inf,obj_th,punct,root,
p665
I1902
sVadjunct,app,obj_th,root,
p666
I801
sVadjunct,comp,comp_fin,refl,root,
p667
I615
sVaglt,root,
p668
I58
sVcomp_inf,conjunct,obj,root,
p669
I138
sVcomp,comp_ag,root,subj,
p670
I1690
sVabbrev_punct,adjunct,adjunct_qt,root,
p671
I1652
sVadjunct,adjunct_rc,mwe,obj,root,subj,
p672
I2281
sVadjunct,adjunct_qt,comp,mwe,obj,root,
p673
I1959
sVconjunct,neg,pd,root,
p674
I1618
sVadjunct,app,comp_fin,root,subj,
p675
I1327
sVadjunct,aux,comp_fin,conjunct,root,
p676
I247
sVadjunct,app,comp,mwe,obj_th,root,subj,
p677
I2087
sVadjunct_qt,comp,comp_fin,neg,root,
p678
I1250
sVadjunct,comp_fin,obj_th,punct,refl,root,subj,
p679
I1154
sVadjunct,adjunct_compar,comp_fin,conjunct,punct,root,subj,
p680
I1834
sVadjunct,adjunct_rc,comp,comp_fin,obj,root,
p681
I475
sVadjunct,comp,pd,
p682
I1713
sVcomp_inf,pd,root,
p683
I776
sVadjunct,comp,item,root,
p684
I726
sVadjunct,pd,root,
p685
I230
sVadjunct_rc,comp,root,subj,
p686
I454
sVadjunct,adjunct_rc,obj,root,
p687
I401
sVadjunct,comp,comp_fin,conjunct,punct,root,
p688
I431
sVadjunct,adjunct_compar,comp,obj,root,
p689
I2082
sVadjunct,app,comp,comp_fin,root,subj,
p690
I1287
sVneg,root,subj,
p691
I1986
sVadjunct,adjunct_qt,comp,comp_fin,mwe,punct,root,
p692
I97
sVadjunct,comp,conjunct,mwe,refl,root,
p693
I2275
sVadjunct_rc,comp_inf,root,
p694
I577
sVadjunct,comp,comp_fin,comp_inf,obj,root,
p695
I614
sVcomp,comp_fin,conjunct,ne,root,
p696
I2182
sVadjunct,app,conjunct,ne,obj,root,subj,
p697
I1694
sVadjunct_compar,comp_fin,comp_inf,conjunct,punct,root,subj,
p698
I2206
sVmwe,root,subj,
p699
I347
sVadjunct,comp_fin,comp_inf,conjunct,neg,obj,root,
p700
I1464
sVcomp_fin,neg,root,subj,
p701
I1386
sVadjunct_compar,comp,root,
p702
I1030
sVadjunct_rc,root,subj,
p703
I204
sVadjunct_rc,comp_fin,obj,pd,punct,root,
p704
I1278
sVrefl,root,
p705
I31
sVadjunct,mwe,punct,root,subj,
p706
I861
sVadjunct,aglt,comp_inf,conjunct,root,
p707
I1334
sVadjunct,comp_fin,conjunct,neg,root,
p708
I250
sVadjunct,adjunct_rc,app,comp,comp_fin,conjunct,mwe,obj,root,subj,
p709
I54
sVadjunct_rc,comp,comp_fin,root,subj,
p710
I1673
sVadjunct_rc,conjunct,pd,root,
p711
I647
sVadjunct,app,comp_fin,conjunct,obj,root,subj,
p712
I1935
sVapp,comp,obj,root,
p713
I1692
sVadjunct,comp,conjunct,refl,root,
p714
I884
sVadjunct,adjunct_qt,comp,ne,root,
p715
I611
sVadjunct,aux,comp,comp_fin,pd,root,
p716
I1922
sVadjunct_rc,app,conjunct,obj,root,subj,
p717
I2339
sVadjunct,comp,conjunct,neg,root,subj,
p718
I752
sVadjunct,mwe,obj_th,punct,root,
p719
I1703
sVadjunct,comp,comp_ag,comp_fin,comp_inf,conjunct,obj,root,
p720
I1655
sVadjunct,comp,comp_fin,conjunct,refl,root,subj,
p721
I1300
sVadjunct,comp_inf,pd,refl,root,
p722
I514
sVadjunct,comp,conjunct,obj,obj_th,punct,root,
p723
I1838
sVadjunct,aux,comp,comp_fin,obj_th,root,subj,
p724
I1213
sVadjunct,comp,conjunct,mwe,obj,pd,root,
p725
I903
sVadjunct,adjunct_rc,comp,comp_inf,conjunct,pd,root,
p726
I2249
sVcomp_inf,refl,root,
p727
I753
sVadjunct,comp,comp_fin,punct,root,subj,
p728
I1191
sVadjunct,comp,conjunct,refl,root,subj,
p729
I744
sVaux,comp,conjunct,mwe,obj,obj_th,root,
p730
I2239
sVadjunct_rc,app,obj,root,subj,
p731
I1763
sVadjunct,comp,punct,root,subj,
p732
I492
sVadjunct,comp,comp_fin,comp_inf,conjunct,obj,obj_th,root,
p733
I989
sVcomp,comp_fin,obj,root,subj,
p734
I677
sVadjunct_qt,comp_inf,conjunct,obj_th,root,
p735
I1890
sVadjunct,app,comp_fin,comp_inf,obj,obj_th,root,subj,
p736
I1608
sVabbrev_punct,adjunct,adjunct_qt,app,conjunct,ne,root,
p737
I2044
sVcomp_fin,neg,root,
p738
I294
sVadjunct,comp_inf,pd,root,
p739
I517
sVadjunct,comp,comp_ag,ne,root,
p740
I1063
sVadjunct,comp,conjunct,obj,root,subj,
p741
I75
sVadjunct,comp,comp_fin,comp_inf,obj_th,refl,root,
p742
I1904
sVadjunct,aux,comp,comp_fin,mwe,obj_th,root,subj,
p743
I1214
sVadjunct,comp,comp_inf,obj_th,root,subj,
p744
I1617
sVadjunct,comp,mwe,obj,
p745
I1712
sVadjunct,comp,comp_inf,conjunct,obj,punct,root,subj,
p746
I1460
sVaux,pd,root,
p747
I795
sVadjunct,comp,obj,pd,root,subj,
p748
I770
sVadjunct,app,comp,mwe,obj_th,punct,root,
p749
I2007
sVadjunct,comp_fin,obj_th,punct,root,subj,
p750
I1153
sVadjunct,comp_fin,comp_inf,root,subj,
p751
I570
sVadjunct,adjunct_rc,comp,conjunct,obj,obj_th,root,
p752
I1757
sVadjunct,adjunct_qt,comp,comp_fin,comp_inf,conjunct,mwe,obj,obj_th,root,
p753
I2223
sVadjunct,adjunct_qt,aglt,root,
p754
I2000
sVadjunct_rc,comp,comp_inf,obj,root,
p755
I576
sVcomp,comp_inf,conjunct,obj,punct,root,
p756
I1899
sVadjunct_rc,refl,root,subj,
p757
I453
sVcomp,comp_fin,comp_inf,conjunct,obj_th,root,
p758
I1222
sVadjunct,comp,obj_th,pd,root,
p759
I1994
sVabbrev_punct,adjunct,obj,root,
p760
I983
sVadjunct,conjunct,obj,pd,pre_coord,root,
p761
I1983
sVadjunct,adjunct_rc,comp_inf,root,subj,
p762
I1590
sVadjunct,aglt,comp,conjunct,root,
p763
I321
sVadjunct,adjunct_compar,comp,comp_inf,conjunct,punct,root,
p764
I949
sVadjunct,comp_fin,pd,root,subj,
p765
I2038
sVcomp,comp_fin,conjunct,refl,root,
p766
I580
sVadjunct,comp_fin,comp_inf,conjunct,obj_th,root,
p767
I1186
sVapp,comp,conjunct,ne,root,
p768
I1306
sVadjunct,aux,comp,neg,root,
p769
I1533
sVadjunct_qt,comp,root,
p770
I226
sVadjunct,adjunct_rc,comp,comp_inf,root,subj,
p771
I1282
sVadjunct,aux,comp,comp_fin,conjunct,root,subj,
p772
I1267
sVadjunct,obj,pre_coord,punct,root,
p773
I2105
sVadjunct,comp_fin,comp_inf,conjunct,obj,refl,root,
p774
I159
sVadjunct,aux,conjunct,root,
p775
I285
sVabbrev_punct,adjunct,comp,conjunct,obj,root,
p776
I1518
sVadjunct,comp_fin,comp_inf,refl,root,subj,
p777
I1257
sVadjunct,obj,pre_coord,root,
p778
I1052
sVadjunct,comp,comp_fin,conjunct,obj,pd,root,
p779
I1202
sVapp,comp,comp_ag,root,
p780
I1647
sVadjunct,adjunct_compar,comp,comp_fin,comp_inf,conjunct,root,
p781
I942
sVadjunct,comp,comp_fin,comp_inf,conjunct,mwe,obj,root,
p782
I161
sVadjunct_compar,comp,comp_fin,comp_inf,conjunct,punct,root,
p783
I943
sVadjunct,app,comp,conjunct,punct,root,subj,
p784
I811
sVadjunct,aux,ne,root,
p785
I1061
sVadjunct,adjunct_rc,app,conjunct,obj,root,
p786
I786
sVadjunct,adjunct_rc,comp,mwe,obj,punct,root,subj,
p787
I1445
sVadjunct,comp,comp_ag,comp_fin,conjunct,root,subj,
p788
I1892
sVadjunct,comp,comp_fin,comp_inf,conjunct,mwe,obj,obj_th,root,
p789
I986
sVadjunct_qt,refl,root,
p790
I579
sVadjunct,comp,comp_ag,comp_inf,obj,root,
p791
I368
sVadjunct_rc,comp,punct,root,subj,
p792
I1015
sVcomp,comp_fin,ne,pd,root,
p793
I178
sVadjunct_qt,conjunct,obj_th,pd,refl,root,
p794
I2226
sVaux,comp_fin,root,
p795
I1221
sVadjunct,comp,mwe,root,subj,
p796
I332
sVadjunct,adjunct_rc,aux,comp,conjunct,root,subj,
p797
I2278
sVadjunct,comp_fin,conjunct,obj,obj_th,root,subj,
p798
I1149
sVadjunct,comp_fin,obj,obj_th,punct,root,subj,
p799
I1158
sVadjunct_qt,conjunct,punct,root,
p800
I117
sVadjunct,comp,comp_inf,conjunct,obj,obj_th,root,
p801
I1338
sVadjunct,comp,comp_inf,conjunct,obj_th,root,subj,
p802
I746
sVadjunct,adjunct_rc,comp_inf,conjunct,obj,
p803
I1912
sVcomp,comp_fin,conjunct,obj,root,subj,
p804
I166
sVadjunct,adjunct_qt,comp,conjunct,obj_th,pd,root,
p805
I2228
sVadjunct,adjunct_rc,comp,neg,root,subj,
p806
I1379
sVadjunct,adjunct_rc,comp,comp_fin,obj,pd,root,
p807
I1274
sVapp,obj,punct,root,
p808
I348
sVadjunct,adjunct_qt,comp_fin,punct,root,subj,
p809
I229
sVadjunct_compar,comp_fin,ne,root,
p810
I2018
sVcomp_inf,conjunct,pd,root,
p811
I173
sVadjunct,pd,punct,root,
p812
I356
sVadjunct,app,comp,obj,root,
p813
I61
sVadjunct,aglt,comp,comp_fin,root,
p814
I1567
sVadjunct,comp,conjunct,ne,obj,pd,root,
p815
I1424
sVadjunct_rc,comp,comp_fin,punct,root,subj,
p816
I1672
sVadjunct,comp_fin,comp_inf,conjunct,obj,pd,root,subj,
p817
I342
sVadjunct,comp,comp_fin,mwe,ne,obj,root,
p818
I2071
sVadjunct,adjunct_qt,ne,root,
p819
I641
sVadjunct,comp,comp_inf,conjunct,ne,obj,root,
p820
I1411
sVadjunct,comp_inf,conjunct,punct,root,
p821
I506
sVadjunct,mwe,obj,root,subj,
p822
I926
sVadjunct,adjunct_rc,comp,conjunct,obj,root,
p823
I384
sVadjunct,comp,comp_ag,obj,punct,root,
p824
I2057
sVconjunct,ne,root,subj,
p825
I322
sVcomp_ag,conjunct,obj,root,
p826
I2261
sVapp,comp,pd,root,
p827
I1529
sVadjunct_rc,comp_fin,comp_inf,conjunct,root,
p828
I1227
sVadjunct,adjunct_qt,adjunct_rc,comp,conjunct,obj,root,
p829
I2048
sVadjunct,comp_fin,comp_inf,obj,root,
p830
I152
sVadjunct,adjunct_rc,comp,comp_fin,comp_inf,conjunct,obj,root,subj,
p831
I1142
sVadjunct,conjunct,mwe,obj,root,
p832
I761
sVcomp,comp_fin,comp_inf,conjunct,obj,pd,root,
p833
I1290
sVadjunct,comp,comp_ag,obj,root,subj,
p834
I1641
sVadjunct,app,comp_fin,conjunct,root,subj,
p835
I1390
sVadjunct,comp_fin,comp_inf,mwe,obj,pd,root,
p836
I1261
sVadjunct,aux,comp_inf,conjunct,mwe,obj_th,root,
p837
I1700
sVadjunct,aux,comp,conjunct,neg,root,
p838
I659
sVapp,comp,conjunct,obj,punct,root,
p839
I2332
sVadjunct,comp,conjunct,ne,punct,root,subj,
p840
I586
sVadjunct,conjunct,ne,obj,obj_th,root,
p841
I1845
sVapp,comp,mwe,obj,root,
p842
I352
sVadjunct,comp,comp_fin,conjunct,neg,root,
p843
I425
sVadjunct_compar,comp,comp_inf,conjunct,obj_th,root,
p844
I953
sVadjunct,comp_fin,comp_inf,conjunct,root,
p845
I780
sVadjunct,ne,root,
p846
I437
sVapp,comp_fin,obj,root,
p847
I2133
sVabbrev_punct,adjunct,pd,root,
p848
I357
sVabbrev_punct,comp,ne,root,subj,
p849
I1092
sVadjunct_rc,conjunct,neg,root,subj,
p850
I1801
sVadjunct,comp,comp_fin,mwe,obj,refl,root,subj,
p851
I2131
sVadjunct,adjunct_qt,comp,comp_ag,mwe,obj,root,
p852
I1962
sVadjunct,comp,comp_ag,conjunct,ne,root,
p853
I375
sVadjunct,app,comp,conjunct,mwe,ne,root,
p854
I540
sVadjunct,comp,punct,refl,root,
p855
I768
sVapp,punct,root,
p856
I278
sVadjunct,app,comp,conjunct,pd,root,subj,
p857
I1539
sVadjunct,adjunct_qt,comp,comp_fin,comp_inf,mwe,root,
p858
I102
sVadjunct_qt,aux,comp_inf,root,
p859
I824
sVabbrev_punct,adjunct,conjunct,root,
p860
I16
sVcomp,conjunct,mwe,root,
p861
I1004
sVcomp,comp_fin,refl,root,subj,
p862
I1789
sVadjunct,adjunct_qt,root,subj,
p863
I581
sVobj,root,
p864
I20
sVadjunct,adjunct_qt,comp_fin,comp_inf,obj_th,root,
p865
I1997
sVadjunct_compar,conjunct,pd,root,
p866
I2304
sVconjunct,obj,pd,root,
p867
I906
sVcomp,comp_fin,conjunct,neg,obj,root,
p868
I1207
sVadjunct,app,comp,comp_ag,conjunct,root,
p869
I716
sVadjunct,adjunct_qt,adjunct_rc,conjunct,obj_th,root,subj,
p870
I1048
sVadjunct,adjunct_qt,comp_inf,pd,root,
p871
I273
sVadjunct,comp,comp_ag,conjunct,mwe,ne,root,
p872
I495
sVadjunct,adjunct_rc,comp,comp_fin,comp_inf,conjunct,root,subj,
p873
I1797
sVadjunct_rc,comp,comp_fin,obj,root,
p874
I1894
sVadjunct_qt,comp,comp_fin,comp_inf,root,
p875
I763
sVobj,punct,root,subj,
p876
I756
sVcomp,conjunct,obj_th,root,
p877
I224
sVadjunct,app,comp,ne,obj,root,
p878
I2333
sVcomp,comp_fin,comp_inf,refl,root,
p879
I2147
sVadjunct,comp,conjunct,mwe,obj,root,
p880
I892
sVadjunct,comp,comp_fin,comp_inf,mwe,obj,root,subj,
p881
I2259
sVabbrev_punct,adjunct,app,conjunct,root,subj,
p882
I546
sVapp,comp,comp_fin,root,
p883
I888
sVadjunct,adjunct_qt,mwe,obj,root,
p884
I999
sVadjunct,adjunct_compar,comp,comp_fin,root,
p885
I1190
sVadjunct,comp,comp_ag,root,subj,
p886
I563
sVadjunct,comp_inf,conjunct,ne,obj,root,
p887
I859
sVadjunct,comp_fin,comp_inf,conjunct,neg,root,
p888
I1588
sVadjunct,conjunct,obj,refl,root,
p889
I131
sVabbrev_punct,adjunct,comp,comp_fin,conjunct,mwe,root,
p890
I674
sVabbrev_punct,adjunct,mwe,root,
p891
I979
sVadjunct,comp_ag,obj_th,root,subj,
p892
I1661
sVcomp,comp_fin,conjunct,obj,refl,root,
p893
I1206
sVaglt,comp_fin,root,
p894
I396
sVcomp_fin,comp_inf,obj,refl,root,
p895
I2256
sVapp,comp,comp_fin,conjunct,punct,root,subj,
p896
I2059
sVadjunct_qt,conjunct,obj,root,subj,
p897
I1098
sVadjunct,ne,obj,root,
p898
I338
sVadjunct_rc,obj,pd,root,
p899
I2121
sVadjunct,obj,pd,root,subj,
p900
I1568
sVcomp_inf,obj_th,root,subj,
p901
I1614
sVadjunct,app,conjunct,ne,pd,root,
p902
I1241
sVabbrev_punct,adjunct,mwe,root,subj,
p903
I2179
sVadjunct,app,conjunct,obj,pd,punct,root,
p904
I1493
sVadjunct,app,comp,mwe,obj,root,
p905
I1131
sVadjunct,comp,comp_fin,comp_inf,conjunct,mwe,root,
p906
I774
sVabbrev_punct,adjunct,comp,ne,pd,root,
p907
I1378
sVadjunct,adjunct_qt,aux,obj,root,
p908
I1774
sVapp,ne,punct,root,
p909
I1085
sVadjunct_qt,aglt,conjunct,root,
p910
I1135
sVadjunct,comp,obj,punct,root,
p911
I523
sVadjunct,adjunct_compar,root,subj,
p912
I2006
sVadjunct,comp,comp_ag,conjunct,root,
p913
I374
sVabbrev_punct,comp,obj,root,
p914
I1353
sVadjunct_rc,obj_th,root,
p915
I1324
sVadjunct,adjunct_rc,comp,root,
p916
I473
sVabbrev_punct,adjunct,comp,mwe,root,subj,
p917
I834
sVconjunct,pre_coord,root,
p918
I1294
sVadjunct,comp,comp_ag,comp_fin,conjunct,obj,root,subj,
p919
I1104
sVcomp,comp_fin,comp_inf,obj,root,
p920
I583
sVadjunct,adjunct_qt,obj_th,punct,root,
p921
I2231
sVadjunct,neg,root,
p922
I524
sVadjunct,adjunct_compar,comp,conjunct,obj,refl,root,
p923
I2028
sVadjunct,comp,conjunct,obj,obj_th,root,
p924
I1088
sVadjunct,aux,comp,comp_fin,comp_inf,conjunct,mwe,root,subj,
p925
I1266
sVadjunct,comp,mwe,ne,root,subj,
p926
I833
sVadjunct,comp_inf,conjunct,obj_th,refl,root,subj,
p927
I1270
sVadjunct,adjunct_qt,conjunct,root,
p928
I216
sVadjunct,comp_fin,mwe,root,
p929
I549
sVadjunct,adjunct_rc,comp,refl,root,
p930
I2012
sVadjunct,pd,punct,root,subj,
p931
I755
sVadjunct,comp,comp_fin,comp_inf,conjunct,obj,obj_th,pd,root,
p932
I2100
sVadjunct,adjunct_qt,comp,comp_fin,comp_inf,root,
p933
I2198
sVcomp,comp_inf,conjunct,obj,obj_th,root,
p934
I1827
sVadjunct,adjunct_rc,comp,comp_fin,obj,obj_th,root,subj,
p935
I1138
sVabbrev_punct,adjunct,app,root,
p936
I1496
sVadjunct_rc,comp,conjunct,mwe,obj_th,root,
p937
I1349
sVadjunct,comp,conjunct,obj,pre_coord,root,subj,
p938
I85
sVadjunct,aux,comp,obj,
p939
I1718
sVadjunct,comp,comp_fin,comp_inf,mwe,obj,root,
p940
I1260
sVadjunct_qt,comp,conjunct,obj_th,root,
p941
I847
sVadjunct,comp,comp_fin,obj,root,subj,
p942
I881
sVadjunct,adjunct_compar,adjunct_qt,comp_fin,comp_inf,conjunct,root,subj,
p943
I1573
sVaglt,cond,root,
p944
I107
sVadjunct,adjunct_rc,comp,conjunct,obj,pd,root,
p945
I1979
sVadjunct,comp,comp_ag,punct,root,
p946
I1105
sVadjunct,app,obj,root,subj,
p947
I405
sVadjunct_qt,comp,comp_fin,punct,root,subj,
p948
I2092
sVcomp,neg,root,
p949
I1615
sVaux,comp_fin,conjunct,root,
p950
I123
sVadjunct,adjunct_rc,comp,comp_fin,punct,root,subj,
p951
I2156
sVadjunct,app,conjunct,ne,punct,root,subj,
p952
I2323
sVadjunct,aux,comp,comp_fin,comp_inf,conjunct,root,subj,
p953
I1265
sVadjunct,adjunct_qt,comp_fin,conjunct,refl,root,subj,
p954
I238
sVadjunct,app,comp,conjunct,ne,pd,root,
p955
I1992
sVadjunct,comp,cond,conjunct,root,
p956
I1396
sVadjunct,comp,comp_fin,conjunct,neg,obj,root,
p957
I1199
sVadjunct,aglt,comp,comp_fin,conjunct,root,
p958
I1134
sVaux,comp,comp_fin,root,subj,
p959
I723
sVadjunct,adjunct_rc,app,comp,ne,root,subj,
p960
I1079
sVcomp,conjunct,obj_th,root,subj,
p961
I1385
sVobj,root,subj,
p962
I727
sVadjunct_rc,comp,comp_fin,conjunct,pd,root,subj,
p963
I2203
sVadjunct,app,comp,comp_fin,ne,root,subj,
p964
I1766
sVadjunct,adjunct_compar,comp,comp_fin,comp_inf,conjunct,punct,root,
p965
I1311
sVadjunct,adjunct_rc,conjunct,ne,pd,root,
p966
I1879
sVadjunct,root,
p967
I9
sVadjunct,comp_fin,conjunct,ne,obj_th,root,
p968
I1871
sVadjunct,adjunct_rc,aglt,cond,conjunct,root,
p969
I1988
sVadjunct,aux,comp,conjunct,pd,root,
p970
I714
sVadjunct,comp,comp_ag,conjunct,ne,obj,root,
p971
I1942
sVadjunct_qt,pd,root,
p972
I274
sVabbrev_punct,conjunct,root,subj,
p973
I1836
sVadjunct,adjunct_rc,aux,comp,comp_fin,conjunct,root,subj,
p974
I2116
sVadjunct,app,comp,punct,root,subj,
p975
I1067
sVadjunct,adjunct_qt,comp,comp_ag,obj_th,root,
p976
I1735
sVadjunct,comp_fin,comp_inf,pd,root,
p977
I1859
sVabbrev_punct,comp,comp_fin,root,subj,
p978
I2152
sVadjunct_rc,aux,root,subj,
p979
I2262
sVabbrev_punct,adjunct,app,comp,conjunct,mwe,root,
p980
I537
sVcomp_inf,root,subj,
p981
I569
sVadjunct,app,obj,pd,root,
p982
I613
sVadjunct,comp_ag,root,
p983
I608
sVadjunct_qt,comp_inf,conjunct,obj,root,
p984
I1623
sVadjunct_compar,comp,conjunct,root,
p985
I2072
sVabbrev_punct,conjunct,root,
p986
I1974
sVadjunct,adjunct_rc,comp,conjunct,punct,root,
p987
I318
sVadjunct,comp_ag,conjunct,pd,root,
p988
I2008
sVne,obj_th,root,
p989
I692
sVadjunct_qt,comp,punct,root,
p990
I766
sVadjunct,comp_ag,conjunct,obj,root,
p991
I2326
sVadjunct,app,comp,punct,root,
p992
I541
sVcomp_ag,pd,root,
p993
I1849
sVadjunct,adjunct_compar,comp,comp_fin,conjunct,obj_th,pd,root,
p994
I1667
sVadjunct,adjunct_compar,comp,comp_fin,mwe,obj,root,subj,
p995
I2127
sVadjunct,adjunct_qt,comp,comp_fin,root,
p996
I209
sVadjunct,comp,comp_fin,comp_inf,obj,root,subj,
p997
I894
sVapp,comp_fin,obj,punct,root,
p998
I2132
sVadjunct,comp_fin,obj_th,root,subj,
p999
I262
sVadjunct_rc,comp_inf,obj,root,subj,
p1000
I1475
sVaux,comp_inf,root,
p1001
I619
sVadjunct,comp,comp_fin,obj_th,root,subj,
p1002
I779
sVadjunct,adjunct_qt,adjunct_rc,conjunct,root,subj,
p1003
I1044
sVne,punct,root,
p1004
I995
sVadjunct,comp,comp_inf,conjunct,root,
p1005
I198
sVaux,ne,root,
p1006
I2103
sVapp,ne,obj,root,
p1007
I703
sVadjunct,aux,conjunct,obj,root,
p1008
I1605
sVadjunct,comp,comp_fin,comp_inf,refl,root,
p1009
I1479
sVadjunct,conjunct,mwe,obj,pd,root,
p1010
I1455
sVconjunct,obj,refl,root,
p1011
I1628
sVadjunct,app,conjunct,pd,punct,root,subj,
p1012
I1540
sVadjunct,comp,obj,subj,
p1013
I1717
sVcomp,conjunct,obj,punct,root,
p1014
I1116
sVadjunct_qt,conjunct,root,
p1015
I118
sVadjunct,adjunct_qt,comp,comp_fin,conjunct,obj_th,root,
p1016
I2173
sVadjunct_rc,comp_inf,obj,obj_th,root,
p1017
I1477
sVadjunct,adjunct_compar,comp,comp_ag,conjunct,ne,root,
p1018
I532
sVapp,cond,obj,root,
p1019
I446
sVaux,comp,comp_fin,conjunct,root,
p1020
I416
sVaux,comp,comp_fin,comp_inf,conjunct,root,
p1021
I772
sVadjunct,adjunct_rc,comp,conjunct,root,
p1022
I313
sVcomp,conjunct,root,subj,
p1023
I172
sVadjunct,app,comp,comp_fin,comp_inf,ne,obj,root,subj,
p1024
I1768
sVabbrev_punct,root,subj,
p1025
I60
sVadjunct,comp_fin,punct,root,subj,
p1026
I235
sVadjunct,adjunct_rc,punct,root,
p1027
I440
sVadjunct_qt,ne,root,
p1028
I1650
sVcomp_fin,comp_inf,conjunct,obj,root,subj,
p1029
I341
sVadjunct,adjunct_qt,comp,comp_fin,conjunct,obj,root,subj,
p1030
I2090
sVadjunct_qt,comp,comp_fin,comp_inf,obj,pd,root,subj,
p1031
I1506
sVadjunct,comp,mwe,obj,punct,root,subj,
p1032
I1449
sVadjunct,comp,comp_fin,mwe,obj,punct,root,subj,
p1033
I2129
sVadjunct_compar,app,comp,punct,root,
p1034
I1026
sVadjunct,adjunct_rc,comp,comp_inf,refl,root,subj,
p1035
I1380
sVabbrev_punct,adjunct_qt,comp,root,
p1036
I1740
sVcomp,comp_fin,cond,root,
p1037
I1397
sVabbrev_punct,ne,root,
p1038
I1103
sVadjunct,adjunct_compar,comp,neg,root,
p1039
I2287
sVadjunct_qt,app,mwe,punct,root,
p1040
I1786
sVadjunct,adjunct_rc,comp,comp_ag,conjunct,mwe,ne,root,
p1041
I1663
sVadjunct,comp,comp_fin,comp_inf,obj,obj_th,
p1042
I1730
sVadjunct_qt,neg,root,
p1043
I822
sVadjunct,comp,pd,root,subj,
p1044
I699
sVadjunct_compar,comp,comp_fin,conjunct,root,
p1045
I1643
sVaglt,cond,root,subj,
p1046
I997
sVabbrev_punct,adjunct,root,subj,
p1047
I69
sVabbrev_punct,adjunct,comp,comp_fin,conjunct,root,subj,
p1048
I1310
sVapp,mwe,ne,root,
p1049
I1782
sVadjunct,adjunct_rc,comp,conjunct,pd,root,subj,
p1050
I870
sVadjunct,conjunct,neg,pd,root,
p1051
I742
sVadjunct,comp,comp_inf,mwe,ne,root,
p1052
I1220
sVadjunct,comp_fin,conjunct,obj_th,pd,root,
p1053
I1058
sVconjunct,ne,obj,punct,root,
p1054
I1943
sVadjunct,adjunct_qt,pd,root,
p1055
I269
sVcomp_fin,conjunct,mwe,root,
p1056
I420
sVadjunct,adjunct_rc,aglt,comp,obj_th,root,
p1057
I1182
sVadjunct,comp_inf,refl,root,subj,
p1058
I2289
sVcomp,comp_ag,conjunct,mwe,obj_th,root,
p1059
I2242
sVadjunct_rc,app,obj,root,
p1060
I1764
sVadjunct,adjunct_rc,comp,comp_inf,conjunct,root,subj,
p1061
I1013
sVadjunct,comp_fin,conjunct,obj,pd,root,
p1062
I1925
sVadjunct,comp,comp_ag,conjunct,mwe,obj_th,root,
p1063
I2243
sVcomp,comp_inf,root,subj,
p1064
I1326
sVadjunct,comp,comp_ag,root,
p1065
I290
sVadjunct,comp,conjunct,mwe,punct,root,
p1066
I1426
sVcomp,comp_fin,comp_inf,conjunct,mwe,obj,root,subj,
p1067
I1357
sVadjunct_qt,refl,root,subj,
p1068
I2312
sVadjunct,conjunct,pd,root,
p1069
I129
sVadjunct,comp_fin,mwe,refl,root,
p1070
I809
sVadjunct,mwe,obj,obj_th,root,
p1071
I1704
sVadjunct,comp,comp_inf,obj,obj_th,root,
p1072
I1335
sVadjunct,comp,comp_inf,obj_th,root,
p1073
I1331
sVadjunct,comp,obj,root,
p1074
I50
sVadjunct_compar,comp,ne,root,subj,
p1075
I1659
sVcomp,obj,root,
p1076
I48
sVadjunct,comp_inf,conjunct,mwe,obj,root,
p1077
I912
sVadjunct,comp,comp_fin,comp_inf,conjunct,obj_th,root,
p1078
I1223
sVadjunct,app,conjunct,obj,root,subj,
p1079
I398
sVadjunct,mwe,pre_coord,root,subj,
p1080
I1235
sVadjunct,app,comp,comp_fin,conjunct,obj,refl,root,subj,
p1081
I73
sVadjunct,comp,conjunct,obj,punct,root,
p1082
I484
sVadjunct,comp,comp_inf,conjunct,mwe,obj_th,root,
p1083
I1702
sVadjunct,conjunct,imp,root,
p1084
I2053
sVadjunct,comp_fin,conjunct,mwe,pd,root,
p1085
I2009
sVadjunct_qt,comp,comp_inf,obj,root,
p1086
I1747
sVadjunct,adjunct_rc,app,root,subj,
p1087
I2283
sVadjunct_qt,comp,root,subj,
p1088
I1626
sVadjunct,adjunct_compar,conjunct,root,
p1089
I1119
sVadjunct_qt,comp,comp_fin,obj,root,subj,
p1090
I2093
sVadjunct_qt,comp,comp_fin,conjunct,obj_th,punct,root,
p1091
I2174
sVadjunct_qt,comp,comp_inf,punct,root,
p1092
I1508
sVadjunct,app,comp,comp_fin,conjunct,ne,obj,obj_th,root,subj,
p1093
I72
sVadjunct,comp,comp_fin,pd,punct,root,
p1094
I1176
sVadjunct,adjunct_qt,comp,comp_fin,comp_inf,root,subj,
p1095
I1510
sVadjunct,adjunct_compar,app,comp,conjunct,mwe,root,subj,
p1096
I1431
sVadjunct,comp_fin,comp_inf,obj,obj_th,root,subj,
p1097
I1607
sVcomp,comp_fin,comp_inf,conjunct,pd,root,
p1098
I1291
sVadjunct,aux,comp,comp_inf,root,
p1099
I865
sVadjunct,adjunct_rc,comp,conjunct,obj,refl,root,
p1100
I1100
sVaux,comp_fin,conjunct,root,subj,
p1101
I1391
sVcomp,comp_ag,comp_fin,root,
p1102
I2055
sVadjunct,adjunct_compar,adjunct_qt,comp,comp_fin,comp_inf,pd,root,
p1103
I2194
sVadjunct,adjunct_qt,comp_fin,neg,root,
p1104
I816
sVcomp_inf,conjunct,neg,obj,root,
p1105
I1532
sVadjunct_compar,comp_fin,punct,root,
p1106
I2016
sVadjunct,adjunct_compar,comp,comp_fin,comp_inf,conjunct,root,subj,
p1107
I951
sVadjunct_qt,app,root,
p1108
I1742
sVadjunct,comp,comp_fin,conjunct,ne,obj,root,
p1109
I1851
sVadjunct,app,refl,root,subj,
p1110
I831
sVaglt,comp,root,
p1111
I1133
sVcomp,comp_fin,comp_inf,pd,root,
p1112
I1035
sVadjunct,comp_ag,pd,root,
p1113
I1461
sVadjunct,comp,obj,punct,refl,root,
p1114
I1447
sVcomp_fin,obj_th,punct,root,subj,
p1115
I1159
sVadjunct_rc,conjunct,root,subj,
p1116
I1381
sVapp,comp,comp_fin,conjunct,ne,root,subj,
p1117
I2060
sVabbrev_punct,comp,ne,root,
p1118
I1055
sVadjunct_rc,comp,conjunct,obj_th,pd,root,
p1119
I2253
sVadjunct,comp_fin,comp_inf,conjunct,root,subj,
p1120
I1320
sVaux,comp,comp_fin,root,
p1121
I908
sVadjunct,comp,mwe,pd,root,
p1122
I690
sVadjunct,adjunct_qt,comp,conjunct,mwe,obj_th,root,
p1123
I855
sVcomp_fin,conjunct,mwe,obj,root,
p1124
I2039
sVadjunct,conjunct,neg,punct,root,
p1125
I2187
sVadjunct,adjunct_qt,comp,obj,punct,root,subj,
p1126
I1636
sVadjunct,cond,obj,root,
p1127
I2045
sVadjunct,comp,ne,obj_th,root,
p1128
I858
sVadjunct,aux,comp,conjunct,punct,root,
p1129
I982
sVadjunct,app,comp,comp_fin,conjunct,root,subj,
p1130
I1037
sVcomp,punct,
p1131
I840
sVadjunct,app,comp,comp_fin,root,
p1132
I887
sVadjunct,adjunct_qt,app,comp,root,
p1133
I1488
sVadjunct,comp_inf,refl,root,
p1134
I1234
sVadjunct,app,comp,comp_fin,refl,root,
p1135
I1286
sVadjunct,comp_inf,obj_th,root,subj,
p1136
I1394
sVadjunct,comp,conjunct,neg,obj,root,
p1137
I1101
sVabbrev_punct,adjunct,app,comp,conjunct,root,
p1138
I542
sVadjunct_qt,comp,comp_fin,conjunct,obj,root,
p1139
I1681
sVaux,comp_fin,root,subj,
p1140
I1403
sVadjunct_qt,conjunct,obj,root,
p1141
I122
sVadjunct_qt,comp,punct,
p1142
I1709
sVadjunct,adjunct_qt,adjunct_rc,comp,mwe,root,
p1143
I1362
sVadjunct,comp,comp_fin,comp_inf,conjunct,pd,root,
p1144
I1927
sVadjunct,neg,obj,root,
p1145
I1556
sVadjunct,adjunct_rc,app,conjunct,punct,root,subj,
p1146
I1872
sVadjunct,adjunct_rc,root,
p1147
I441
sVapp,comp,conjunct,ne,punct,root,
p1148
I1307
sVcomp_fin,conjunct,punct,root,
p1149
I125
sVadjunct,app,comp,obj,punct,root,
p1150
I68
sVadjunct,adjunct_compar,comp,obj,pd,root,
p1151
I2255
sVcomp,conjunct,obj,root,subj,
p1152
I704
sVabbrev_punct,app,conjunct,root,subj,
p1153
I1991
sVcomp_inf,conjunct,obj,obj_th,root,
p1154
I1452
sVadjunct,adjunct_qt,adjunct_rc,comp_fin,root,subj,
p1155
I1373
sVadjunct,aux,comp_inf,root,
p1156
I2037
sVcomp_fin,punct,refl,root,
p1157
I1151
sVapp,comp,comp_fin,root,subj,
p1158
I886
sVadjunct,comp_fin,comp_inf,obj_th,punct,root,subj,
p1159
I1155
sVadjunct,adjunct_rc,app,comp,comp_inf,conjunct,obj,root,
p1160
I792
sVabbrev_punct,ne,obj,root,
p1161
I2245
sVadjunct,adjunct_compar,comp,comp_fin,conjunct,refl,root,
p1162
I2073
sVadjunct,comp,comp_fin,obj,punct,root,
p1163
I1194
sVcomp_fin,comp_inf,obj,root,subj,
p1164
I991
sVcond,root,subj,
p1165
I996
sVadjunct,comp,ne,obj,root,subj,
p1166
I594
sVadjunct_rc,comp,comp_fin,comp_inf,conjunct,pd,punct,root,subj,
p1167
I2295
sVadjunct,adjunct_rc,comp,comp_fin,comp_inf,root,subj,
p1168
I2157
sVcomp,comp_ag,conjunct,obj,root,
p1169
I1721
sVadjunct,aux,comp_inf,conjunct,obj_th,root,
p1170
I712
sVcomp,comp_fin,conjunct,obj,root,
p1171
I560
sVaux,comp,comp_fin,obj_th,root,subj,
p1172
I1211
sVadjunct,aglt,pd,root,
p1173
I1454
sVadjunct,comp,comp_fin,comp_inf,ne,root,
p1174
I656
sVadjunct,app,ne,root,subj,
p1175
I836
sVadjunct,ne,pd,root,
p1176
I358
sVcomp,conjunct,root,
p1177
I25
sVcomp,mwe,obj,pd,punct,root,
p1178
I1953
sVadjunct,adjunct_compar,punct,root,subj,
p1179
I2005
sVabbrev_punct,adjunct,ne,root,subj,
p1180
I535
sVadjunct_qt,comp,conjunct,obj,obj_th,root,
p1181
I240
sVadjunct_qt,comp_fin,comp_inf,obj_th,root,
p1182
I1998
sVadjunct_rc,refl,root,
p1183
I1439
sVadjunct,comp,comp_fin,comp_inf,
p1184
I1729
sVabbrev_punct,adjunct,comp,comp_ag,ne,root,subj,
p1185
I2180
sVadjunct,comp_inf,conjunct,obj,obj_th,root,
p1186
I913
sVabbrev_punct,adjunct,comp,root,
p1187
I457
sVadjunct_rc,comp,conjunct,root,subj,
p1188
I1551
sVadjunct,comp_inf,conjunct,obj_th,root,
p1189
I909
sVadjunct,conjunct,mwe,obj_th,root,
p1190
I1686
sVadjunct,comp_fin,conjunct,obj,root,subj,
p1191
I661
sVapp,mwe,root,subj,
p1192
I2138
sVadjunct,comp,mwe,obj,pd,punct,root,
p1193
I1961
sVadjunct,refl,root,
p1194
I510
sVcomp_inf,obj,obj_th,root,
p1195
I1523
sVadjunct,adjunct_rc,comp,comp_fin,root,
p1196
I474
sVadjunct,obj,refl,root,
p1197
I1144
sVadjunct,conjunct,obj,obj_th,root,subj,
p1198
I1816
sVadjunct,adjunct_compar,adjunct_qt,comp,comp_fin,comp_inf,obj,pd,root,subj,
p1199
I1505
sVadjunct,adjunct_rc,comp,conjunct,obj_th,root,subj,
p1200
I1549
sVadjunct,adjunct_qt,comp,comp_fin,obj,refl,root,subj,
p1201
I1034
sVadjunct,comp,comp_fin,obj,root,
p1202
I41
sVadjunct,conjunct,obj_th,pd,root,
p1203
I739
sVadjunct,adjunct_qt,app,ne,root,
p1204
I1268
sVadjunct,comp_fin,ne,obj,root,
p1205
I2108
sVadjunct_rc,comp_fin,conjunct,obj,root,subj,
p1206
I875
sVadjunct,comp,comp_inf,pd,punct,root,
p1207
I2189
sVadjunct,app,comp,mwe,root,
p1208
I673
sVadjunct,app,obj,punct,root,
p1209
I1325
sVadjunct_compar,comp,comp_fin,comp_inf,root,
p1210
I2015
sVcond,conjunct,root,
p1211
I1367
sVitem,mwe,root,
p1212
I965
sVaux,comp_inf,conjunct,obj,root,
p1213
I1803
sVadjunct,comp_fin,neg,root,
p1214
I970
sVadjunct,adjunct_qt,comp,
p1215
I1711
sVadjunct,comp,conjunct,ne,punct,root,
p1216
I735
sVadjunct,adjunct_qt,comp,punct,root,
p1217
I2195
sVcomp,comp_fin,conjunct,mwe,root,
p1218
I1007
sVcomp,comp_fin,obj,refl,root,
p1219
I676
sVadjunct_qt,adjunct_rc,obj,root,subj,
p1220
I1369
sVadjunct,comp_inf,conjunct,obj_th,root,subj,
p1221
I1271
sVaux,comp,comp_fin,obj,root,
p1222
I1425
sVadjunct,adjunct_rc,comp,comp_inf,conjunct,pd,root,subj,
p1223
I2251
sVadjunct_rc,conjunct,pd,root,subj,
p1224
I646
sVabbrev_punct,adjunct,comp,conjunct,root,
p1225
I443
sVadjunct,adjunct_qt,app,comp,conjunct,punct,root,
p1226
I850
sVadjunct,comp,comp_fin,comp_inf,conjunct,obj_th,punct,root,
p1227
I1900
sVadjunct,adjunct_qt,adjunct_rc,comp,obj,root,
p1228
I1778
sVadjunct,adjunct_qt,obj,root,subj,
p1229
I1775
sVcomp,comp_fin,conjunct,mwe,ne,root,subj,
p1230
I1005
sVadjunct,adjunct_qt,adjunct_rc,comp,conjunct,root,subj,
p1231
I1045
sVcomp,conjunct,punct,root,subj,
p1232
I113
sVadjunct,comp,comp_inf,conjunct,refl,root,
p1233
I667
sVadjunct,aglt,obj,root,
p1234
I1143
sVadjunct,app,comp,comp_fin,conjunct,ne,obj,root,
p1235
I1480
sVaux,obj,root,
p1236
I757
sVadjunct,comp_inf,root,subj,
p1237
I310
sVadjunct,comp_inf,obj,punct,root,subj,
p1238
I2264
sVadjunct_compar,comp,comp_inf,conjunct,root,subj,
p1239
I952
sVadjunct,conjunct,mwe,obj_th,root,subj,
p1240
I1699
sVadjunct,adjunct_rc,comp,conjunct,pd,punct,root,
p1241
I869
sVadjunct_qt,conjunct,pd,root,subj,
p1242
I925
sVadjunct,app,conjunct,ne,obj,root,
p1243
I1128
sVadjunct_rc,conjunct,obj_th,root,
p1244
I2270
sVadjunct,adjunct_qt,conjunct,root,subj,
p1245
I503
sVadjunct,punct,root,
p1246
I249
sVadjunct,conjunct,ne,neg,root,subj,
p1247
I2322
sVadjunct,comp,comp_fin,comp_inf,conjunct,obj,pd,root,
p1248
I1192
sVaglt,conjunct,root,
p1249
I306
sVadjunct,conjunct,obj_th,punct,root,subj,
p1250
I2317
sVadjunct_rc,comp,comp_fin,comp_inf,conjunct,punct,root,subj,
p1251
I2294
sVadjunct_qt,adjunct_rc,comp_fin,root,subj,
p1252
I1372
sVadjunct_compar,comp_fin,obj_th,root,subj,
p1253
I1860
sVcomp,comp_fin,obj,obj_th,root,
p1254
I335
sVadjunct,adjunct_qt,app,root,
p1255
I1487
sVaux,comp_inf,conjunct,root,
p1256
I863
sVadjunct_qt,comp,comp_inf,conjunct,root,
p1257
I1889
sVadjunct,comp_fin,conjunct,refl,root,subj,
p1258
I1936
sVadjunct,app,comp,comp_fin,mwe,obj,root,subj,
p1259
I70
sVadjunct,adjunct_qt,conjunct,obj,obj_th,pd,root,
p1260
I2230
sVadjunct_rc,app,punct,root,subj,
p1261
I1441
sVadjunct_qt,obj_th,root,
p1262
I708
sVadjunct,adjunct_rc,comp,comp_ag,conjunct,root,
p1263
I1664
sVadjunct,adjunct_qt,conjunct,mwe,root,subj,
p1264
I845
sVadjunct_qt,conjunct,obj_th,pd,root,
p1265
I2225
sVadjunct,conjunct,obj,obj_th,punct,root,
p1266
I1136
sVadjunct_rc,conjunct,mwe,ne,root,subj,
p1267
I1343
sVabbrev_punct,adjunct,comp,obj,root,
p1268
I596
sVadjunct_qt,comp,comp_fin,conjunct,punct,root,
p1269
I2076
sVadjunct_rc,comp,comp_inf,conjunct,obj,root,subj,
p1270
I1011
sVadjunct,adjunct_rc,comp,mwe,punct,root,
p1271
I1365
sVcomp,conjunct,obj,obj_th,root,
p1272
I719
sVadjunct,aglt,comp,comp_fin,comp_inf,root,
p1273
I1210
sVapp,obj_th,root,
p1274
I800
sVadjunct,adjunct_compar,comp,root,
p1275
I827
sVabbrev_punct,adjunct,app,comp,comp_fin,ne,root,subj,
p1276
I1770
sVmwe,pre_coord,root,subj,
p1277
I2313
sVcomp,comp_inf,conjunct,mwe,root,
p1278
I962
sVadjunct,obj,root,
p1279
I21
sVadjunct_qt,aux,conjunct,root,
p1280
I215
sVadjunct,app,obj,obj_th,punct,root,
p1281
I259
sVadjunct_qt,item,root,
p1282
I2033
sVadjunct,adjunct_rc,comp_fin,root,
p1283
I2069
sVadjunct,adjunct_compar,comp,comp_inf,conjunct,obj,pd,root,
p1284
I1416
sVadjunct_qt,comp_fin,refl,root,
p1285
I977
sVadjunct,adjunct_qt,conjunct,obj_th,root,
p1286
I1497
sVobj,refl,root,
p1287
I1471
sVadjunct_rc,comp,conjunct,obj,root,subj,
p1288
I1483
sVadjunct,aglt,comp_inf,conjunct,obj,root,
p1289
I1791
sVapp,comp,punct,root,
p1290
I802
sVaux,comp,comp_fin,obj_th,root,
p1291
I1215
sVadjunct,adjunct_compar,comp,conjunct,root,subj,
p1292
I1339
sVcomp,comp_fin,pd,punct,root,
p1293
I1881
sVadjunct,comp,comp_fin,comp_inf,obj,punct,root,
p1294
I1387
sVcomp,mwe,root,
p1295
I483
sVadjunct,adjunct_qt,comp,conjunct,root,
p1296
I217
sVcomp,comp_inf,ne,obj,root,
p1297
I1359
sVadjunct_compar,adjunct_qt,comp,comp_fin,comp_inf,obj,pd,root,subj,
p1298
I1504
sVadjunct,aux,comp_inf,conjunct,root,
p1299
I709
sVadjunct,conjunct,mwe,root,
p1300
I140
sVabbrev_punct,adjunct,comp,conjunct,mwe,obj,root,
p1301
I976
sVadjunct,comp,obj,obj_th,punct,root,
p1302
I1582
sVadjunct,comp_fin,conjunct,obj,obj_th,refl,root,
p1303
I1470
sVabbrev_punct,app,root,
p1304
I491
sVadjunct_compar,comp_fin,comp_inf,conjunct,root,subj,
p1305
I2212
sVcomp,comp_fin,conjunct,punct,root,subj,
p1306
I2171
sVadjunct,adjunct_rc,app,conjunct,pd,root,
p1307
I2162
sVadjunct,adjunct_rc,comp,cond,obj,root,subj,
p1308
I1931
sVadjunct,comp_inf,conjunct,obj,root,subj,
p1309
I873
sVcomp_fin,comp_inf,conjunct,root,
p1310
I295
sVabbrev_punct,adjunct,comp,conjunct,obj,root,subj,
p1311
I1238
sVadjunct,comp,comp_fin,mwe,obj,root,
p1312
I551
sVadjunct,adjunct_qt,adjunct_rc,obj,punct,root,
p1313
I1777
sVadjunct,comp,ne,pd,punct,root,
p1314
I732
sVadjunct,adjunct_qt,conjunct,mwe,obj,root,subj,
p1315
I2311
sVadjunct,mwe,root,
p1316
I284
sVadjunct,adjunct_qt,punct,root,
p1317
I496
sVadjunct,comp,conjunct,mwe,punct,root,subj,
p1318
I1427
sVadjunct_qt,conjunct,obj,obj_th,root,
p1319
I243
sVadjunct,adjunct_compar,app,comp,root,
p1320
I1027
sVadjunct_qt,conjunct,ne,root,
p1321
I533
sVconjunct,ne,punct,root,
p1322
I1807
sVcomp,comp_fin,comp_inf,conjunct,root,
p1323
I192
sVadjunct,adjunct_rc,app,comp,conjunct,pd,punct,root,
p1324
I686
sVconjunct,neg,root,subj,
p1325
I1829
sVadjunct_rc,aux,conjunct,obj_th,root,
p1326
I2269
sVadjunct,adjunct_rc,comp,comp_inf,conjunct,obj_th,root,
p1327
I315
sVadjunct,comp,comp_ag,conjunct,obj_th,punct,root,
p1328
I1946
sVadjunct,comp_fin,conjunct,obj,punct,root,
p1329
I1201
sVadjunct,comp,comp_fin,
p1330
I1724
sVadjunct,comp_inf,obj,obj_th,punct,root,
p1331
I1521
sVabbrev_punct,adjunct,comp,comp_fin,comp_inf,conjunct,obj,root,
p1332
I1657
sVadjunct,app,conjunct,pd,punct,root,
p1333
I1239
sVadjunct_rc,comp_fin,mwe,pd,punct,root,
p1334
I433
sVadjunct,comp,comp_fin,comp_inf,obj_th,root,
p1335
I890
sVadjunct_compar,aglt,comp_fin,root,
p1336
I1594
sVmwe,punct,root,
p1337
I920
sVadjunct,app,comp,comp_ag,conjunct,obj,root,subj,
p1338
I400
sVadjunct,comp_inf,obj,root,
p1339
I186
sVadjunct,adjunct_rc,obj,root,subj,
p1340
I402
sVadjunct,comp,mwe,obj,root,subj,
p1341
I331
sVadjunct,comp,comp_fin,comp_inf,pd,root,subj,
p1342
I2098
sVadjunct,app,comp,conjunct,mwe,root,subj,
p1343
I488
sVadjunct,comp_inf,conjunct,mwe,root,
p1344
I668
sVadjunct,adjunct_rc,conjunct,root,subj,
p1345
I1550
sVcomp,comp_fin,conjunct,obj,punct,root,
p1346
I1208
sVapp,comp_fin,root,subj,
p1347
I1601
sVapp,conjunct,obj,punct,root,
p1348
I1022
sVcomp,conjunct,neg,root,
p1349
I353
sVadjunct_qt,punct,root,subj,
p1350
I1637
sVadjunct,app,comp,conjunct,obj,punct,root,subj,
p1351
I1432
sVcomp_fin,conjunct,obj,obj_th,root,
p1352
I393
sVadjunct,comp_fin,cond,root,
p1353
I812
sVadjunct,ne,obj,pd,root,
p1354
I689
sVadjunct,adjunct_qt,comp_fin,mwe,punct,root,
p1355
I94
sVadjunct,comp_fin,pd,punct,root,
p1356
I2314
sVadjunct,adjunct_qt,adjunct_rc,aux,conjunct,root,subj,
p1357
I1047
sVadjunct,comp,mwe,punct,root,subj,
p1358
I754
sVadjunct,app,comp_ag,root,
p1359
I1304
sVadjunct_rc,comp_fin,conjunct,root,
p1360
I1106
sVadjunct,adjunct_rc,comp_fin,obj,obj_th,pd,root,
p1361
I1276
sVadjunct,comp,comp_fin,mwe,punct,root,
p1362
I900
sVroot,
p1363
I11
sVadjunct,adjunct_compar,adjunct_qt,comp_fin,comp_inf,conjunct,punct,root,
p1364
I1576
sVabbrev_punct,adjunct,comp,ne,obj,root,
p1365
I1544
sVadjunct,comp,comp_inf,obj,root,
p1366
I194
sVadjunct,adjunct_qt,conjunct,pd,root,subj,
p1367
I1246
sVcomp_fin,pd,root,
p1368
I267
sVadjunct_rc,comp,comp_fin,conjunct,obj,root,subj,
p1369
I876
sVadjunct,comp_fin,conjunct,ne,root,
p1370
I2340
sVcomp_inf,punct,root,
p1371
I618
sVadjunct,app,comp,comp_fin,obj,punct,root,subj,
p1372
I65
sVadjunct_qt,comp,comp_fin,comp_inf,obj,root,
p1373
I765
sVapp,ne,root,subj,
p1374
I275
sVadjunct,conjunct,subj,
p1375
I1916
sVadjunct,adjunct_rc,pd,root,
p1376
I298
sVadjunct,app,conjunct,ne,root,
p1377
I810
sVadjunct,obj,punct,root,
p1378
I287
sVadjunct,comp,comp_fin,comp_inf,root,subj,
p1379
I1255
sVadjunct,aglt,root,
p1380
I743
sVmwe,obj_th,punct,root,
p1381
I1810
sVadjunct_qt,comp_fin,root,subj,
p1382
I978
sVconjunct,punct,root,
p1383
I126
sVadjunct,app,comp_fin,ne,obj,root,
p1384
I2135
sVadjunct,app,comp,comp_fin,punct,root,
p1385
I1285
sVadjunct_compar,comp_inf,root,
p1386
I960
sVcomp_fin,conjunct,pd,root,
p1387
I653
sVadjunct,comp_inf,obj,root,subj,
p1388
I1170
sVadjunct,neg,obj_th,root,
p1389
I253
sVadjunct,adjunct_compar,comp,comp_inf,root,
p1390
I1589
sVcomp,comp_inf,conjunct,punct,root,
p1391
I189
sVadjunct,mwe,obj,pre_coord,root,
p1392
I1053
sVadjunct,comp_ag,comp_fin,punct,root,
p1393
I1243
sVadjunct,comp,comp_ag,obj_th,root,
p1394
I370
sVadjunct_qt,comp,comp_fin,comp_inf,root,subj,
p1395
I1509
sVabbrev_punct,adjunct,comp,ne,root,
p1396
I775
sVadjunct,conjunct,ne,obj,pd,root,
p1397
I1688
sVadjunct_compar,comp,comp_fin,ne,root,
p1398
I2017
sVadjunct,adjunct_rc,comp,conjunct,refl,root,
p1399
I314
sVcomp,comp_fin,comp_inf,conjunct,neg,root,
p1400
I1499
sVadjunct_rc,conjunct,obj_th,root,subj,
p1401
I1548
sVadjunct,comp,mwe,obj_th,root,
p1402
I1878
sVapp,obj,root,
p1403
I350
sVadjunct,app,comp,comp_fin,conjunct,obj,root,subj,
p1404
I45
sVadjunct,adjunct_qt,app,mwe,root,
p1405
I1785
sVadjunct_compar,obj,root,
p1406
I2084
sVadjunct,comp,conjunct,obj,pd,pre_coord,root,subj,
p1407
I86
sVadjunct,app,comp,comp_fin,conjunct,obj,punct,root,subj,
p1408
I74
sVapp,comp,comp_ag,ne,root,
p1409
I1805
sVcomp,refl,root,
p1410
I671
sVadjunct,comp_fin,comp_inf,obj,obj_th,punct,root,
p1411
I990
sVadjunct_rc,conjunct,neg,pd,root,
p1412
I1821
sVadjunct,app,conjunct,obj,pd,root,
p1413
I612
sVadjunct_qt,comp_fin,mwe,refl,root,
p1414
I103
sVadjunct,app,comp,comp_fin,conjunct,obj,punct,root,
p1415
I1481
sVcomp,obj_th,refl,root,
p1416
I1687
sVadjunct,app,punct,root,
p1417
I359
sVadjunct,app,comp,pd,root,
p1418
I452
sVadjunct,adjunct_qt,comp,conjunct,obj_th,root,
p1419
I846
sVadjunct,aux,comp,comp_fin,conjunct,neg,root,
p1420
I1297
sVconjunct,pd,refl,root,
p1421
I599
sVcomp_inf,conjunct,punct,root,
p1422
I141
sVadjunct,app,conjunct,root,subj,
p1423
I458
sVcomp,comp_fin,conjunct,obj,refl,root,subj,
p1424
I2310
sVpd,root,subj,
p1425
I687
sVadjunct,comp_fin,obj,root,subj,
p1426
I1072
sVadjunct,adjunct_qt,adjunct_rc,comp,root,subj,
p1427
I1050
sVadjunct_rc,conjunct,mwe,punct,root,
p1428
I1341
sVadjunct,comp,conjunct,pd,punct,root,
p1429
I1963
sVcomp,comp_fin,conjunct,ne,obj,root,
p1430
I2329
sVadjunct,comp,conjunct,root,subj,
p1431
I88
sVadjunct_rc,comp,comp_inf,conjunct,root,subj,
p1432
I144
sVadjunct,comp_fin,conjunct,punct,root,
p1433
I291
sVabbrev_punct,adjunct,conjunct,pd,root,
p1434
I354
sVapp,comp,comp_ag,punct,root,
p1435
I1646
sVadjunct,comp,comp_ag,mwe,root,
p1436
I734
sVadjunct_rc,app,cond,conjunct,obj,root,
p1437
I789
sVadjunct,comp_fin,conjunct,obj_th,punct,root,
p1438
I1184
sVcomp_fin,conjunct,root,subj,
p1439
I124
sVadjunct,app,comp,conjunct,item,obj,punct,root,subj,
p1440
I1433
sVadjunct,comp_fin,pd,root,
p1441
I266
sVcomp_fin,pd,refl,root,
p1442
I1273
sVadjunct_qt,conjunct,pd,punct,root,
p1443
I1970
sVadjunct_compar,aux,comp_fin,comp_inf,conjunct,neg,root,
p1444
I2207
sVadjunct,comp,comp_fin,conjunct,refl,root,
p1445
I429
sVadjunct,comp,comp_ag,conjunct,obj,root,
p1446
I1064
sVabbrev_punct,ne,pd,root,
p1447
I2123
sVadjunct_rc,comp,comp_fin,conjunct,neg,root,subj,
p1448
I2202
sVadjunct_compar,comp,comp_inf,conjunct,refl,root,
p1449
I946
sVadjunct,comp,comp_inf,punct,root,
p1450
I769
sVadjunct,app,punct,root,subj,
p1451
I460
sVadjunct,comp,comp_inf,root,subj,
p1452
I634
sVcomp,comp_ag,comp_inf,conjunct,root,
p1453
I1754
sVadjunct_rc,comp,conjunct,pd,root,
p1454
I866
sVadjunct,comp,comp_fin,comp_inf,conjunct,obj,root,subj,
p1455
I201
sVobj_th,root,subj,
p1456
I936
sVadjunct,aux,comp_fin,comp_inf,conjunct,root,
p1457
I1319
sVadjunct_qt,aglt,root,
p1458
I2001
sVadjunct,comp,pd,root,
p1459
I498
sVcomp,
p1460
I837
sVadjunct_qt,comp,mwe,obj,root,
p1461
I1958
sVadjunct,adjunct_compar,comp_fin,comp_inf,conjunct,root,
p1462
I1572
sVadjunct,app,comp,obj,root,subj,
p1463
I412
sVapp,conjunct,ne,obj,root,
p1464
I1932
sVadjunct,comp,comp_ag,comp_fin,conjunct,obj,root,
p1465
I2331
sVadjunct,comp,comp_inf,pd,refl,root,
p1466
I2191
sVabbrev_punct,adjunct_qt,conjunct,ne,root,
p1467
I534
sVcomp_inf,mwe,root,
p1468
I511
sVabbrev_punct,comp,mwe,obj,root,
p1469
I1960
sVabbrev_punct,adjunct,conjunct,obj,root,subj,
p1470
I1410
sVadjunct,comp_fin,comp_inf,obj,punct,root,subj,
p1471
I2257
sVcomp_fin,mwe,obj,root,
p1472
I2042
sVadjunct_compar,comp_fin,root,
p1473
I1595
sVadjunct_qt,aux,conjunct,obj,root,
p1474
I323
sVconjunct,ne,obj,root,
p1475
I1031
sVadjunct,comp_inf,mwe,obj,root,
p1476
I1761
sVabbrev_punct,adjunct,conjunct,ne,obj,obj_th,root,
p1477
I1846
sVadjunct,adjunct_rc,ne,obj,root,
p1478
I470
sVconjunct,obj_th,root,subj,
p1479
I1263
sVadjunct_qt,comp,comp_ag,root,
p1480
I2030
sVadjunct,comp_fin,pre_coord,root,subj,
p1481
I1195
sVadjunct,comp,comp_fin,ne,root,subj,
p1482
I1404
sVadjunct_compar,comp,comp_fin,punct,root,
p1483
I179
sVadjunct,comp,comp_fin,comp_inf,root,
p1484
I110
sVcomp,conjunct,pd,punct,root,
p1485
I1289
sVadjunct,app,comp,root,
p1486
I280
sVcomp_fin,root,subj,
p1487
I264
sVabbrev_punct,adjunct_qt,root,
p1488
I1653
sVadjunct,adjunct_qt,conjunct,pd,root,
p1489
I1247
sVadjunct,adjunct_rc,conjunct,neg,root,
p1490
I1950
sVadjunct_qt,comp_fin,comp_inf,punct,root,
p1491
I1995
sVadjunct,adjunct_rc,comp_fin,comp_inf,conjunct,pd,root,
p1492
I1228
sVadjunct,comp_fin,comp_inf,punct,root,
p1493
I108
sVcomp_inf,obj,refl,root,
p1494
I1522
sVconjunct,root,
p1495
I12
sVcomp,comp_fin,conjunct,mwe,root,subj,
p1496
I1006
sVcomp_inf,conjunct,root,
p1497
I136
sVabbrev_punct,adjunct,comp,comp_fin,conjunct,obj,root,subj,
p1498
I2178
sVadjunct,comp_fin,comp_inf,obj,refl,root,
p1499
I993
sVadjunct_qt,root,subj,
p1500
I218
sVadjunct_qt,comp,comp_fin,conjunct,root,subj,
p1501
I2096
sVadjunct,comp,comp_fin,conjunct,pd,refl,root,
p1502
I1293
sVadjunct,app,comp,comp_inf,punct,root,
p1503
I27
sVadjunct_rc,comp,conjunct,obj,root,
p1504
I1485
sVadjunct,adjunct_qt,adjunct_rc,comp_fin,conjunct,obj,pd,root,
p1505
I623
sVaux,conjunct,obj,root,
p1506
I2293
sVadjunct,adjunct_rc,comp,mwe,ne,obj,punct,root,subj,
p1507
I1446
sVadjunct,comp_fin,comp_inf,conjunct,mwe,obj,obj_th,root,
p1508
I985
sVadjunct,adjunct_qt,refl,root,
p1509
I914
sVadjunct,comp,comp_inf,conjunct,obj,pd,root,subj,
p1510
I78
sVadjunct_rc,comp,comp_fin,conjunct,root,subj,
p1511
I1796
sVadjunct,adjunct_compar,comp,comp_ag,root,
p1512
I1854
sVadjunct_rc,conjunct,pd,punct,root,
p1513
I645
sVadjunct_qt,comp,comp_fin,root,subj,
p1514
I1531
sVadjunct,adjunct_qt,comp,comp_inf,conjunct,obj,root,
p1515
I1965
sVadjunct,comp,comp_fin,comp_inf,mwe,root,
p1516
I738
sVadjunct,app,comp_fin,pd,root,subj,
p1517
I1811
sVadjunct,app,comp,comp_fin,obj_th,pd,root,
p1518
I1921
sVapp,comp,conjunct,root,subj,
p1519
I2308
sVadjunct,ne,obj_th,root,
p1520
I730
sVadjunct,comp,obj,pre_coord,root,
p1521
I1435
sVadjunct_qt,comp,mwe,obj,punct,root,
p1522
I1956
sVadjunct_qt,comp,conjunct,root,subj,
p1523
I864
sVadjunct_compar,comp,comp_inf,conjunct,pd,root,
p1524
I1414
sVadjunct,comp,comp_ag,mwe,ne,root,
p1525
I2335
sVadjunct,comp,conjunct,ne,refl,root,subj,
p1526
I587
sVadjunct,aglt,comp_fin,cond,root,
p1527
I1596
sVadjunct,comp,comp_ag,pd,root,
p1528
I1462
sVcomp,comp_fin,conjunct,mwe,pd,root,
p1529
I2136
sVadjunct,conjunct,ne,pd,root,subj,
p1530
I1853
sVadjunct_rc,pd,refl,root,
p1531
I1820
sVadjunct_rc,comp,root,
p1532
I1543
sVadjunct_qt,adjunct_rc,root,
p1533
I640
sVadjunct,comp,comp_ag,pd,root,subj,
p1534
I1017
sVadjunct,comp,ne,root,subj,
p1535
I605
sVcomp_fin,comp_inf,conjunct,mwe,obj,root,subj,
p1536
I1356
sVadjunct,adjunct_compar,comp,conjunct,mwe,root,subj,
p1537
I1429
sVadjunct,conjunct,mwe,obj,pd,pre_coord,root,
p1538
I1984
sVadjunct_qt,adjunct_rc,punct,root,subj,
p1539
I1370
sVabbrev_punct,comp,comp_inf,root,
p1540
I2273
sVobj_th,punct,root,
p1541
I299
sVadjunct,app,comp,conjunct,pd,root,
p1542
I681
sVcomp,ne,obj,root,
p1543
I1352
sVadjunct,conjunct,neg,root,subj,
p1544
I1002
sVadjunct,adjunct_rc,comp_inf,conjunct,obj,pd,root,
p1545
I1980
sVadjunct,adjunct_rc,comp,obj,pd,root,
p1546
I2325
sVadjunct,adjunct_rc,comp,comp_inf,obj,root,subj,
p1547
I1929
sVadjunct_rc,app,obj,punct,root,
p1548
I1762
sVabbrev_punct,adjunct,obj,root,subj,
p1549
I758
sVaux,punct,root,
p1550
I1065
sVadjunct,comp_fin,comp_inf,mwe,root,subj,
p1551
I1759
sVadjunct,comp,root,
p1552
I5
sVadjunct_qt,comp_inf,conjunct,root,
p1553
I1489
sVmwe,obj_th,root,
p1554
I1809
sVadjunct,app,conjunct,punct,root,
p1555
I376
sVadjunct,comp_fin,conjunct,mwe,obj,root,
p1556
I2040
sVadjunct,adjunct_qt,aux,comp,conjunct,obj,root,subj,
p1557
I2032
sVabbrev_punct,adjunct,comp,comp_fin,conjunct,mwe,root,subj,
p1558
I171
sVadjunct,comp_fin,punct,root,
p1559
I391
sVadjunct_compar,adjunct_qt,root,subj,
p1560
I1839
sVadjunct_qt,comp_fin,mwe,root,
p1561
I81
sVabbrev_punct,adjunct,comp,comp_ag,root,subj,
p1562
I2102
sVadjunct_rc,comp,obj_th,root,
p1563
I2010
sVadjunct,comp_fin,comp_inf,conjunct,obj,pd,root,
p1564
I157
sVadjunct,aux,root,
p1565
I286
sVadjunct_compar,adjunct_qt,comp,comp_fin,comp_inf,obj,pd,punct,root,subj,
p1566
I1503
sVadjunct_compar,comp,comp_fin,root,
p1567
I180
sVadjunct,aux,comp,comp_fin,conjunct,obj,root,
p1568
I485
sVadjunct,conjunct,obj,pd,root,
p1569
I899
sVabbrev_punct,mwe,obj,root,
p1570
I1056
sVadjunct,app,ne,obj,root,
p1571
I2034
sVadjunct_rc,punct,root,
p1572
I817
sVadjunct_rc,app,comp,root,subj,
p1573
I1443
sVabbrev_punct,adjunct,adjunct_qt,comp,conjunct,root,
p1574
I848
sVpd,punct,root,
p1575
I904
sVcomp,mwe,obj,pd,root,
p1576
I1954
sVadjunct_qt,comp,comp_inf,root,
p1577
I1189
sVadjunct,comp_ag,ne,root,
p1578
I1062
sVadjunct,app,conjunct,obj,punct,root,
p1579
I1127
sVadjunct,conjunct,punct,root,subj,
p1580
I312
sVadjunct,aux,comp_fin,conjunct,root,subj,
p1581
I1795
sVadjunct,adjunct_compar,comp,conjunct,obj,root,
p1582
I2027
sVadjunct_qt,aux,comp_inf,refl,root,
p1583
I823
sVadjunct,comp,comp_fin,obj_th,punct,root,subj,
p1584
I781
sVadjunct,comp,conjunct,mwe,pd,punct,root,
p1585
I902
sVadjunct,adjunct_rc,conjunct,obj,pd,root,
p1586
I648
sVabbrev_punct,adjunct,app,comp,ne,root,
p1587
I1084
sVadjunct,adjunct_compar,obj,pd,root,
p1588
I2254
sVadjunct,adjunct_compar,comp,comp_fin,conjunct,mwe,ne,obj,root,subj,
p1589
I2128
sVadjunct,adjunct_rc,comp,comp_fin,comp_inf,obj,root,subj,
p1590
I1141
sVcomp,comp_fin,comp_inf,obj,refl,root,
p1591
I896
sVadjunct,adjunct_compar,comp_fin,comp_inf,conjunct,obj_th,root,
p1592
I2209
sVapp,comp,comp_fin,ne,root,subj,
p1593
I1771
sVcomp_ag,root,
p1594
I301
sVadjunct,adjunct_qt,conjunct,punct,root,subj,
p1595
I502
sVadjunct,adjunct_qt,comp,comp_ag,comp_fin,mwe,root,
p1596
I206
sVadjunct,comp_fin,conjunct,obj,refl,root,
p1597
I1295
sVadjunct,adjunct_qt,comp,conjunct,ne,root,
p1598
I501
sVadjunct,adjunct_rc,comp,comp_fin,comp_inf,conjunct,punct,root,subj,
p1599
I2297
sVcomp,comp_fin,root,subj,
p1600
I183
sVadjunct,adjunct_compar,comp,conjunct,obj_th,root,
p1601
I2074
sVcomp,obj,punct,root,
p1602
I49
sVadjunct,app,comp,comp_fin,obj_th,pd,punct,root,
p1603
I1920
sVadjunct,adjunct_rc,comp_fin,obj,root,
p1604
I2067
sVadjunct,comp_ag,conjunct,punct,root,
p1605
I1977
sVadjunct,aux,comp,comp_fin,obj_th,punct,root,subj,
p1606
I1212
sVadjunct,adjunct_rc,comp_fin,conjunct,punct,root,subj,
p1607
I2088
sVadjunct,comp_fin,conjunct,neg,obj,root,subj,
p1608
I665
sVadjunct,comp,comp_fin,mwe,pd,root,
p1609
I1919
sVadjunct,adjunct_rc,conjunct,obj,pd,punct,root,
p1610
I1982
sVadjunct,obj,pd,root,
p1611
I407
sVaux,comp_fin,punct,root,subj,
p1612
I1157
sVadjunct,adjunct_compar,comp,conjunct,root,
p1613
I528
sVadjunct_rc,comp_fin,conjunct,root,subj,
p1614
I1111
sVcomp_fin,cond,conjunct,root,
p1615
I1895
sVcomp_ag,obj,root,
p1616
I1720
sVcomp,comp_fin,conjunct,obj_th,refl,root,
p1617
I1224
sVadjunct_rc,comp,comp_inf,conjunct,root,
p1618
I145
sVcomp_inf,conjunct,obj,pd,root,
p1619
I1802
sVabbrev_punct,adjunct_qt,ne,root,
p1620
I1651
sVadjunct_rc,comp,comp_fin,conjunct,punct,root,subj,
p1621
I1799
sVadjunct_rc,comp,comp_fin,neg,root,subj,
p1622
I1674
sVadjunct,comp_inf,ne,pd,root,
p1623
I797
sVadjunct,comp_fin,comp_inf,conjunct,obj,punct,root,subj,
p1624
I508
sVabbrev_punct,adjunct,comp,comp_fin,conjunct,ne,obj_th,root,
p1625
I1665
sVcomp,conjunct,mwe,ne,obj,root,
p1626
I1939
sVadjunct,comp,comp_fin,mwe,obj,punct,root,
p1627
I1751
sVadjunct,aux,conjunct,punct,root,
p1628
I1976
sVadjunct,comp,comp_fin,mwe,obj,root,subj,
p1629
I1571
sVadjunct,adjunct_rc,comp,comp_fin,root,subj,
p1630
I751
sVadjunct,aux,comp,conjunct,root,
p1631
I660
sVadjunct,adjunct_qt,comp,conjunct,mwe,root,subj,
p1632
I1638
sVadjunct,adjunct_qt,aux,comp,comp_fin,mwe,root,
p1633
I210
sVadjunct,comp,comp_inf,conjunct,mwe,obj,root,
p1634
I669
sVadjunct,adjunct_qt,comp,comp_inf,root,
p1635
I1188
sVadjunct,adjunct_rc,refl,root,
p1636
I1736
sVadjunct_rc,app,conjunct,obj,root,
p1637
I788
sVadjunct,comp,conjunct,pd,
p1638
I1714
sVadjunct,comp,comp_fin,obj,obj_th,root,
p1639
I334
sVadjunct,comp,comp_fin,comp_inf,conjunct,punct,root,
p1640
I1197
sVadjunct,adjunct_rc,comp,pd,root,subj,
p1641
I1383
sVconjunct,mwe,punct,root,
p1642
I1328
sVadjunct,app,comp,comp_ag,root,
p1643
I1305
sVconjunct,ne,pd,root,
p1644
I355
sVcomp,mwe,neg,root,
p1645
I477
sVadjunct_compar,comp_inf,conjunct,pd,root,
p1646
I1417
sVadjunct,comp,obj,punct,
p1647
I1719
sVadjunct,app,root,subj,
p1648
I0
sVcomp,obj_th,punct,root,
p1649
I777
sVapp,comp,conjunct,obj,root,
p1650
I784
sVadjunct,comp_fin,conjunct,pd,punct,root,
p1651
I1926
sVadjunct,adjunct_qt,comp,comp_fin,conjunct,obj,punct,root,subj,
p1652
I2091
sVadjunct,comp,ne,pd,root,
p1653
I731
sVadjunct,comp,mwe,obj,obj_th,root,
p1654
I1697
sVaux,comp,conjunct,mwe,obj_th,root,
p1655
I2241
sVadjunct_rc,comp,cond,root,subj,
p1656
I1009
sVadjunct_qt,comp_fin,root,
p1657
I616
sVadjunct,aux,comp,punct,root,
p1658
I1563
sVadjunct,comp,comp_fin,mwe,pre_coord,root,
p1659
I2302
sVadjunct,comp_fin,comp_inf,mwe,obj,root,subj,
p1660
I2258
sVadjunct,comp_fin,comp_inf,conjunct,punct,root,
p1661
I1546
sVadjunct,comp,comp_ag,ne,root,subj,
p1662
I1230
sVadjunct,comp,comp_fin,conjunct,obj_th,root,
p1663
I386
sVadjunct,adjunct_qt,aglt,comp,comp_fin,mwe,root,
p1664
I101
sVconjunct,punct,refl,root,
p1665
I1804
sVcomp,comp_fin,neg,root,
p1666
I36
sVadjunct_rc,comp,punct,root,
p1667
I871
sVadjunct_rc,conjunct,mwe,root,subj,
p1668
I1342
sVadjunct_rc,comp,pd,root,
p1669
I867
sVabbrev_punct,adjunct,comp,conjunct,mwe,root,subj,
p1670
I1095
sVadjunct,punct,root,subj,
p1671
I282
sVne,pd,root,
p1672
I1472
sVadjunct,comp,conjunct,ne,root,subj,
p1673
I361
sVadjunct,adjunct_qt,comp,root,subj,
p1674
I760
sVadjunct,comp_ag,conjunct,root,
p1675
I373
sVadjunct,app,ne,pd,root,
p1676
I706
sVadjunct,ne,obj,obj_th,root,
p1677
I1780
sVadjunct,adjunct_qt,root,
p1678
I219
sVadjunct,adjunct_rc,comp,comp_fin,obj,root,subj,
p1679
I1140
sVcomp,comp_fin,conjunct,obj,obj_th,root,
p1680
I1852
sVcomp,comp_fin,obj,punct,root,
p1681
I675
sVapp,pd,root,
p1682
I450
sVcomp_fin,refl,root,subj,
p1683
I2019
sVadjunct,comp,comp_fin,conjunct,mwe,root,
p1684
I424
sVadjunct,comp_fin,conjunct,pd,root,subj,
p1685
I1985
sVadjunct,comp,comp_fin,comp_inf,conjunct,obj,pd,root,subj,
p1686
I343
sVadjunct,adjunct_compar,comp_fin,obj_th,root,
p1687
I1861
sVadjunct_rc,comp,refl,root,
p1688
I1625
sVadjunct,conjunct,refl,root,subj,
p1689
I561
sVadjunct,adjunct_qt,comp_fin,obj_th,punct,root,
p1690
I2219
sVadjunct,adjunct_compar,comp,comp_inf,conjunct,root,subj,
p1691
I961
sVadjunct,comp_fin,conjunct,refl,root,
p1692
I292
sVadjunct,adjunct_qt,conjunct,obj_th,punct,root,
p1693
I1843
sVcomp,conjunct,mwe,punct,root,subj,
p1694
I1966
sVcomp_fin,conjunct,ne,root,subj,
p1695
I2218
sVadjunct_qt,pre_coord,root,
p1696
I606
sVadjunct_compar,comp,pd,root,
p1697
I1530
sVadjunct,comp,comp_fin,conjunct,obj,obj_th,root,subj,
p1698
I1148
sVadjunct,comp,comp_fin,cond,conjunct,root,
p1699
I2143
sVadjunct_compar,aux,comp_fin,comp_inf,conjunct,root,
p1700
I2208
sVadjunct,comp,comp_fin,subj,
p1701
I1723
sVadjunct,comp,mwe,ne,root,
p1702
I658
sVadjunct,adjunct_compar,comp,mwe,root,
p1703
I1855
sVadjunct,adjunct_rc,app,obj,punct,root,
p1704
I471
sVadjunct_rc,comp,comp_fin,comp_inf,conjunct,pd,punct,refl,root,subj,
p1705
I2298
sVconjunct,neg,obj,root,
p1706
I1597
sVcomp,comp_fin,mwe,root,
p1707
I1081
sVadjunct,mwe,obj,root,
p1708
I933
sVcomp,comp_ag,comp_fin,conjunct,root,
p1709
I1405
sVcomp_fin,comp_inf,root,subj,
p1710
I1355
sVadjunct,aux,comp,comp_fin,comp_inf,
p1711
I1725
sVadjunct,comp,comp_fin,obj_th,punct,root,
p1712
I559
sVadjunct,app,comp,comp_fin,conjunct,obj_th,root,subj,
p1713
I1038
sVadjunct,app,conjunct,pd,root,
p1714
I1240
sVadjunct,comp,conjunct,mwe,obj_th,root,
p1715
I1318
sVadjunct,comp,comp_ag,comp_fin,pd,root,
p1716
I1168
sVadjunct,adjunct_rc,comp,conjunct,obj_th,pd,root,
p1717
I1923
sVadjunct,adjunct_rc,obj_th,root,
p1718
I478
sVcomp_fin,mwe,root,subj,
p1719
I2043
sVabbrev_punct,adjunct_qt,conjunct,mwe,obj_th,root,
p1720
I856
sVapp,ne,obj_th,root,
p1721
I1232
sVadjunct,adjunct_rc,comp,comp_inf,root,
p1722
I1283
sVadjunct,comp_fin,obj,obj_th,root,
p1723
I1682
sVabbrev_punct,adjunct,obj_th,root,
p1724
I972
sVadjunct,aux,comp,conjunct,mwe,obj,obj_th,root,
p1725
I2240
sVadjunct,aux,comp_fin,comp_inf,root,
p1726
I571
sVadjunct,comp_fin,comp_inf,conjunct,obj,obj_th,punct,root,
p1727
I994
sVadjunct,comp,comp_ag,conjunct,root,subj,
p1728
I720
sVadjunct,comp_fin,refl,root,
p1729
I609
sVadjunct,adjunct_qt,comp,mwe,root,
p1730
I1741
sVadjunct,comp,comp_ag,mwe,ne,obj,root,subj,
p1731
I928
sVadjunct,adjunct_qt,app,conjunct,mwe,root,
p1732
I1784
sVadjunct_qt,comp_inf,obj,root,
p1733
I1374
sVapp,pd,punct,root,
p1734
I1528
sVadjunct,comp,comp_fin,comp_inf,conjunct,obj,root,
p1735
I155
sVadjunct_rc,aux,comp,conjunct,obj,root,
p1736
I1484
sVadjunct,adjunct_rc,obj,pd,root,
p1737
I2120
sVcomp,comp_fin,obj,pre_coord,root,
p1738
I1525
sVadjunct,adjunct_qt,adjunct_rc,comp_fin,conjunct,mwe,obj,pd,root,
p1739
I624
sVapp,comp,comp_inf,conjunct,obj,root,
p1740
I1450
sVadjunct_qt,adjunct_rc,comp,comp_fin,root,
p1741
I1252
sVadjunct,adjunct_rc,comp,comp_inf,obj,root,
p1742
I578
sVadjunct,adjunct_rc,comp,comp_inf,conjunct,neg,root,
p1743
I316
sVcomp_fin,comp_inf,punct,root,
p1744
I1395
sVadjunct,adjunct_qt,punct,root,subj,
p1745
I1745
sVadjunct,adjunct_rc,comp,comp_fin,conjunct,obj,root,subj,
p1746
I883
sVadjunct,aux,comp,comp_inf,conjunct,root,subj,
p1747
I745
sVabbrev_punct,adjunct,adjunct_qt,conjunct,root,subj,
p1748
I844
sVadjunct,comp,conjunct,ne,obj,punct,root,subj,
p1749
I1422
sVadjunct,comp,comp_inf,ne,root,
p1750
I1629
sVcomp,comp_inf,pd,root,
p1751
I1129
sVcomp,comp_inf,root,
p1752
I33
sVne,root,
p1753
I15
sVapp,root,
p1754
I212
sVadjunct,adjunct_rc,comp,conjunct,obj,root,subj,
p1755
I1099
sVadjunct_rc,pd,root,
p1756
I297
sVadjunct,adjunct_rc,conjunct,ne,pd,root,subj,
p1757
I1823
sVadjunct,adjunct_rc,conjunct,obj,root,
p1758
I406
sVadjunct,conjunct,mwe,obj,root,subj,
p1759
I930
sVadjunct,comp,comp_inf,conjunct,obj,root,
p1760
I200
sVadjunct_rc,comp_fin,obj,pd,root,subj,
p1761
I1281
sVadjunct_rc,conjunct,ne,pd,root,subj,
p1762
I1824
sVadjunct,adjunct_compar,comp_fin,root,
p1763
I2003
sVadjunct,adjunct_rc,conjunct,obj,subj,
p1764
I1908
sVadjunct,comp,comp_fin,comp_inf,neg,root,
p1765
I2349
sVcomp,comp_ag,conjunct,ne,obj,root,
p1766
I1941
sVcomp,comp_ag,conjunct,ne,root,
p1767
I1545
sVabbrev_punct,adjunct,adjunct_qt,mwe,obj,root,
p1768
I1000
sVadjunct,adjunct_rc,comp,conjunct,ne,root,
p1769
I2056
sVadjunct,adjunct_qt,mwe,root,
p1770
I975
sVadjunct,aux,comp,pd,root,
p1771
I1993
sVcomp,comp_fin,comp_inf,conjunct,refl,root,
p1772
I916
sVadjunct_rc,comp_fin,conjunct,punct,root,subj,
p1773
I1456
sVadjunct,app,comp,comp_ag,root,subj,
p1774
I1513
sVcomp_fin,refl,root,
p1775
I395
sVadjunct,adjunct_rc,pd,refl,root,
p1776
I2164
sVadjunct,comp,comp_fin,ne,obj_th,pd,root,
p1777
I1217
sVadjunct,adjunct_rc,comp,comp_fin,conjunct,root,
p1778
I1109
sVadjunct_rc,comp,comp_inf,conjunct,punct,root,
p1779
I143
sVcomp,comp_fin,conjunct,pd,root,subj,
p1780
I1123
sVadjunct,aux,conjunct,root,subj,
p1781
I1236
sVadjunct,adjunct_rc,conjunct,obj_th,root,subj,
p1782
I1547
sVadjunct,app,comp,conjunct,ne,obj,root,
p1783
I539
sVadjunct,adjunct_rc,comp,obj_th,root,subj,
p1784
I1180
sVadjunct,adjunct_qt,comp,comp_fin,refl,root,
p1785
I2197
sVcomp,comp_fin,conjunct,root,
p1786
I418
sVadjunct,comp,comp_fin,comp_inf,conjunct,ne,obj,root,
p1787
I468
sVadjunct,comp,comp_fin,pre_coord,root,
p1788
I2301
sVadjunct_rc,comp_inf,root,subj,
p1789
I1591
sVadjunct,conjunct,obj,refl,root,subj,
p1790
I1815
sVadjunct,app,conjunct,ne,root,subj,
p1791
I459
sVcomp_fin,comp_inf,mwe,obj,root,
p1792
I1259
sVcomp_inf,punct,root,subj,
p1793
I1616
sVadjunct,comp_fin,mwe,pre_coord,root,subj,
p1794
I1196
sVadjunct,adjunct_qt,comp,comp_fin,conjunct,mwe,root,
p1795
I2172
sVcomp_fin,conjunct,obj_th,root,
p1796
I1869
sVadjunct,comp,comp_fin,comp_inf,conjunct,neg,root,
p1797
I891
sVadjunct,ne,obj,root,subj,
p1798
I1887
sVapp,mwe,punct,root,
p1799
I1783
sVabbrev_punct,adjunct,conjunct,ne,obj,root,
p1800
I1952
sVadjunct_qt,conjunct,obj_th,root,
p1801
I244
sVcomp,comp_fin,neg,pd,root,
p1802
I1177
sVadjunct,comp,comp_fin,conjunct,obj,root,subj,
p1803
I167
sVadjunct,adjunct_compar,comp,conjunct,obj,root,subj,
p1804
I1408
sVadjunct,app,refl,root,
p1805
I798
sVadjunct_qt,adjunct_rc,comp_fin,pd,root,
p1806
I628
sVadjunct,comp,conjunct,obj,pd,
p1807
I1715
sVadjunct,adjunct_qt,comp,conjunct,obj,punct,root,subj,
p1808
I327
sVadjunct,adjunct_qt,adjunct_rc,obj,root,
p1809
I636
sVadjunct,comp,conjunct,pd,refl,root,
p1810
I1585
sVadjunct,comp_fin,conjunct,obj_th,root,
p1811
I245
sVabbrev_punct,root,
p1812
I1752
sVabbrev_punct,adjunct,adjunct_qt,app,comp,root,
p1813
I1737
sVadjunct,adjunct_compar,adjunct_qt,conjunct,root,
p1814
I1520
sVadjunct,comp,comp_inf,mwe,obj,root,
p1815
I481
sVadjunct_rc,ne,root,subj,
p1816
I1440
sVadjunct,comp,comp_fin,cond,conjunct,obj,root,subj,
p1817
I2291
sVadjunct_qt,conjunct,obj,obj_th,punct,root,
p1818
I242
sVadjunct,comp,conjunct,punct,root,subj,
p1819
I87
sVadjunct,conjunct,root,subj,
p1820
I263
sVadjunct,app,comp,comp_inf,ne,root,
p1821
I29
sVadjunct,root,subj,
p1822
I4
sVadjunct,comp,conjunct,obj,punct,root,subj,
p1823
I83
sVadjunct,aux,comp,comp_ag,conjunct,mwe,obj,obj_th,root,
p1824
I2238
sVadjunct,app,comp,mwe,punct,root,
p1825
I672
sVadjunct,comp,comp_ag,mwe,obj,root,subj,
p1826
I651
sVadjunct,adjunct_rc,ne,root,subj,
p1827
I2166
sVadjunct,adjunct_rc,aux,comp_fin,comp_inf,conjunct,obj,root,subj,
p1828
I111
sVadjunct,comp,ne,punct,root,
p1829
I2125
sVadjunct,comp_fin,comp_inf,mwe,root,
p1830
I736
sVconjunct,pd,root,
p1831
I308
sVadjunct,adjunct_qt,pd,root,subj,
p1832
I271
sVapp,comp_fin,ne,obj,root,
p1833
I2134
sVadjunct,comp,comp_ag,comp_inf,conjunct,root,
p1834
I1755
sVadjunct,conjunct,obj_th,refl,root,
p1835
I1272
sVadjunct,comp_fin,comp_inf,conjunct,obj,root,subj,
p1836
I154
sVadjunct,comp,comp_inf,conjunct,obj,pd,root,
p1837
I1517
sVconjunct,mwe,obj_th,root,
p1838
I968
sVcomp,comp_inf,conjunct,obj,root,
p1839
I329
sVadjunct,comp_inf,punct,root,
p1840
I309
sVadjunct,comp_inf,neg,obj,root,
p1841
I185
sVadjunct,neg,root,subj,
p1842
I860
sVadjunct,comp,comp_inf,obj,punct,root,
p1843
I767
sVabbrev_punct,adjunct,adjunct_compar,comp,conjunct,root,
p1844
I529
sVadjunct,comp,comp_fin,conjunct,mwe,punct,root,
p1845
I552
sVcomp,comp_fin,mwe,obj,pre_coord,root,
p1846
I1526
sVadjunct_rc,conjunct,pd,refl,root,
p1847
I1817
sVcomp_fin,comp_inf,conjunct,obj_th,root,subj,
p1848
I2113
sVadjunct_rc,pd,root,subj,
p1849
I1819
sVadjunct,adjunct_compar,comp_fin,comp_inf,conjunct,refl,root,
p1850
I1578
sVadjunct_qt,conjunct,ne,root,subj,
p1851
I843
sVadjunct,adjunct_rc,mwe,root,
p1852
I818
sVadjunct,adjunct_rc,comp_fin,conjunct,obj,punct,root,
p1853
I382
sVadjunct,comp_inf,conjunct,refl,root,
p1854
I1333
sVabbrev_punct,adjunct,comp,mwe,obj,root,subj,
p1855
I2165
sVconjunct,pd,punct,root,
p1856
I598
sVapp,comp_fin,conjunct,ne,root,subj,
p1857
I878
sVcomp,ne,obj_th,root,
p1858
I971
sVcomp,conjunct,punct,root,
p1859
I419
sVcomp_ag,root,subj,
p1860
I1689
sVadjunct,comp,comp_fin,comp_inf,obj,pd,root,
p1861
I2099
sVadjunct,adjunct_rc,comp,obj,punct,root,
p1862
I1848
sVadjunct_qt,comp_fin,comp_inf,root,
p1863
I1999
sVcomp,comp_fin,conjunct,refl,root,subj,
p1864
I1812
sVadjunct,comp,comp_fin,mwe,root,subj,
p1865
I679
sVadjunct,comp,conjunct,neg,pd,root,
p1866
I1586
sVadjunct,comp,comp_fin,conjunct,punct,root,subj,
p1867
I604
sVadjunct,app,comp,comp_fin,obj,obj_th,root,subj,
p1868
I2177
sVconjunct,mwe,root,subj,
p1869
I693
sVadjunct,comp,comp_inf,mwe,refl,root,
p1870
I2290
sVadjunct,adjunct_qt,comp,comp_fin,conjunct,punct,root,subj,
p1871
I2095
sVadjunct_qt,app,mwe,root,
p1872
I1787
sVcomp_inf,conjunct,obj,refl,root,
p1873
I1828
sVadjunct,adjunct_compar,comp,comp_fin,comp_inf,conjunct,obj,root,
p1874
I957
sVadjunct,comp_fin,comp_inf,conjunct,obj,obj_th,root,
p1875
I988
sVadjunct,conjunct,punct,
p1876
I1914
sVadjunct,comp,punct,root,
p1877
I303
sVadjunct_compar,adjunct_rc,comp,comp_fin,conjunct,pd,root,subj,
p1878
I1457
sVadjunct_qt,adjunct_rc,punct,root,
p1879
I639
sVadjunct,adjunct_qt,comp,comp_fin,obj,root,subj,
p1880
I1032
sVadjunct,conjunct,punct,root,
p1881
I14
sVcomp_fin,conjunct,mwe,punct,root,
p1882
I422
sVadjunct,comp_fin,conjunct,neg,obj_th,root,
p1883
I387
sVadjunct,comp,obj,refl,root,
p1884
I1219
sVadjunct,comp,comp_ag,obj,root,
p1885
I593
sVabbrev_punct,adjunct,app,comp,pd,root,
p1886
I684
sVadjunct,comp_inf,conjunct,neg,root,
p1887
I917
sVadjunct,app,conjunct,obj,root,
p1888
I663
sVadjunct,adjunct_rc,comp_inf,obj,obj_th,root,
p1889
I1476
sVadjunct,adjunct_rc,ne,punct,root,subj,
p1890
I2319
sVconjunct,punct,root,subj,
p1891
I602
sVadjunct,adjunct_qt,app,comp,comp_fin,obj,root,subj,
p1892
I1033
sVcomp,comp_inf,obj,root,
p1893
I349
sVadjunct,comp,comp_fin,comp_inf,pd,punct,root,
p1894
I2097
sVadjunct,comp,comp_ag,mwe,root,subj,
p1895
I650
sVadjunct,comp,comp_fin,obj,obj_th,punct,root,
p1896
I558
sVadjunct,comp,comp_fin,comp_inf,obj,punct,root,subj,
p1897
I2110
sVadjunct,aux,comp,comp_fin,obj_th,root,
p1898
I1216
sVadjunct,comp,conjunct,mwe,obj,obj_th,root,
p1899
I2235
sVadjunct,adjunct_compar,mwe,root,
p1900
I1025
sVadjunct,adjunct_qt,conjunct,obj_th,root,subj,
p1901
I1844
sVcomp,comp_fin,pd,root,
p1902
I177
sVadjunct,comp,comp_fin,comp_inf,obj,obj_th,root,
p1903
I1612
sVadjunct_qt,obj,root,
p1904
I296
sVpunct,root,
p1905
I10
sVadjunct,comp_fin,conjunct,mwe,root,subj,
p1906
I662
sVabbrev_punct,app,mwe,root,
p1907
I1781
sVadjunct_rc,comp_fin,obj,obj_th,pd,root,
p1908
I1277
sVadjunct,comp,conjunct,mwe,pd,root,
p1909
I232
sVabbrev_punct,adjunct,conjunct,mwe,root,
p1910
I1631
sVadjunct,aux,comp_fin,comp_inf,conjunct,obj,obj_th,root,
p1911
I987
sVadjunct,comp,comp_ag,obj_th,root,subj,
p1912
I1662
sVadjunct,comp,comp_fin,conjunct,root,subj,
p1913
I164
sVadjunct_compar,punct,root,
p1914
I1340
sVadjunct,adjunct_rc,comp,root,subj,
p1915
I783
sVapp,conjunct,obj,root,
p1916
I664
sVadjunct,cond,conjunct,root,
p1917
I1118
sVadjunct,adjunct_compar,comp,mwe,obj,root,
p1918
I1856
sVadjunct_qt,comp_inf,obj_th,root,
p1919
I1744
sVadjunct_rc,comp,comp_inf,root,subj,
p1920
I1010
sVconjunct,item,root,subj,
p1921
I2021
sVadjunct_rc,obj,root,subj,
p1922
I804
sVadjunct,adjunct_rc,conjunct,punct,root,subj,
p1923
I2117
sVaglt,aux,root,
p1924
I2004
sVcomp_fin,obj_th,root,subj,
p1925
I796
sVadjunct,adjunct_qt,aux,conjunct,root,
p1926
I1566
sVadjunct_qt,adjunct_rc,obj,punct,root,
p1927
I2049
sVadjunct_compar,adjunct_qt,comp,root,
p1928
I2023
sVcomp,conjunct,ne,obj,root,
p1929
I1303
sVadjunct,comp_inf,conjunct,neg,obj,root,
p1930
I423
sVadjunct,comp_fin,comp_inf,obj,punct,root,
p1931
I162
sVadjunct,adjunct_compar,comp_fin,obj,obj_th,root,
p1932
I1863
sVabbrev_punct,adjunct,adjunct_qt,app,comp,conjunct,root,
p1933
I852
sVadjunct_rc,app,conjunct,obj,punct,root,
p1934
I785
sVadjunct_qt,adjunct_rc,obj,root,
p1935
I635
sVadjunct,comp,conjunct,mwe,obj,root,subj,
p1936
I1231
sVadjunct,adjunct_compar,adjunct_qt,comp_fin,comp_inf,conjunct,root,
p1937
I1574
sVadjunct,aux,comp,obj,root,
p1938
I1420
sVadjunct,adjunct_compar,comp,comp_inf,conjunct,obj_th,root,
p1939
I954
sVcomp_fin,conjunct,obj,refl,root,
p1940
I874
sVadjunct,adjunct_qt,comp_fin,conjunct,root,subj,
p1941
I237
sVadjunct_qt,adjunct_rc,comp_fin,obj,pd,root,
p1942
I622
sVadjunct,comp,comp_ag,conjunct,ne,root,subj,
p1943
I1302
sVadjunct,comp,comp_inf,mwe,ne,obj,root,
p1944
I2065
sVadjunct,adjunct_rc,conjunct,obj,punct,root,subj,
p1945
I1553
sVadjunct,adjunct_rc,cond,conjunct,root,
p1946
I1987
sVadjunct,comp,comp_fin,obj_th,pd,root,
p1947
I1833
sVadjunct_rc,conjunct,mwe,
p1948
I1600
sVadjunct_qt,conjunct,pd,root,
p1949
I116
sVadjunct,comp,comp_ag,conjunct,pd,root,
p1950
I1463
sVadjunct_rc,conjunct,obj,root,
p1951
I1793
sVadjunct,adjunct_rc,comp,conjunct,obj,subj,
p1952
I1907
sVadjunct,adjunct_qt,comp,comp_ag,root,
p1953
I1734
sVadjunct,comp_ag,comp_fin,pd,root,
p1954
I1167
sVadjunct,adjunct_qt,comp,ne,pd,root,
p1955
I1498
sVadjunct,comp,comp_inf,ne,obj,obj_th,root,
p1956
I1336
sVadjunct,adjunct_compar,comp,comp_fin,comp_inf,conjunct,obj,punct,root,
p1957
I958
sVcomp_inf,obj,root,
p1958
I193
sVadjunct,comp,comp_inf,obj_th,punct,root,
p1959
I1903
sVcomp_ag,conjunct,ne,obj,root,
p1960
I1940
sVadjunct,adjunct_rc,comp,comp_inf,conjunct,mwe,root,subj,
p1961
I1014
sVadjunct,comp,item,punct,root,
p1962
I1630
sVadjunct,ne,obj_th,root,subj,
p1963
I2183
sVadjunct,comp_inf,obj,pd,root,
p1964
I1402
sVadjunct,adjunct_qt,conjunct,obj_th,pd,root,
p1965
I2224
sVadjunct,comp_inf,conjunct,mwe,obj_th,root,
p1966
I1701
sVadjunct_qt,aux,neg,root,
p1967
I828
sVcomp,conjunct,refl,root,
p1968
I1438
sVcomp_fin,punct,root,subj,
p1969
I435
sVadjunct,comp_inf,conjunct,root,
p1970
I46
sVcomp_inf,conjunct,obj,root,subj,
p1971
I1458
sVadjunct,comp_fin,conjunct,obj,obj_th,root,
p1972
I1187
sVadjunct_qt,mwe,root,
p1973
I80
sVadjunct_rc,mwe,obj,root,subj,
p1974
I805
sVadjunct,adjunct_qt,comp,conjunct,obj,root,subj,
p1975
I326
sVadjunct_qt,aux,root,
p1976
I829
sVadjunct_compar,comp,comp_fin,comp_inf,conjunct,obj_th,root,
p1977
I1645
sVadjunct_rc,conjunct,obj_th,pd,root,
p1978
I1825
sVadjunct,adjunct_rc,comp,comp_fin,conjunct,pd,root,subj,
p1979
I2204
sVadjunct,comp,comp_fin,comp_inf,obj,refl,root,
p1980
I2300
sVadjunct,adjunct_rc,comp,pd,root,
p1981
I814
sVadjunct,comp,comp_inf,conjunct,obj,pd,punct,root,
p1982
I1536
sVadjunct,adjunct_qt,comp,comp_fin,punct,root,
p1983
I207
sVadjunct,adjunct_qt,app,comp,comp_fin,mwe,root,subj,
p1984
I100
sVadjunct,adjunct_qt,comp_fin,root,subj,
p1985
I233
sVcomp,conjunct,refl,root,subj,
p1986
I2169
sVadjunct,comp,comp_fin,neg,root,subj,
p1987
I1562
sVadjunct,comp,comp_fin,comp_inf,conjunct,obj_th,root,subj,
p1988
I1172
sVabbrev_punct,comp,comp_fin,conjunct,pd,root,subj,
p1989
I1125
sVadjunct,comp,obj_th,punct,root,
p1990
I258
sVadjunct,comp_inf,mwe,root,
p1991
I362
sVcomp,conjunct,mwe,root,subj,
p1992
I694
sVabbrev_punct,adjunct,adjunct_rc,comp,comp_fin,ne,obj,root,
p1993
I1893
sVadjunct_rc,conjunct,obj,obj_th,root,
p1994
I2271
sVadjunct,comp_fin,comp_inf,conjunct,mwe,obj,root,
p1995
I160
sVadjunct_compar,comp,obj_th,root,
p1996
I821
sVadjunct,conjunct,neg,
p1997
I1910
sVcomp_fin,comp_inf,conjunct,root,subj,
p1998
I2114
sVne,neg,root,subj,
p1999
I1555
sVadjunct,adjunct_compar,comp,punct,root,
p2000
I1511
sVadjunct_rc,comp_fin,conjunct,obj,punct,root,subj,
p2001
I880
sVadjunct,app,comp,comp_fin,conjunct,punct,root,subj,
p2002
I1813
sVabbrev_punct,adjunct,adjunct_qt,conjunct,root,
p2003
I1541
sVabbrev_punct,adjunct,comp,conjunct,ne,root,subj,
p2004
I588
sVpd,punct,root,subj,
p2005
I1564
sVadjunct,app,comp,comp_fin,comp_inf,ne,root,subj,
p2006
I1769
sVabbrev_punct,adjunct,app,comp,root,subj,
p2007
I1066
sVadjunct,app,comp,conjunct,obj,punct,root,
p2008
I1419
sVadjunct,adjunct_compar,comp,comp_inf,conjunct,root,
p2009
I950
sVadjunct,conjunct,obj,pre_coord,punct,root,subj,
p2010
I363
sVadjunct,app,comp,ne,root,
p2011
I439
sVadjunct,adjunct_qt,comp,refl,root,
p2012
I2201
sVabbrev_punct,adjunct_qt,comp,conjunct,mwe,obj_th,root,
p2013
I854
sVadjunct_qt,comp,comp_fin,comp_inf,pd,root,subj,
p2014
I1501
sVabbrev_punct,adjunct,adjunct_compar,comp,comp_ag,conjunct,root,
p2015
I531
sVadjunct,conjunct,obj,obj_th,root,
p2016
I830
sVadjunct_qt,app,ne,root,
p2017
I1648
sVadjunct_rc,conjunct,root,
p2018
I1794
sVabbrev_punct,adjunct,comp,conjunct,mwe,root,
p2019
I1317
sVadjunct,obj_th,root,subj,
p2020
I924
sVapp,conjunct,ne,root,subj,
p2021
I490
sVadjunct,adjunct_rc,comp,comp_inf,conjunct,obj,root,subj,
p2022
I1012
sVadjunct,comp_ag,pd,root,subj,
p2023
I1016
sVadjunct,comp,comp_fin,obj,obj_th,punct,root,subj,
p2024
I1156
sVaux,comp_fin,conjunct,obj,root,
p2025
I1200
sVadjunct_compar,comp_fin,comp_inf,conjunct,obj_th,root,
p2026
I2210
sVadjunct,aux,comp,comp_fin,root,
p2027
I713
sVadjunct,comp,comp_fin,pd,root,
p2028
I1023
sVapp,conjunct,ne,root,
p2029
I729
sVadjunct,adjunct_compar,comp,conjunct,punct,root,
p2030
I527
sVadjunct,comp,comp_fin,neg,root,
p2031
I42
sVadjunct,adjunct_qt,comp,comp_fin,comp_inf,obj,root,
p2032
I764
sVadjunct,comp,
p2033
I1706
sVadjunct,comp,comp_inf,mwe,obj,refl,root,
p2034
I1760
sVadjunct,aux,comp,comp_inf,conjunct,obj,pd,root,
p2035
I1534
sVadjunct,adjunct_rc,comp,ne,root,subj,
p2036
I1321
sVcomp_fin,obj_th,root,
p2037
I1183
sVadjunct,comp,mwe,root,
p2038
I281
sVadjunct,comp,ne,refl,root,
p2039
I1973
sVadjunct,comp,comp_fin,mwe,obj,obj_th,root,
p2040
I1684
sVadjunct,adjunct_compar,root,
p2041
I885
sVadjunct,adjunct_compar,comp,conjunct,mwe,root,
p2042
I526
sVadjunct,adjunct_rc,comp,comp_fin,conjunct,obj,root,
p2043
I2068
sVadjunct,app,comp_fin,conjunct,obj,punct,root,
p2044
I2158
sVcomp,comp_inf,obj,punct,root,
p2045
I893
sVadjunct,adjunct_rc,conjunct,obj,root,subj,
p2046
I404
sVadjunct_qt,comp,comp_fin,conjunct,root,
p2047
I1680
sVadjunct,comp_fin,comp_inf,refl,root,
p2048
I737
sVadjunct,comp,comp_ag,comp_fin,conjunct,ne,root,
p2049
I2330
sVapp,comp,conjunct,obj_th,punct,root,
p2050
I225
sVadjunct_rc,comp,comp_inf,mwe,obj,root,
p2051
I575
sVadjunct,comp_inf,conjunct,obj,root,
p2052
I44
sVabbrev_punct,adjunct,conjunct,obj_th,root,
p2053
I967
sVadjunct_qt,comp_fin,pd,root,
p2054
I629
sVadjunct,adjunct_rc,comp_inf,obj,punct,root,
p2055
I1538
sVadjunct,comp,comp_inf,conjunct,obj,obj_th,pd,root,
p2056
I1535
sVadjunct,adjunct_rc,aux,obj,root,
p2057
I1094
sVadjunct,adjunct_rc,comp_inf,obj,root,
p2058
I1537
sVadjunct,comp_fin,ne,root,
p2059
I733
sVadjunct,adjunct_qt,app,comp,ne,root,
p2060
I1269
sVadjunct_qt,adjunct_rc,comp_fin,conjunct,obj,pd,root,
p2061
I621
sVcomp_inf,obj,punct,root,
p2062
I337
sVadjunct_rc,app,comp_inf,conjunct,obj,root,
p2063
I790
sVadjunct,adjunct_rc,comp,conjunct,mwe,obj_th,root,
p2064
I1348
sVadjunct,comp,comp_ag,conjunct,obj,obj_th,root,
p2065
I1948
sVcomp,comp_fin,comp_inf,conjunct,pd,root,subj,
p2066
I2347
sVadjunct,obj,obj_th,root,subj,
p2067
I1069
sVadjunct,comp_inf,conjunct,pd,root,
p2068
I1146
sVcomp,comp_fin,punct,root,
p2069
I181
sVapp,conjunct,punct,root,
p2070
I1604
sVconjunct,ne,root,
p2071
I13
sVadjunct,comp,obj,pd,root,
p2072
I500
sVadjunct,pre_coord,root,
p2073
I2246
sVadjunct,comp,comp_fin,obj,pd,root,subj,
p2074
I882
sVadjunct_compar,comp_inf,punct,root,
p2075
I959
sVadjunct,comp_inf,cond,conjunct,root,
p2076
I1924
sVmwe,obj,root,
p2077
I610
sVadjunct_qt,comp_inf,conjunct,refl,root,
p2078
I1891
sVadjunct,comp,comp_fin,conjunct,obj_th,pd,root,
p2079
I1666
sVadjunct,adjunct_qt,adjunct_rc,comp,ne,obj,root,
p2080
I1779
sVadjunct,comp,comp_inf,mwe,root,subj,
p2081
I480
sVapp,comp,conjunct,root,
p2082
I1308
sVapp,comp,ne,root,
p2083
I438
sVadjunct,comp_fin,comp_inf,conjunct,obj,punct,root,
p2084
I153
sVadjunct,conjunct,obj_th,root,subj,
p2085
I643
sVcomp,comp_ag,root,
p2086
I302
sVadjunct,adjunct_compar,comp,comp_inf,root,subj,
p2087
I1660
sVadjunct,adjunct_rc,refl,root,subj,
p2088
I2075
sVadjunct,app,comp,conjunct,obj,pd,root,
p2089
I682
sVadjunct_qt,adjunct_rc,comp,root,subj,
p2090
I2149
sVadjunct_rc,comp,conjunct,mwe,root,subj,
p2091
I1344
sVconjunct,pd,root,subj,
p2092
I601
sVadjunct,aglt,comp,root,
p2093
I872
sVadjunct_qt,comp,comp_fin,conjunct,obj,root,subj,
p2094
I2094
sVadjunct,comp_fin,neg,root,subj,
p2095
I1279
sVaglt,cond,conjunct,root,
p2096
I1388
sVcomp_fin,punct,root,
p2097
I293
sVadjunct,adjunct_rc,comp,conjunct,pd,root,
p2098
I868
sVadjunct_rc,conjunct,obj_th,punct,root,
p2099
I2267
sVadjunct_qt,adjunct_rc,comp,obj,root,
p2100
I2047
sVadjunct,comp,conjunct,punct,root,
p2101
I211
sVadjunct,aglt,comp,comp_fin,comp_inf,obj_th,root,
p2102
I1901
sVpre_coord,root,subj,
p2103
I1315
sVadjunct,adjunct_qt,conjunct,ne,root,
p2104
I642
sVadjunct,adjunct_rc,app,comp,comp_fin,conjunct,neg,obj,root,subj,
p2105
I59
sVadjunct,comp,mwe,obj,pd,root,
p2106
I1569
sVadjunct_qt,comp,conjunct,obj,root,
p2107
I324
sVadjunct,comp_ag,comp_fin,root,
p2108
I1244
sVadjunct,conjunct,ne,obj_th,root,
p2109
I2063
sVadjunct,app,comp,conjunct,root,subj,
p2110
I1036
sVcomp_fin,conjunct,neg,root,subj,
p2111
I1161
sVadjunct,app,comp_fin,obj,root,
p2112
I2232
sVitem,punct,root,
p2113
I2026
sVadjunct,adjunct_rc,comp,comp_fin,conjunct,punct,root,subj,
p2114
I1772
sVapp,comp,comp_fin,punct,root,subj,
p2115
I2153
sVadjunct_rc,pd,punct,root,
p2116
I1822
sVadjunct,adjunct_rc,root,subj,
p2117
I749
sVadjunct,adjunct_compar,comp,comp_inf,conjunct,obj,root,
p2118
I948
sVadjunct_compar,obj_th,root,
p2119
I819
sVadjunct,app,ne,refl,root,
p2120
I907
sVabbrev_punct,ne,root,subj,
p2121
I705
sVcomp,mwe,root,subj,
p2122
I1165
sVcomp,conjunct,obj_th,pd,root,
p2123
I2252
sVadjunct_qt,comp_fin,conjunct,root,
p2124
I1830
sVadjunct,adjunct_rc,app,comp,comp_fin,conjunct,obj,refl,root,subj,
p2125
I66
sVadjunct,app,comp,conjunct,obj,root,
p2126
I538
sVadjunct,adjunct_qt,comp,comp_fin,comp_inf,pd,root,
p2127
I2199
sVcomp,comp_fin,conjunct,root,subj,
p2128
I163
sVadjunct,app,conjunct,ne,obj_th,root,
p2129
I1972
sVadjunct,adjunct_qt,comp,comp_fin,conjunct,refl,root,
p2130
I1678
sVadjunct,ne,root,subj,
p2131
I372
sVadjunct,adjunct_qt,comp_fin,conjunct,pd,root,subj,
p2132
I239
sVadjunct,comp,comp_fin,comp_inf,conjunct,root,subj,
p2133
I190
sVabbrev_punct,adjunct,comp,conjunct,obj,pre_coord,root,subj,
p2134
I89
sVadjunct,adjunct_qt,comp,comp_fin,comp_inf,obj,obj_th,root,
p2135
I2222
sVadjunct_compar,comp,comp_fin,comp_inf,conjunct,root,
p2136
I941
sVadjunct_rc,comp,obj,punct,root,
p2137
I2079
sVcomp_fin,conjunct,pd,punct,root,
p2138
I2288
sVadjunct,comp,comp_fin,comp_inf,obj_th,
p2139
I1726
sVadjunct,adjunct_rc,comp_inf,conjunct,root,
p2140
I1990
sVadjunct,comp_fin,conjunct,obj,root,
p2141
I383
sVadjunct_compar,conjunct,root,
p2142
I939
sVadjunct,comp,mwe,obj,root,
p2143
I931
sVcomp,comp_fin,refl,root,
p2144
I176
sVcomp,conjunct,pd,root,
p2145
I905
sVadjunct_rc,comp,comp_fin,comp_inf,obj,root,subj,
p2146
I1041
sVadjunct,adjunct_rc,app,comp,conjunct,pd,root,
p2147
I680
sVcomp,conjunct,obj_th,punct,root,
p2148
I1226
sVcomp_fin,obj,root,
p2149
I389
sVadjunct_rc,comp,comp_inf,conjunct,obj,root,
p2150
I2077
sVabbrev_punct,adjunct,adjunct_compar,comp,conjunct,obj,root,subj,
p2151
I1409
sVadjunct,adjunct_compar,comp,comp_fin,conjunct,mwe,obj,refl,root,subj,
p2152
I2130
sVadjunct,adjunct_qt,comp,conjunct,mwe,root,
p2153
I849
sVadjunct,adjunct_rc,comp,comp_inf,conjunct,obj,root,
p2154
I2078
sVadjunct,app,comp,comp_fin,comp_inf,conjunct,root,subj,
p2155
I1039
sVadjunct,adjunct_rc,aux,comp,conjunct,neg,root,subj,
p2156
I2279
sVadjunct,adjunct_rc,comp_fin,conjunct,obj,pd,root,
p2157
I380
sVadjunct,comp,comp_fin,conjunct,mwe,ne,root,
p2158
I554
sVadjunct,comp,comp_fin,conjunct,root,
p2159
I248
sVadjunct,comp,conjunct,obj,pd,root,
p2160
I499
sVadjunct,app,obj,obj_th,root,
p2161
I260
sVadjunct_qt,app,punct,root,
p2162
I1619
sVadjunct,adjunct_qt,comp,conjunct,root,subj,
p2163
I504
sVconjunct,ne,obj,root,subj,
p2164
I1826
sVadjunct,app,conjunct,obj_th,root,
p2165
I1621
sVmwe,root,
p2166
I428
sVadjunct,adjunct_qt,obj,refl,root,subj,
p2167
I1776
sVadjunct,comp,obj,
p2168
I1707
sVcomp,pd,punct,root,
p2169
I1178
sVcomp,comp_inf,obj_th,root,
p2170
I1613
sVadjunct,comp_ag,comp_inf,obj,root,
p2171
I367
sVadjunct,conjunct,neg,obj,root,
p2172
I277
sVcomp,comp_fin,conjunct,obj_th,punct,root,subj,
p2173
I169
sVadjunct_compar,app,comp,root,
p2174
I1028
sVcomp_fin,comp_inf,conjunct,punct,root,
p2175
I782
sVaux,comp,conjunct,root,
p2176
I1486
sVadjunct,adjunct_rc,ne,obj,root,subj,
p2177
I2280
sVadjunct,adjunct_rc,comp,obj_th,punct,root,
p2178
I1179
sVadjunct,comp,comp_ag,conjunct,mwe,root,
p2179
I2029
sVadjunct,comp,comp_fin,cond,root,
p2180
I40
sVadjunct,comp_inf,pd,punct,root,
p2181
I516
sVadjunct,app,comp,conjunct,obj,pd,punct,root,
p2182
I691
sVadjunct,adjunct_qt,comp,comp_fin,obj,punct,root,subj,
p2183
I1376
sVadjunct,comp_inf,pd,root,subj,
p2184
I1401
sVcomp_inf,conjunct,obj,punct,root,
p2185
I137
sVadjunct,app,ne,obj_th,root,
p2186
I973
sVadjunct_qt,ne,obj_th,root,
p2187
I1882
sVadjunct,comp,comp_fin,comp_inf,conjunct,obj,obj_th,refl,
p2188
I1732
sVadjunct,comp,comp_fin,conjunct,mwe,root,subj,
p2189
I170
sVcomp_inf,pd,punct,root,
p2190
I1467
sVadjunct,obj_th,punct,root,
p2191
I252
sVadjunct,adjunct_compar,comp,obj_th,root,
p2192
I820
sVcomp,comp_fin,ne,root,subj,
p2193
I1377
sVadjunct,app,comp_ag,conjunct,obj,root,subj,
p2194
I399
sVadjunct,comp,comp_fin,comp_inf,conjunct,pd,root,subj,
p2195
I2348
sVadjunct,comp,conjunct,mwe,pd,root,subj,
p2196
I698
sVadjunct_compar,adjunct_qt,comp,root,subj,
p2197
I1840
sVcomp,comp_fin,root,
p2198
I38
sVcomp,comp_inf,conjunct,ne,root,
p2199
I722
sVabbrev_punct,adjunct,app,comp,conjunct,obj,pd,root,
p2200
I683
sVadjunct,adjunct_qt,conjunct,obj,punct,root,
p2201
I2344
sVadjunct,app,conjunct,refl,root,
p2202
I1040
sVcomp_fin,obj,punct,root,
p2203
I388
sVadjunct,obj,obj_th,punct,root,subj,
p2204
I1068
sVcomp_fin,comp_inf,conjunct,obj,pd,root,
p2205
I344
sVadjunct,comp,comp_inf,mwe,pd,root,
p2206
I1130
sVadjunct,adjunct_rc,obj_th,punct,root,
p2207
I2061
sVadjunct,adjunct_rc,pd,root,subj,
p2208
I1818
sVadjunct,adjunct_rc,comp,conjunct,mwe,obj,obj_th,root,
p2209
I1350
sVadjunct,adjunct_rc,conjunct,root,
p2210
I1677
sVadjunct,aux,obj_th,root,
p2211
I1975
sVadjunct,app,comp,conjunct,ne,root,
p2212
I464
sVadjunct,adjunct_qt,comp,comp_fin,conjunct,root,
p2213
I208
sVadjunct,adjunct_rc,comp,comp_fin,conjunct,ne,obj,root,subj,
p2214
I1205
sVcomp_fin,conjunct,refl,root,subj,
p2215
I1162
sVadjunct,aglt,comp,comp_inf,conjunct,root,
p2216
I2184
sVadjunct_qt,comp,comp_fin,comp_inf,pd,punct,root,subj,
p2217
I1500
sVadjunct,app,comp,comp_ag,conjunct,ne,root,
p2218
I717
sVadjunct_compar,comp,comp_inf,conjunct,obj,root,
p2219
I947
sVadjunct_qt,root,
p2220
I79
sVadjunct,aglt,cond,root,
p2221
I1599
sVadjunct,comp_ag,obj,root,
p2222
I592
sVadjunct,app,comp_fin,comp_inf,ne,obj,obj_th,root,subj,
p2223
I1609
sVcomp,comp_fin,comp_inf,punct,root,
p2224
I2144
sVadjunct,aglt,conjunct,root,
p2225
I1145
sVcomp,comp_fin,comp_inf,conjunct,obj,root,
p2226
I426
sVadjunct,adjunct_rc,conjunct,obj_th,root,
p2227
I2268
sVadjunct,adjunct_rc,app,ne,root,subj,
p2228
I1078
sVadjunct,comp,comp_inf,conjunct,obj,root,subj,
p2229
I82
sVcomp,comp_fin,conjunct,obj_th,punct,root,
p2230
I2109
sVadjunct,adjunct_rc,comp,comp_fin,conjunct,obj,pd,root,
p2231
I381
sVadjunct,conjunct,obj_th,punct,root,
p2232
I414
sVcomp_ag,conjunct,obj_th,root,
p2233
I1944
sVadjunct_rc,comp,comp_fin,comp_inf,conjunct,obj_th,root,subj,
p2234
I1798
sVadjunct,comp_fin,conjunct,obj_th,refl,root,subj,
p2235
I1468
sVne,obj,root,
p2236
I519
sVadjunct,conjunct,obj_th,root,
p2237
I346
sVadjunct_rc,comp_fin,obj,pd,root,
p2238
I1280
sVadjunct,comp,comp_fin,conjunct,mwe,obj,root,
p2239
I553
sVadjunct,obj,root,subj,
p2240
I288
sVadjunct,comp,ne,obj_th,root,subj,
p2241
I1884
sVapp,comp,comp_fin,obj,root,subj,
p2242
I2154
sVcomp,comp_fin,conjunct,punct,root,
p2243
I427
sVadjunct,app,comp,conjunct,obj,root,subj,
p2244
I411
sVadjunct,comp,conjunct,ne,obj_th,root,
p2245
I1877
sVadjunct,adjunct_qt,comp,obj_th,root,
p2246
I221
sVadjunct,comp_fin,obj,pd,root,
p2247
I555
sVcomp,comp_fin,conjunct,obj_th,root,
p2248
I417
sVaux,neg,root,
p2249
I509
sVadjunct,obj,obj_th,punct,root,
p2250
I1071
sVadjunct,obj_th,root,
p2251
I251
sVcomp,comp_fin,punct,root,subj,
p2252
I1114
sVadjunct,adjunct_rc,conjunct,obj,punct,
p2253
I1909
sVadjunct,adjunct_rc,mwe,punct,root,
p2254
I898
sVadjunct,adjunct_rc,comp,conjunct,punct,root,subj,
p2255
I2115
sVcomp_inf,conjunct,refl,root,
p2256
I135
sVadjunct,app,comp,comp_fin,obj_th,root,
p2257
I2338
sVadjunct,app,comp,obj_th,root,subj,
p2258
I1886
sVadjunct,adjunct_rc,comp,comp_inf,conjunct,pd,punct,root,
p2259
I2250
sVadjunct,adjunct_rc,app,comp,comp_fin,conjunct,obj,punct,root,subj,
p2260
I53
sVadjunct,comp_fin,comp_inf,conjunct,obj,root,
p2261
I156
sVadjunct,conjunct,ne,root,
p2262
I17
sVadjunct_compar,comp_fin,obj,obj_th,root,
p2263
I1864
sVadjunct,app,comp_fin,conjunct,obj,root,
p2264
I2159
sVconjunct,mwe,ne,obj,root,
p2265
I1938
sVadjunct_rc,comp,conjunct,obj,punct,root,
p2266
I1482
sVadjunct,comp_ag,conjunct,root,subj,
p2267
I1296
sVadjunct_rc,conjunct,obj,root,subj,
p2268
I1552
sVadjunct,adjunct_qt,comp,conjunct,ne,root,subj,
p2269
I505
sVadjunct_qt,aglt,comp,comp_fin,root,
p2270
I1043
sVadjunct_rc,comp,comp_fin,conjunct,root,
p2271
I1108
sVadjunct,adjunct_rc,comp,comp_inf,refl,root,
p2272
I1284
sVadjunct,adjunct_qt,mwe,punct,root,
p2273
I1837
sVadjunct,comp_inf,conjunct,obj,refl,root,
p2274
I911
sVadjunct,adjunct_rc,comp,conjunct,obj_th,root,
p2275
I1758
sVadjunct,comp,comp_fin,root,
p2276
I35
sVadjunct,adjunct_compar,comp_fin,comp_inf,conjunct,punct,root,subj,
p2277
I2213
sVadjunct,adjunct_rc,comp,mwe,root,
p2278
I1364
sVabbrev_punct,comp,root,
p2279
I536
sVadjunct_qt,comp_fin,mwe,root,subj,
p2280
I104
sVadjunct,adjunct_rc,comp,comp_inf,conjunct,neg,pd,root,
p2281
I2248
sVadjunct,app,comp,mwe,ne,root,
p2282
I826
sVadjunct,app,comp,conjunct,obj_th,pd,root,
p2283
I1584
sVadjunct,adjunct_compar,comp,comp_fin,conjunct,punct,root,
p2284
I2188
sVadjunct_rc,conjunct,mwe,obj_th,root,
p2285
I1346
sVadjunct,conjunct,obj,root,subj,
p2286
I146
sVadjunct_qt,imp,root,
p2287
I2002
sVapp,comp_fin,conjunct,punct,root,subj,
p2288
I879
sVabbrev_punct,obj,root,
p2289
I445
sVadjunct,adjunct_qt,adjunct_rc,comp_fin,pd,root,
p2290
I631
sVcomp,punct,root,subj,
p2291
I543
sVadjunct,conjunct,obj,punct,root,
p2292
I276
sVpd,root,
p2293
I205
sVcomp,comp_fin,comp_inf,obj,root,subj,
p2294
I895
sVadjunct,app,comp,comp_fin,ne,obj,root,
p2295
I1918
sVadjunct,adjunct_rc,comp,obj,root,subj,
p2296
I1089
sVadjunct,comp,comp_fin,conjunct,obj,obj_th,root,
p2297
I759
sVadjunct,app,ne,punct,root,
p2298
I1082
sVconjunct,obj,root,subj,
p2299
I147
sVcomp,comp_fin,comp_inf,root,
p2300
I584
sVadjunct,app,mwe,root,
p2301
I807
sVadjunct,adjunct_qt,comp_fin,obj,root,
p2302
I1312
sVadjunct,comp_fin,conjunct,mwe,root,
p2303
I421
sVabbrev_punct,adjunct,obj,obj_th,root,subj,
p2304
I1070
sVapp,ne,obj,root,subj,
p2305
I449
sVadjunct,comp_fin,comp_inf,root,
p2306
I109
sVadjunct,comp_fin,comp_inf,punct,root,subj,
p2307
I1256
sVadjunct,cond,root,
p2308
I1598
sVcomp,conjunct,obj,root,
p2309
I305
sVcomp,conjunct,mwe,pd,root,
p2310
I901
sVcomp,comp_fin,comp_inf,conjunct,mwe,root,
p2311
I773
sVadjunct,adjunct_qt,comp,comp_fin,cond,mwe,root,
p2312
I114
sVadjunct,adjunct_qt,comp,comp_fin,root,subj,
p2313
I1971
sVcomp,comp_ag,obj,root,
p2314
I1722
sVadjunct,aux,root,subj,
p2315
I1937
sVadjunct,comp,conjunct,obj,pre_coord,punct,root,subj,
p2316
I84
sVadjunct,adjunct_qt,adjunct_rc,comp,comp_fin,pd,root,
p2317
I627
sVapp,comp,comp_inf,conjunct,obj,punct,root,
p2318
I1451
sVadjunct,adjunct_rc,obj,punct,root,
p2319
I409
sVcomp,comp_inf,conjunct,refl,root,
p2320
I2052
sVadjunct,comp,comp_fin,conjunct,mwe,obj,punct,root,subj,
p2321
I1393
sVadjunct,adjunct_rc,conjunct,obj,
p2322
I1915
sVadjunct,adjunct_rc,comp,conjunct,root,subj,
p2323
I319
sVadjunct,adjunct_qt,comp,comp_fin,comp_inf,conjunct,obj,obj_th,root,
p2324
I1897
sVadjunct,comp_fin,obj,punct,root,
p2325
I1685
sVconjunct,obj,punct,root,subj,
p2326
I1814
sVabbrev_punct,adjunct,comp,obj,root,subj,
p2327
I1021
sVadjunct,adjunct_qt,conjunct,obj,root,subj,
p2328
I2341
sVadjunct,app,comp,pd,punct,root,
p2329
I685
sVadjunct,conjunct,ne,obj,root,
p2330
I544
sVadjunct,conjunct,pd,punct,root,
p2331
I128
sVadjunct,app,comp,mwe,root,subj,
p2332
I1316
sVconjunct,ne,obj_th,root,
p2333
I1634
sVadjunct,adjunct_qt,comp_fin,obj_th,root,
p2334
I2220
sVadjunct,comp_inf,ne,obj,root,
p2335
I702
sVabbrev_punct,comp,root,subj,
p2336
I2324
sVapp,punct,root,subj,
p2337
I3
sVadjunct,comp,comp_ag,comp_inf,root,
p2338
I1132
sVadjunct_qt,comp_fin,mwe,pd,root,
p2339
I92
sVadjunct,adjunct_rc,conjunct,obj,refl,subj,
p2340
I1906
sVadjunct,aux,comp,comp_fin,neg,root,
p2341
I1654
sVcomp,conjunct,mwe,obj,obj_th,root,
p2342
I2236
sVadjunct,comp_fin,conjunct,obj_th,root,subj,
p2343
I1185
sVadjunct_rc,comp,obj,root,subj,
p2344
I806
sVadjunct,comp_fin,ne,root,subj,
p2345
I1248
sVadjunct,conjunct,obj,pd,punct,root,
p2346
I1492
sVadjunct,adjunct_rc,comp,conjunct,obj,punct,root,
p2347
I385
sVcomp,comp_fin,obj,root,
p2348
I37
sVadjunct,adjunct_rc,comp,comp_fin,mwe,root,
p2349
I469
sVcomp,comp_inf,conjunct,root,
p2350
I142
sVadjunct,comp,comp_fin,conjunct,obj,refl,root,subj,
p2351
I1193
sVadjunct,comp,conjunct,ne,pd,root,
p2352
I1019
sVadjunct,adjunct_qt,comp,pd,root,
p2353
I270
sVadjunct,app,comp,conjunct,root,
p2354
I19
sVadjunct_qt,comp_inf,conjunct,pd,root,
p2355
I1490
sVadjunct,comp,comp_fin,punct,root,
p2356
I39
sVadjunct,comp,comp_fin,comp_inf,conjunct,refl,root,
p2357
I2140
sVadjunct,adjunct_rc,app,pd,root,
p2358
I2161
sVcomp_fin,comp_inf,pd,root,
p2359
I1491
sVadjunct,comp,comp_ag,comp_fin,comp_inf,obj,root,
p2360
I657
sVadjunct,adjunct_rc,conjunct,obj,punct,subj,
p2361
I1913
sVadjunct,comp,ne,root,
p2362
I456
sVcomp,comp_fin,obj,pd,root,
p2363
I557
sVadjunct,comp,comp_inf,refl,root,
p2364
I184
sVcomp,root,
p2365
I22
ssVdependency_path_from
p2366
(dp2367
sVto_candidate_relation_arg
p2368
(dp2369
Vloc
p2370
I0
sVben
p2371
I2
sVag
p2372
I1
ssVtoken_type
p2373
(dp2374
g2370
I3
sg2371
I5
sg2372
I2
sS'n/a'
p2375
I0
sS'to'
p2376
I4
sS'from'
p2377
I1
ssVfrom_candidate_relation_arg
p2378
(dp2379
g2370
I0
sg2371
I2
sg2372
I1
ssS'dependency_path_short'
p2380
(dp2381
S''
p2382
I2
sVcomp_inf-adjunct-comp_fin-subj
p2383
I936
sVmwe-comp-punct
p2384
I622
sVadjunct-conjunct-aux
p2385
I1133
sVadjunct-mwe-comp-adjunct-comp-ne
p2386
I1012
sVroot-comp_fin-subj-adjunct-comp
p2387
I138
sVobj-conjunct-adjunct-obj-adjunct-punct
p2388
I663
sVroot-adjunct
p2389
I357
sVcomp_fin-obj-adjunct-comp
p2390
I695
sVadjunct-conjunct-adjunct
p2391
I237
sVobj_th-obj
p2392
I122
sVconjunct-obj-adjunct
p2393
I168
sVaux-neg
p2394
I616
sVpd-adjunct_compar
p2395
I981
sVcomp_fin-conjunct-adjunct-comp-adjunct
p2396
I296
sVadjunct-comp-adjunct_rc-comp
p2397
I488
sVconjunct-comp_fin-comp-adjunct
p2398
I971
sVadjunct-subj
p2399
I156
sVcomp-comp_fin-comp_inf-adjunct-comp
p2400
I600
sVcomp-comp_fin-adjunct-comp_fin-adjunct-comp_fin-adjunct-comp
p2401
I274
sVroot-adjunct-comp-adjunct_compar-comp
p2402
I647
sVconjunct-obj-conjunct-subj-adjunct-comp
p2403
I531
sVcomp-comp_inf-adjunct
p2404
I719
sVadjunct_qt-comp
p2405
I233
sVadjunct-conjunct-adjunct-comp_fin
p2406
I914
sVcomp_inf-adjunct_compar-comp_fin-aux
p2407
I1126
sVconjunct-subj-comp-comp_fin
p2408
I61
sVobj_th-comp-adjunct
p2409
I628
sVcomp_fin-neg
p2410
I133
sVapp-adjunct_rc-subj
p2411
I828
sVcomp-ne
p2412
I161
sVconjunct-obj-adjunct-comp-conjunct-adjunct
p2413
I374
sVcomp-conjunct-adjunct
p2414
I252
sVmwe
p2415
I56
sVcomp-conjunct-adjunct-conjunct-adjunct
p2416
I989
sVadjunct-subj-adjunct
p2417
I183
sVaux
p2418
I93
sVsubj-comp-comp_fin-conjunct-obj
p2419
I12
sVcomp_inf-conjunct-adjunct
p2420
I1190
sVobj_th-adjunct-comp-conjunct-adjunct-comp-adjunct
p2421
I996
sVconjunct-adjunct-comp-adjunct-conjunct
p2422
I1132
sVconjunct-adjunct-obj-adjunct
p2423
I547
sVadjunct_qt-punct
p2424
I240
sVadjunct-comp-comp_fin-comp_inf-obj_th-adjunct-obj-adjunct-conjunct-adjunct-mwe
p2425
I813
sVconjunct-comp_fin-obj-adjunct-comp-comp_inf-comp-adjunct-abbrev_punct
p2426
I710
sVadjunct-comp-comp_fin-subj-comp
p2427
I922
sVobj-adjunct-comp-comp_inf-obj
p2428
I713
sVconjunct-adjunct-aux
p2429
I1186
sVadjunct-comp_fin-comp-adjunct
p2430
I1170
sVadjunct-comp_inf-conjunct-subj
p2431
I1209
sVadjunct-comp_inf-punct
p2432
I1189
sVadjunct-comp-comp_fin-comp_inf-adjunct
p2433
I604
sVsubj-adjunct-subj-conjunct-subj-adjunct_rc
p2434
I1026
sVmwe-comp-adjunct-comp-adjunct_rc-adjunct
p2435
I461
sVroot-adjunct-comp-punct
p2436
I642
sVcomp_ag-comp-adjunct-comp
p2437
I682
sVcomp_inf-adjunct-comp
p2438
I598
sVroot-comp_fin
p2439
I630
sVcomp_inf-adjunct-comp_fin
p2440
I934
sVcomp_ag-comp-adjunct-comp-adjunct
p2441
I681
sVadjunct-obj_th-adjunct
p2442
I432
sVadjunct_rc-comp_inf-obj-comp_fin-punct
p2443
I903
sVobj-conjunct-obj
p2444
I85
sVadjunct-conjunct-pd-adjunct
p2445
I744
sVne-abbrev_punct
p2446
I361
sVadjunct-pd-comp
p2447
I163
sVcomp-comp_fin-subj
p2448
I583
sVconjunct-adjunct-comp-adjunct-punct
p2449
I941
sVadjunct-conjunct-comp-obj
p2450
I545
sVcomp-app-ne
p2451
I684
sVroot-comp_fin-obj_th-comp-adjunct
p2452
I633
sVcomp-adjunct_compar
p2453
I258
sVitem
p2454
I223
sVcomp-adjunct-subj
p2455
I614
sVconjunct-pd
p2456
I337
sVcomp-subj-app-adjunct
p2457
I730
sVconjunct-adjunct-comp-adjunct_rc-subj
p2458
I1147
sVsubj-adjunct-comp-adjunct-conjunct
p2459
I382
sVconjunct-adjunct-comp-obj-adjunct
p2460
I416
sVadjunct-conjunct-obj-adjunct
p2461
I334
sVconjunct-adjunct-comp
p2462
I42
sVconjunct-subj-comp-adjunct-comp
p2463
I421
sVsubj-adjunct-subj-conjunct-adjunct
p2464
I1060
sVconjunct-obj-comp
p2465
I540
sVadjunct-comp-conjunct-obj_th-conjunct-adjunct-comp-adjunct
p2466
I729
sVcomp-adjunct_rc-adjunct_qt-adjunct-comp-adjunct
p2467
I506
sVconjunct-comp_inf-comp-punct
p2468
I1083
sVadjunct-comp-comp_fin-pd-conjunct-obj-ne
p2469
I927
sVconjunct-cond
p2470
I58
sVmwe-comp-adjunct-mwe
p2471
I621
sVcomp_fin-subj-adjunct-comp
p2472
I135
sVcomp-comp_fin-subj-adjunct_rc-pd
p2473
I1176
sVpunct-subj
p2474
I214
sVcomp-comp_fin-conjunct-comp-obj_th-adjunct-comp
p2475
I189
sVconjunct-comp_fin-aux
p2476
I309
sVadjunct-conjunct-adjunct-mwe-comp-obj-adjunct
p2477
I802
sVcomp_fin-adjunct-subj-comp
p2478
I956
sVadjunct-app-punct
p2479
I347
sVconjunct-adjunct-comp-adjunct_rc
p2480
I1148
sVapp-adjunct-mwe-comp
p2481
I87
sVadjunct-comp-obj-adjunct-comp
p2482
I440
sVcomp-comp_fin-conjunct-subj
p2483
I28
sVcomp-adjunct-comp-adjunct_rc-adjunct_qt-adjunct-comp
p2484
I470
sVneg
p2485
I134
sVadjunct-comp-comp_fin-conjunct-comp-obj_th-adjunct-comp
p2486
I185
sVadjunct-conjunct-obj-comp
p2487
I539
sVadjunct-comp-adjunct-conjunct
p2488
I91
sVsubj-conjunct-subj-adjunct_rc-adjunct-conjunct-comp
p2489
I1064
sVconjunct-adjunct-comp_inf-punct
p2490
I1205
sVconjunct-comp_fin-obj-adjunct-comp-comp_inf-adjunct
p2491
I716
sVcomp_fin-refl
p2492
I249
sVpd-adjunct-obj-adjunct
p2493
I527
sVcomp_fin-obj-adjunct-comp-comp_inf-comp-adjunct-comp-adjunct
p2494
I704
sVobj-adjunct-obj
p2495
I341
sVconjunct-comp_fin-comp_inf-adjunct_compar-comp_fin-aux
p2496
I1129
sVcomp_ag
p2497
I116
sVcomp_inf-obj_th-adjunct-subj
p2498
I817
sVpd-adjunct-ne-conjunct
p2499
I331
sVadjunct-pd-comp-obj-adjunct-conjunct
p2500
I157
sVadjunct-refl
p2501
I834
sVpd-adjunct-punct
p2502
I373
sVconjunct-subj-adjunct_rc-adjunct-conjunct-comp
p2503
I1061
sVadjunct-comp-adjunct-conjunct-adjunct-comp_inf-obj_th-adjunct
p2504
I1137
sVconjunct-obj-ne
p2505
I925
sVadjunct-comp_ag-comp-adjunct
p2506
I111
sVpunct
p2507
I35
sVsubj-comp_ag
p2508
I757
sVcomp-adjunct-comp-abbrev_punct
p2509
I1215
sVadjunct-conjunct-punct
p2510
I321
sVcomp-comp_fin-comp_inf-obj_th-adjunct-obj-adjunct-conjunct-adjunct-mwe
p2511
I782
sVcomp-comp_fin-conjunct-comp
p2512
I200
sVcomp_fin-adjunct-subj
p2513
I946
sVcomp-adjunct_rc
p2514
I486
sVcomp-adjunct_rc-adjunct_qt-adjunct
p2515
I451
sVadjunct_rc-comp-comp_fin-adjunct-comp
p2516
I1067
sVconjunct-adjunct-subj-adjunct-comp-adjunct
p2517
I179
sVcomp_fin-comp_inf-obj_th-adjunct-subj
p2518
I779
sVobj-adjunct-conjunct-obj-adjunct
p2519
I769
sVadjunct_compar-comp_fin-subj-adjunct-conjunct-adjunct-conjunct-adjunct
p2520
I1113
sVconjunct-adjunct_rc-refl
p2521
I1211
sVadjunct-obj-adjunct-conjunct-obj
p2522
I789
sVconjunct-obj_th-punct
p2523
I36
sVconjunct-abbrev_punct
p2524
I979
sVsubj-adjunct-refl
p2525
I833
sVsubj-app-adjunct-punct
p2526
I752
sVadjunct-comp_fin-comp_ag-punct
p2527
I423
sVadjunct-comp-adjunct-obj-adjunct-comp-adjunct
p2528
I895
sVpd-adjunct-conjunct
p2529
I367
sVadjunct-comp-comp_fin-comp_inf-adjunct-comp-adjunct
p2530
I613
sVconjunct-obj_th-comp-comp_fin-comp_inf
p2531
I392
sVobj_th-adjunct-conjunct-adjunct
p2532
I265
sVcomp_ag-comp
p2533
I180
sVconjunct-adjunct-conjunct-punct
p2534
I546
sVmwe-comp-adjunct-comp-adjunct_rc-subj
p2535
I476
sVapp
p2536
I69
sVadjunct-conjunct-adjunct-comp
p2537
I1130
sVcomp-comp_fin-obj_th
p2538
I871
sVsubj-conjunct-obj_th
p2539
I1041
sVconjunct-adjunct-obj
p2540
I550
sVsubj-adjunct-subj-punct
p2541
I882
sVcomp-adjunct-comp-adjunct_rc-comp-adjunct-comp
p2542
I509
sVconjunct-comp_fin-comp_inf
p2543
I1103
sVobj_th-comp-adjunct-punct
p2544
I627
sVadjunct-obj-conjunct
p2545
I171
sVconjunct-punct
p2546
I220
sVsubj-adjunct-conjunct-pd
p2547
I732
sVsubj-comp-adjunct
p2548
I787
sVadjunct-root-comp-punct
p2549
I858
sVconjunct-pd-conjunct-adjunct-comp
p2550
I175
sVcomp-adjunct_rc-adjunct_qt
p2551
I513
sVsubj-ne
p2552
I120
sVsubj-conjunct-subj-adjunct_rc-adjunct-conjunct
p2553
I1074
sVadjunct-subj-adjunct_rc-punct
p2554
I588
sVconjunct-subj-adjunct
p2555
I376
sVadjunct-conjunct-adjunct-subj
p2556
I902
sVcomp_inf
p2557
I302
sVne-comp
p2558
I338
sVconjunct-subj-comp-comp_fin-conjunct-adjunct-mwe-comp
p2559
I48
sVadjunct-obj-comp
p2560
I662
sVadjunct-comp-punct
p2561
I101
sVobj-adjunct-mwe-comp-adjunct-comp-ne
p2562
I1009
sVcomp_fin-adjunct-comp_fin-adjunct-punct
p2563
I281
sVsubj-adjunct-subj-conjunct-subj-adjunct_rc-punct
p2564
I1036
sVmwe-comp-adjunct-comp-adjunct_rc-adjunct_qt-adjunct-comp-adjunct
p2565
I466
sVadjunct-conjunct-comp_fin-conjunct-subj-adjunct
p2566
I975
sVcomp_fin-conjunct-adjunct
p2567
I53
sVcomp_fin-subj-adjunct-conjunct
p2568
I865
sVconjunct-comp_inf-refl
p2569
I304
sVcomp-subj-app
p2570
I741
sVadjunct-comp-obj-adjunct-comp-adjunct
p2571
I428
sVroot-comp_fin-obj_th-comp-adjunct-punct
p2572
I625
sVadjunct-comp_inf-conjunct-adjunct-obj
p2573
I1202
sVadjunct-comp-adjunct_rc-adjunct_qt-adjunct-comp-adjunct
p2574
I505
sVadjunct-comp-mwe
p2575
I253
sVsubj-adjunct_rc-punct-conjunct-pd-comp
p2576
I1183
sVadjunct-obj_th-obj
p2577
I121
sVadjunct-conjunct-comp_fin
p2578
I655
sVconjunct-comp_inf-comp-comp_fin-adjunct
p2579
I1087
sVadjunct-comp_fin
p2580
I241
sVcomp-adjunct-comp-adjunct_rc-adjunct_qt-adjunct-comp-adjunct-comp
p2581
I455
sVcomp-comp_fin-punct
p2582
I270
sVadjunct-app-adjunct-punct
p2583
I349
sVcomp-adjunct-aux-neg
p2584
I617
sVadjunct-obj-conjunct-adjunct
p2585
I693
sVadjunct-subj-punct
p2586
I188
sVadjunct-obj-adjunct-conjunct-adjunct-mwe
p2587
I812
sVcomp_fin-comp_inf-obj_th-adjunct-obj-adjunct-conjunct-adjunct-mwe
p2588
I783
sVsubj-adjunct_rc-comp
p2589
I1144
sVobj-comp_fin-subj
p2590
I948
sVadjunct_rc-comp_inf-obj-comp_fin
p2591
I907
sVconjunct-comp_fin-comp
p2592
I968
sVpd-mwe-adjunct_rc-punct
p2593
I128
sVcomp_fin-conjunct-comp-obj_th-adjunct-comp
p2594
I190
sVconjunct-adjunct-comp-obj
p2595
I208
sVcomp_inf-obj-adjunct
p2596
I79
sVadjunct-obj-comp-adjunct
p2597
I659
sVconjunct-subj-comp-comp_fin-conjunct-adjunct
p2598
I23
sVroot
p2599
I263
sVadjunct-subj-comp
p2600
I390
sVconjunct-comp-adjunct
p2601
I165
sVcomp_inf-punct
p2602
I1191
sVconjunct-obj_th
p2603
I155
sVadjunct_compar-comp
p2604
I644
sVsubj-app-adjunct
p2605
I77
sVcomp-adjunct_rc-comp
p2606
I489
sVadjunct-comp-adjunct-abbrev_punct
p2607
I891
sVadjunct-conjunct-adjunct-comp_fin-conjunct-adjunct-conjunct
p2608
I913
sVcomp_inf-adjunct_compar-comp_fin-subj-adjunct-conjunct-adjunct-conjunct
p2609
I1108
sVadjunct-ne-conjunct
p2610
I329
sVadjunct-comp-conjunct-abbrev_punct
p2611
I173
sVconjunct-comp-comp_ag
p2612
I535
sVobj-adjunct-punct
p2613
I94
sVcomp-adjunct-comp-adjunct_rc-adjunct
p2614
I463
sVobj-adjunct-comp-comp_inf-comp-adjunct-abbrev_punct
p2615
I711
sVcomp-adjunct-comp_ag
p2616
I587
sVsubj-mwe-comp
p2617
I564
sVcomp_fin-comp_inf-comp
p2618
I1100
sVcomp-adjunct-obj-adjunct-comp
p2619
I887
sVobj-adjunct-comp_ag
p2620
I900
sVcomp_fin-punct
p2621
I247
sVcomp-subj-adjunct-conjunct
p2622
I739
sVadjunct-conjunct-adjunct-conjunct-adjunct
p2623
I1115
sVadjunct-conjunct-comp_fin-conjunct-comp
p2624
I966
sVcomp-adjunct-obj-adjunct-comp-adjunct
p2625
I896
sVadjunct_qt-comp_inf-comp
p2626
I386
sVcomp_inf-adjunct-comp-adjunct
p2627
I611
sVadjunct-subj-conjunct-subj-adjunct_rc-adjunct
p2628
I1046
sVadjunct_rc-adjunct-punct
p2629
I841
sVcomp_inf-adjunct
p2630
I406
sVsubj-app-adjunct-mwe-comp-adjunct
p2631
I76
sVadjunct-comp-conjunct-adjunct-comp-adjunct
p2632
I993
sVadjunct-obj
p2633
I342
sVcomp-adjunct-comp-adjunct-mwe
p2634
I1160
sVadjunct-comp-adjunct-pd-adjunct
p2635
I582
sVconjunct-pd-adjunct-punct
p2636
I372
sVconjunct-adjunct-conjunct-obj-comp
p2637
I538
sVadjunct-comp_fin-subj-adjunct-subj-punct
p2638
I880
sVsubj-adjunct-comp_fin-adjunct
p2639
I654
sVconjunct-comp_fin-adjunct-comp-adjunct-comp-adjunct-comp
p2640
I1121
sVconjunct-obj
p2641
I9
sVapp-ne
p2642
I152
sVcomp_inf-adjunct_compar-comp_fin-subj-adjunct-conjunct-adjunct-conjunct-adjunct
p2643
I1112
sVobj_th-comp-comp_fin-comp_inf-adjunct
p2644
I407
sVconjunct-obj_th-comp
p2645
I411
sVcomp_fin-conjunct-cond
p2646
I60
sVcomp_fin-adjunct-comp_fin
p2647
I285
sVconjunct-subj-comp-comp_fin-conjunct-adjunct-mwe-comp-adjunct
p2648
I20
sVadjunct_qt-adjunct-comp
p2649
I471
sVcomp-obj-adjunct-comp-adjunct
p2650
I429
sVobj-adjunct-subj
p2651
I581
sVadjunct-comp_fin-subj-adjunct_rc-adjunct
p2652
I1145
sVadjunct-adjunct_rc-adjunct-punct
p2653
I842
sVcomp-comp_ag-comp-adjunct
p2654
I542
sVadjunct-conjunct-comp_fin-conjunct-adjunct-comp
p2655
I967
sVcomp-comp_fin-adjunct-comp_fin-adjunct-comp_fin-subj
p2656
I269
sVconjunct-adjunct-comp_inf-conjunct-adjunct-obj-adjunct
p2657
I1195
sVmwe-adjunct-punct-mwe
p2658
I552
sVcomp-adjunct_rc-subj
p2659
I480
sVconjunct-adjunct-comp_fin-adjunct
p2660
I916
sVmwe-comp-adjunct-comp
p2661
I479
sVcomp-conjunct-adjunct-conjunct
p2662
I990
sVcomp-mwe
p2663
I254
sVconjunct-ne-punct
p2664
I356
sVmwe-comp-adjunct
p2665
I16
sVcomp-conjunct-comp_fin-subj-adjunct
p2666
I318
sVadjunct-conjunct-obj
p2667
I325
sVsubj-adjunct-mwe-comp
p2668
I1094
sVadjunct-comp-adjunct_rc-adjunct_qt-adjunct-comp-adjunct-comp-adjunct-comp
p2669
I465
sVadjunct_rc-adjunct_qt-adjunct-comp-adjunct-comp
p2670
I452
sVconjunct-obj_th-conjunct-adjunct-comp-adjunct
p2671
I727
sVadjunct-conjunct-refl
p2672
I773
sVadjunct-comp-obj
p2673
I207
sVcomp-comp_fin-pd
p2674
I933
sVconjunct-obj-conjunct-obj
p2675
I84
sVadjunct-comp-comp_fin-subj
p2676
I607
sVconjunct-obj_th-comp-comp_fin-comp_inf-adjunct
p2677
I389
sVcomp_fin-subj-adjunct-subj-adjunct
p2678
I885
sVroot-comp_fin-obj_th-comp
p2679
I632
sVsubj-adjunct_rc
p2680
I688
sVobj_th-adjunct
p2681
I110
sVsubj-conjunct-comp
p2682
I1052
sVobj-pd-comp
p2683
I515
sVobj-conjunct-subj-adjunct
p2684
I875
sVsubj-adjunct-abbrev_punct-conjunct
p2685
I1154
sVconjunct-comp_fin-subj-adjunct
p2686
I319
sVroot-comp_fin-subj-punct
p2687
I144
sVconjunct-subj-app-ne
p2688
I154
sVcomp-adjunct-comp_inf-obj
p2689
I1003
sVsubj-comp
p2690
I123
sVadjunct-comp_fin-adjunct
p2691
I245
sVmwe-comp-adjunct-comp-adjunct_rc-adjunct_qt-adjunct
p2692
I475
sVconjunct
p2693
I4
sVadjunct_qt
p2694
I239
sVcomp-subj-adjunct
p2695
I749
sVadjunct-comp-adjunct_rc-subj
p2696
I482
sVadjunct_qt-adjunct
p2697
I234
sVmwe-comp-adjunct-comp-adjunct_rc-punct
p2698
I498
sVcomp_fin-comp_inf-adjunct_compar-comp_fin-subj-punct
p2699
I1111
sVadjunct-adjunct_rc-adjunct-comp
p2700
I835
sVcomp_inf-obj-adjunct-mwe-comp
p2701
I1006
sVadjunct_qt-comp_inf-comp-adjunct
p2702
I385
sVcomp_fin-comp_inf-obj
p2703
I399
sVcomp_fin-adjunct-mwe
p2704
I626
sVconjunct-comp_inf-comp-conjunct-punct
p2705
I316
sVcomp-adjunct-aux
p2706
I755
sVpd-adjunct-comp-adjunct-ne
p2707
I1023
sVsubj-comp-comp_fin-conjunct-adjunct
p2708
I24
sVroot-comp-adjunct
p2709
I855
sVsubj-conjunct-adjunct-ne
p2710
I844
sVcomp-adjunct-comp-adjunct-comp-adjunct
p2711
I618
sVobj_th-adjunct-subj-adjunct
p2712
I438
sVconjunct-comp_fin-obj
p2713
I689
sVconjunct-adjunct-comp-adjunct-comp-abbrev_punct
p2714
I1217
sVadjunct-obj_th-adjunct-comp-adjunct-comp-obj-adjunct-comp-adjunct
p2715
I430
sVcomp-adjunct-comp_inf-adjunct-mwe
p2716
I1005
sVmwe-comp-adjunct-comp-adjunct_rc
p2717
I483
sVadjunct-conjunct
p2718
I90
sVmwe-comp-obj
p2719
I761
sVconjunct-adjunct-comp-comp_fin-conjunct-comp-obj_th-adjunct-comp
p2720
I186
sVobj-adjunct-aux
p2721
I580
sVcomp_fin-obj_th-comp-adjunct-punct
p2722
I623
sVobj_th-adjunct-obj
p2723
I815
sVadjunct-pd-adjunct
p2724
I212
sVsubj-adjunct-conjunct-pd-adjunct-comp
p2725
I736
sVcomp_inf-comp-comp_fin-subj-adjunct_rc-punct-conjunct-pd-comp
p2726
I1180
sVsubj-comp-comp_fin
p2727
I10
sVcomp_fin-pd-mwe
p2728
I142
sVadjunct-subj-conjunct-obj_th
p2729
I1050
sVmwe-app-conjunct-adjunct-punct
p2730
I562
sVobj_th-adjunct-comp_ag-comp-adjunct
p2731
I113
sVapp-adjunct_rc
p2732
I830
sVsubj-adjunct-subj
p2733
I250
sVadjunct_rc-adjunct_qt-adjunct-comp-adjunct
p2734
I507
sVconjunct-adjunct-subj-adjunct
p2735
I192
sVsubj-adjunct-subj-conjunct-subj-adjunct_rc-adjunct-conjunct
p2736
I1057
sVconjunct-comp_inf-obj-adjunct
p2737
I81
sVcomp_inf-comp-comp_fin-subj-comp-adjunct
p2738
I1179
sVadjunct-comp-adjunct-comp-obj-adjunct
p2739
I437
sVadjunct_rc-adjunct-conjunct
p2740
I1072
sVmwe-comp-adjunct-comp-adjunct_rc-adjunct_qt-adjunct-comp
p2741
I469
sVconjunct-subj-comp
p2742
I1140
sVconjunct-comp_fin-adjunct-comp-adjunct-comp
p2743
I1119
sVadjunct-punct-root
p2744
I351
sVsubj-conjunct-subj-adjunct_rc-punct
p2745
I1035
sVadjunct-obj-adjunct
p2746
I255
sVcomp-adjunct-comp-ne
p2747
I942
sVadjunct_compar
p2748
I257
sVobj_th-adjunct-punct
p2749
I266
sVsubj-adjunct-comp-ne
p2750
I530
sVadjunct_rc-subj-adjunct
p2751
I687
sVsubj-adjunct-conjunct-pd-adjunct
p2752
I742
sVadjunct-subj-conjunct-subj-adjunct_rc
p2753
I1027
sVcomp_fin-subj-adjunct-conjunct-adjunct-conjunct-adjunct
p2754
I1114
sVsubj-adjunct-adjunct_compar-mwe-adjunct
p2755
I566
sVconjunct-app-punct
p2756
I959
sVcomp_fin-obj-adjunct-comp-comp_inf-adjunct
p2757
I702
sVobj-adjunct_compar
p2758
I1018
sVcomp-adjunct-comp-adjunct
p2759
I518
sVconjunct-subj-adjunct_rc-comp-comp_fin-adjunct-comp
p2760
I1065
sVadjunct-obj-adjunct-conjunct-refl
p2761
I777
sVadjunct_rc-comp-adjunct
p2762
I502
sVconjunct-comp_inf-comp-conjunct-comp_fin-aux
p2763
I310
sVadjunct-comp-comp_fin
p2764
I95
sVconjunct-obj-adjunct-comp
p2765
I166
sVobj-adjunct
p2766
I80
sVcomp_fin-subj-comp
p2767
I775
sVobj-app
p2768
I831
sVobj-adjunct-conjunct-refl
p2769
I772
sVcomp-adjunct-comp-obj-adjunct-comp
p2770
I443
sVadjunct-comp_inf-adjunct
p2771
I848
sVadjunct_qt-comp-adjunct-conjunct-adjunct
p2772
I238
sVsubj-comp-adjunct-comp
p2773
I420
sVsubj-adjunct_rc-punct
p2774
I685
sVcomp_inf-obj-adjunct_rc
p2775
I575
sVadjunct_rc-adjunct_qt-adjunct-comp-adjunct-comp-adjunct-comp
p2776
I459
sVcomp_inf-obj-adjunct-mwe-comp-adjunct
p2777
I1011
sVconjunct-pd-adjunct-comp-adjunct
p2778
I747
sVadjunct-obj-adjunct-conjunct-adjunct-mwe-comp-obj
p2779
I764
sVadjunct-comp_fin-adjunct-comp_fin
p2780
I273
sVcomp-adjunct-obj
p2781
I1077
sVconjunct-comp_inf-comp
p2782
I336
sVcomp-comp_ag-comp
p2783
I537
sVadjunct-comp-abbrev_punct
p2784
I377
sVcomp_fin-adjunct-comp-adjunct-comp-adjunct
p2785
I1101
sVobj_th-adjunct-obj-adjunct-conjunct-refl
p2786
I776
sVadjunct-comp-adjunct-comp-abbrev_punct
p2787
I1216
sVsubj-adjunct-conjunct-adjunct
p2788
I735
sVcomp_inf-obj_th-adjunct-obj-adjunct-conjunct-obj-adjunct
p2789
I766
sVadjunct-comp-conjunct
p2790
I260
sVadjunct-comp-comp_inf-adjunct
p2791
I718
sVpunct-subj-adjunct
p2792
I215
sVsubj-obj
p2793
I824
sVadjunct_compar-mwe-adjunct
p2794
I565
sVobj_th-punct
p2795
I37
sVcomp_fin-obj-adjunct-comp-comp_inf-obj-adjunct-comp_ag-comp
p2796
I697
sVsubj-adjunct_rc-adjunct-conjunct
p2797
I1071
sVadjunct-subj-adjunct-punct
p2798
I573
sVadjunct_qt-comp_fin-subj
p2799
I328
sVsubj-adjunct-comp-adjunct
p2800
I194
sVconjunct-comp_fin-conjunct-adjunct
p2801
I969
sVsubj-adjunct-subj-adjunct
p2802
I886
sVobj-comp-adjunct
p2803
I660
sVsubj-adjunct-neg
p2804
I1157
sVobj-adjunct-comp-comp_fin-comp_inf-adjunct
p2805
I603
sVcomp_inf-obj
p2806
I400
sVconjunct-subj-app
p2807
I153
sVconjunct-adjunct-comp_fin-subj-adjunct_rc-comp
p2808
I1150
sVcomp_inf-comp-adjunct
p2809
I384
sVcomp-comp_fin-comp_inf-aux
p2810
I794
sVobj-adjunct-comp-comp_fin
p2811
I594
sVpd-adjunct_compar-comp
p2812
I980
sVcomp_fin-subj
p2813
I137
sVadjunct-app-adjunct
p2814
I358
sVconjunct-comp-comp_fin-comp
p2815
I1169
sVsubj-adjunct-punct
p2816
I343
sVadjunct-conjunct-adjunct-comp_fin-conjunct-adjunct_rc-punct
p2817
I910
sVadjunct-mwe-comp-abbrev_punct
p2818
I63
sVmwe-comp_fin-pd-mwe-adjunct_rc-punct
p2819
I124
sVconjunct-comp_fin-conjunct-comp
p2820
I964
sVcomp-comp_fin-adjunct-comp_fin
p2821
I284
sVadjunct-comp-comp_fin-pd-conjunct-aglt
p2822
I929
sVadjunct-comp-app
p2823
I675
sVadjunct-obj_th-adjunct-subj
p2824
I426
sVadjunct-comp_inf-adjunct-comp-adjunct
p2825
I847
sVadjunct-comp_fin-adjunct-comp_fin-subj
p2826
I298
sVcomp-adjunct-comp-adjunct_rc
p2827
I484
sVadjunct-comp-adjunct_compar-comp
p2828
I648
sVconjunct-comp_fin-comp_inf-comp
p2829
I1118
sVobj-adjunct-comp_ag-comp-adjunct
p2830
I899
sVcomp_fin-adjunct-comp
p2831
I278
sVsubj-adjunct-mwe-subj-mwe-comp
p2832
I558
sVcomp-adjunct_rc-subj-adjunct
p2833
I1151
sVsubj-adjunct_rc-subj-adjunct
p2834
I686
sVobj-comp_fin-adjunct-punct
p2835
I949
sVobj-adjunct-conjunct
p2836
I160
sVadjunct-mwe-comp-adjunct
p2837
I19
sVcomp-conjunct-abbrev_punct
p2838
I174
sVcomp_inf-obj_th
p2839
I634
sVconjunct-pd-root
p2840
I261
sVconjunct-comp-comp_ag-comp
p2841
I536
sVconjunct-subj-adjunct-comp
p2842
I533
sVpunct-root-adjunct-app-punct
p2843
I352
sVadjunct-comp-comp_fin-obj
p2844
I103
sVcomp-comp_fin-obj
p2845
I104
sVcomp_inf-comp-comp_fin-subj-adjunct_rc-pd
p2846
I1174
sVobj-adjunct-comp-comp_fin-comp_inf-adjunct-comp
p2847
I601
sVadjunct-pd-comp-adjunct
p2848
I326
sVcomp-adjunct-comp-adjunct-mwe-conjunct
p2849
I1163
sVcomp_fin-conjunct-punct
p2850
I297
sVroot-comp_fin-subj-adjunct
p2851
I149
sVcomp_fin-subj-adjunct
p2852
I139
sVcomp-conjunct-ne
p2853
I678
sVobj-conjunct-refl
p2854
I868
sVobj-adjunct-conjunct-adjunct-mwe-comp-obj
p2855
I765
sVconjunct-adjunct-comp_inf-conjunct-adjunct
p2856
I1194
sVcomp_inf-comp-conjunct-comp_fin-subj-adjunct
p2857
I320
sVapp-adjunct-punct
p2858
I753
sVcomp_fin-comp_inf-obj_th-adjunct-obj-adjunct-conjunct-adjunct-mwe-comp-obj
p2859
I809
sVadjunct_compar-comp_fin-aux
p2860
I1127
sVcomp_fin-comp_inf-adjunct-comp
p2861
I597
sVsubj-adjunct-comp-adjunct-app-punct
p2862
I569
sVsubj-conjunct-comp-adjunct
p2863
I1033
sVadjunct-mwe-comp
p2864
I27
sVobj_th-adjunct-comp-adjunct-comp-obj-adjunct
p2865
I436
sVcomp-comp_fin-conjunct-obj_th-punct
p2866
I52
sVcomp_fin-conjunct-adjunct-mwe-comp
p2867
I47
sVadjunct-subj-conjunct-comp-adjunct
p2868
I1032
sVadjunct-punct-root-adjunct-app-punct
p2869
I350
sVcomp_inf-comp-comp_fin-adjunct
p2870
I1086
sVadjunct-comp-adjunct_compar
p2871
I259
sVconjunct-comp-adjunct-comp-ne
p2872
I943
sVconjunct-adjunct-subj-punct
p2873
I191
sVadjunct-comp-conjunct-adjunct-comp
p2874
I986
sVconjunct-comp
p2875
I3
sVapp-adjunct-mwe
p2876
I88
sVcomp_fin-comp_inf-aux
p2877
I795
sVcomp_inf-obj_th-adjunct-obj-adjunct
p2878
I791
sVcomp_fin-comp-adjunct
p2879
I970
sVconjunct-obj_th-comp-punct
p2880
I398
sVcomp-adjunct-comp-adjunct_rc-adjunct_qt-adjunct-comp-adjunct
p2881
I467
sVconjunct-comp_inf-comp-comp_fin-refl
p2882
I1080
sVcomp-comp_fin-adjunct-comp
p2883
I1068
sVadjunct_qt-subj-ne
p2884
I232
sVadjunct-conjunct-ne-adjunct
p2885
I850
sVconjunct-obj_th-adjunct-conjunct-adjunct
p2886
I861
sVobj-conjunct-adjunct-obj
p2887
I665
sVpd-adjunct-ne
p2888
I380
sVcomp-comp_fin-adjunct
p2889
I96
sVadjunct-comp-adjunct_rc-subj-adjunct
p2890
I1152
sVconjunct-ne-adjunct
p2891
I851
sVcomp_inf-root-refl
p2892
I645
sVadjunct-comp_inf-conjunct-comp
p2893
I1201
sVobj-app-punct
p2894
I832
sVadjunct-comp-comp_fin-pd
p2895
I932
sVsubj-adjunct-subj-conjunct-subj-adjunct_rc-adjunct
p2896
I1045
sVsubj-adjunct-subj-comp
p2897
I1093
sVne-adjunct-app-punct
p2898
I1078
sVconjunct-subj-adjunct-comp-adjunct
p2899
I818
sVcomp-adjunct-punct
p2900
I202
sVconjunct-comp_fin
p2901
I315
sVconjunct-pd-adjunct-conjunct
p2902
I368
sVsubj-adjunct_rc-pd
p2903
I1172
sVne-conjunct
p2904
I330
sVcomp-obj-adjunct-comp
p2905
I441
sVconjunct-adjunct-ne
p2906
I843
sVadjunct-comp-comp_fin-comp_inf-obj
p2907
I606
sVconjunct-obj-adjunct-obj_th
p2908
I1096
sVconjunct-comp_inf-comp-comp_fin-comp
p2909
I1085
sVcomp_inf-conjunct
p2910
I1198
sVadjunct-comp-adjunct_rc-adjunct
p2911
I510
sVconjunct-obj_th-comp-comp_fin-refl
p2912
I414
sVcomp_fin-adjunct-comp_fin-adjunct-comp_fin
p2913
I294
sVpunct-subj-adjunct-pd
p2914
I216
sVobj-adjunct-ne
p2915
I668
sVsubj-comp-comp_fin-conjunct
p2916
I38
sVpd-adjunct_compar-comp-adjunct
p2917
I982
sVcomp-comp_fin-obj-adjunct
p2918
I106
sVabbrev_punct-conjunct
p2919
I1155
sVobj_th-conjunct
p2920
I243
sVcomp_inf-obj_th-adjunct-obj-adjunct-conjunct-obj
p2921
I786
sVconjunct-obj-conjunct-adjunct
p2922
I82
sVconjunct-item
p2923
I224
sVconjunct-refl
p2924
I222
sVadjunct-subj-adjunct-comp
p2925
I344
sVsubj-conjunct
p2926
I846
sVmwe-comp-obj-adjunct
p2927
I805
sVadjunct-comp_ag-comp
p2928
I696
sVsubj-app-adjunct-mwe-comp
p2929
I86
sVsubj-adjunct
p2930
I71
sVcomp_inf-root-adjunct-comp-punct
p2931
I641
sVcomp_fin-adjunct-comp_fin-adjunct-comp
p2932
I276
sVmwe-subj-mwe-app-conjunct-adjunct-punct
p2933
I561
sVcomp_fin-adjunct-comp_fin-subj
p2934
I268
sVadjunct
p2935
I1
sVsubj-adjunct-conjunct-punct
p2936
I863
sVconjunct-pd-adjunct
p2937
I225
sVcomp_ag-punct
p2938
I422
sVcomp-conjunct-subj
p2939
I529
sVconjunct-adjunct-comp-adjunct_rc-comp
p2940
I1141
sVcomp_fin-obj-adjunct-comp-comp_inf-comp-adjunct-abbrev_punct
p2941
I708
sVconjunct-comp_fin-neg
p2942
I1107
sVobj_th-adjunct-comp-conjunct
p2943
I988
sVapp-punct
p2944
I74
sVcomp_ag-comp-adjunct
p2945
I112
sVpd-adjunct-comp-ne
p2946
I379
sVobj-comp_fin-adjunct
p2947
I944
sVcomp-adjunct-subj-adjunct
p2948
I615
sVadjunct-comp_fin-subj-adjunct-conjunct
p2949
I864
sVcomp_inf-obj_th-adjunct-obj-adjunct-conjunct-adjunct-mwe-comp-obj
p2950
I762
sVcomp_fin-comp
p2951
I578
sVsubj-adjunct-mwe-subj-mwe-app-conjunct-adjunct-punct
p2952
I568
sVadjunct-conjunct-comp_fin-comp-adjunct
p2953
I974
sVcomp-ne-comp
p2954
I339
sVcomp_inf-adjunct_compar
p2955
I1105
sVcomp_inf-obj-conjunct-comp
p2956
I637
sVmwe-comp
p2957
I25
sVadjunct-punct
p2958
I92
sVadjunct-comp_fin-adjunct-punct
p2959
I282
sVadjunct-conjunct-comp_fin-conjunct-subj
p2960
I977
sVobj-adjunct-obj_th-adjunct
p2961
I1020
sVroot-refl
p2962
I643
sVcomp-adjunct-comp-obj-adjunct
p2963
I433
sVsubj-comp-ne-abbrev_punct
p2964
I360
sVobj-adjunct-conjunct-adjunct-mwe
p2965
I780
sVconjunct-pd-adjunct-comp
p2966
I738
sVcomp-adjunct-comp-adjunct_rc-punct
p2967
I499
sVcomp_inf-pd
p2968
I520
sVconjunct-comp_inf-aux
p2969
I1099
sVadjunct-subj-adjunct-comp-adjunct
p2970
I177
sVadjunct-obj-adjunct-comp
p2971
I549
sVobj_th-adjunct-obj-adjunct-conjunct-adjunct-mwe
p2972
I811
sVconjunct-obj_th-comp-comp_fin-adjunct
p2973
I405
sVobj_th-comp-comp_fin-adjunct
p2974
I402
sVadjunct-aux
p2975
I756
sVcomp_fin
p2976
I6
sVmwe-subj-mwe
p2977
I559
sVcomp-comp_fin-adjunct-comp_fin-adjunct-comp_fin-adjunct-punct
p2978
I280
sVcomp-adjunct-mwe-conjunct
p2979
I1165
sVconjunct-obj-adjunct-comp-conjunct
p2980
I365
sVadjunct-subj-conjunct-comp
p2981
I1051
sVconjunct-adjunct-comp_inf-conjunct-comp
p2982
I1187
sVadjunct_rc
p2983
I487
sVadjunct-comp-comp_fin-comp_inf-adjunct-comp
p2984
I599
sVconjunct-comp-adjunct-comp
p2985
I1168
sVcomp_inf-conjunct-adjunct-obj-adjunct
p2986
I1197
sVcomp-adjunct-conjunct-adjunct-comp_inf-obj_th-adjunct
p2987
I1138
sVcomp_inf-comp-comp_fin-subj-adjunct
p2988
I1175
sVsubj-conjunct-ne
p2989
I1075
sVconjunct-adjunct-comp_fin
p2990
I915
sVcomp_inf-aux
p2991
I792
sVsubj-adjunct-subj-conjunct-comp
p2992
I1053
sVadjunct-subj-adjunct-subj-comp
p2993
I574
sVcomp_fin-adjunct-pd
p2994
I958
sVcomp_fin-comp_inf-adjunct
p2995
I409
sVobj-adjunct-comp
p2996
I102
sVobj-comp_fin-subj-adjunct-comp
p2997
I947
sVadjunct_rc-adjunct_qt-adjunct-comp
p2998
I474
sVconjunct-obj-adjunct-conjunct
p2999
I570
sVcomp-comp_fin-conjunct-adjunct-comp-adjunct
p3000
I295
sVobj-adjunct-comp_inf-obj-conjunct-comp
p3001
I635
sVadjunct-pd
p3002
I218
sVconjunct-adjunct-comp_inf-conjunct-subj
p3003
I1192
sVobj_th-adjunct-comp-conjunct-adjunct
p3004
I997
sVconjunct-adjunct-comp_fin-subj-adjunct-conjunct-punct
p3005
I866
sVmwe-comp-adjunct-comp-adjunct_rc-comp-adjunct
p3006
I495
sVadjunct-adjunct_qt-obj-adjunct-adjunct_rc-adjunct-comp
p3007
I838
sVconjunct-subj-app-adjunct
p3008
I418
sVpd-comp-obj-adjunct-conjunct
p3009
I158
sVadjunct_compar-comp-adjunct
p3010
I651
sVconjunct-adjunct-comp-adjunct
p3011
I272
sVcomp_inf-comp-punct
p3012
I1081
sVcomp_fin-obj-adjunct-comp-comp_inf-obj
p3013
I691
sVadjunct-comp-conjunct-adjunct-conjunct
p3014
I992
sVsubj-app-ne
p3015
I151
sVcomp-adjunct_rc-comp-adjunct-comp
p3016
I508
sVconjunct-obj-adjunct-comp-adjunct-mwe
p3017
I671
sVcomp-conjunct-adjunct-comp-adjunct
p3018
I994
sVobj-adjunct-app-punct
p3019
I1025
sVcomp_fin-comp_inf-obj-adjunct
p3020
I592
sVadjunct-obj-adjunct-punct
p3021
I664
sVadjunct-comp-comp_inf-obj
p3022
I714
sVsubj-adjunct-comp-adjunct-app
p3023
I567
sVcomp-adjunct_compar-comp-adjunct
p3024
I650
sVsubj-conjunct-subj-adjunct_rc
p3025
I1028
sVpunct-root
p3026
I353
sVconjunct-comp_fin-obj-adjunct-obj-conjunct-adjunct
p3027
I724
sVcomp-comp_fin-comp_inf-obj_th-adjunct-obj-adjunct-conjunct-adjunct-mwe-comp-obj-adjunct
p3028
I806
sVcomp-adjunct-ne
p3029
I557
sVadjunct-comp_fin-comp
p3030
I579
sVcomp-comp_fin-comp_inf-obj_th-adjunct-obj-adjunct-conjunct-obj
p3031
I790
sVadjunct-ne
p3032
I150
sVconjunct-subj
p3033
I68
sVadjunct-comp_inf-conjunct-adjunct
p3034
I1188
sVcomp-adjunct_compar-comp
p3035
I649
sVconjunct-adjunct-comp-adjunct-obj-adjunct-comp-adjunct
p3036
I898
sVadjunct-mwe-comp-obj
p3037
I760
sVcomp-comp_fin-comp
p3038
I1084
sVconjunct-comp_inf
p3039
I301
sVcomp_inf-adjunct_compar-comp_fin-subj-adjunct-conjunct
p3040
I1125
sVobj_th-adjunct-comp_ag
p3041
I114
sVsubj-adjunct-comp-adjunct-comp-adjunct
p3042
I877
sVconjunct-comp_fin-obj-adjunct-comp
p3043
I694
sVadjunct-comp_fin-adjunct-comp_fin-adjunct
p3044
I290
sVcomp-app
p3045
I676
sVadjunct_rc-adjunct_qt-adjunct
p3046
I453
sVcomp_fin-conjunct-comp
p3047
I201
sVsubj-conjunct-subj-adjunct_rc-adjunct
p3048
I1044
sVcomp_inf-obj_th-adjunct
p3049
I798
sVconjunct-subj-adjunct-obj-conjunct-obj
p3050
I1092
sVadjunct_rc-obj
p3051
I823
sVcomp-adjunct-mwe
p3052
I620
sVobj_th-comp-comp_fin
p3053
I393
sVobj-adjunct-comp-comp_fin-comp_inf
p3054
I596
sVconjunct-comp_fin-comp_inf-adjunct_compar-comp_fin-subj-adjunct-conjunct
p3055
I1124
sVadjunct-obj-adjunct-obj
p3056
I551
sVcomp_fin-comp_inf-adjunct-comp-adjunct
p3057
I610
sVadjunct-adjunct_qt-obj
p3058
I836
sVadjunct-comp-adjunct-punct
p3059
I203
sVadjunct-adjunct_rc
p3060
I840
sVcomp-adjunct_rc-comp-adjunct
p3061
I501
sVroot-comp-adjunct-punct
p3062
I859
sVsubj-adjunct-mwe
p3063
I228
sVconjunct-comp-obj
p3064
I543
sVroot-comp-punct
p3065
I857
sVadjunct-root-comp-adjunct
p3066
I856
sVcomp_ag-comp-app-punct
p3067
I679
sVobj_th-comp-comp_fin-refl
p3068
I412
sVadjunct-comp-adjunct_rc-adjunct_qt-adjunct-comp-adjunct-comp
p3069
I456
sVcomp_fin-obj-adjunct-abbrev_punct
p3070
I723
sVcomp-adjunct-app-adjunct-comp-adjunct
p3071
I554
sVadjunct-subj-conjunct
p3072
I1029
sVconjunct-aux
p3073
I381
sVcomp-comp_fin-adjunct-comp_fin-adjunct-comp_fin-adjunct
p3074
I287
sVadjunct-comp_fin-pd
p3075
I244
sVroot-neg
p3076
I961
sVconjunct-adjunct-mwe-comp
p3077
I26
sVadjunct-comp-adjunct-comp-adjunct
p3078
I517
sVsubj-punct
p3079
I73
sVadjunct-comp-conjunct-comp-ne
p3080
I983
sVconjunct-adjunct-mwe
p3081
I345
sVadjunct-comp-ne
p3082
I162
sVadjunct-root-comp-adjunct-punct
p3083
I860
sVroot-adjunct-comp-adjunct_compar-comp-adjunct
p3084
I652
sVobj-punct
p3085
I206
sVsubj-adjunct-subj-conjunct-adjunct-mwe-comp
p3086
I938
sVcomp_inf-adjunct-obj-adjunct
p3087
I658
sVadjunct-comp-comp_fin-conjunct-neg
p3088
I195
sVcomp_fin-subj-punct
p3089
I146
sVcomp_fin-adjunct-comp_fin-adjunct
p3090
I289
sVadjunct-comp_fin-subj
p3091
I242
sVadjunct-abbrev_punct-conjunct
p3092
I1156
sVconjunct-adjunct-comp-adjunct-obj-adjunct
p3093
I894
sVcomp_fin-adjunct-pd-adjunct
p3094
I954
sVsubj-conjunct-subj-adjunct
p3095
I1040
sVsubj-adjunct-conjunct-pd-adjunct-comp-adjunct
p3096
I743
sVadjunct-comp_fin-subj-adjunct
p3097
I862
sVcomp_inf-comp-conjunct-punct
p3098
I317
sVcomp-adjunct_rc-adjunct
p3099
I511
sVconjunct-adjunct-punct
p3100
I346
sVcomp_fin-conjunct-subj
p3101
I29
sVadjunct_qt-comp-adjunct-conjunct
p3102
I235
sVcomp-adjunct-comp-adjunct_rc-comp-adjunct
p3103
I496
sVabbrev_punct
p3104
I66
sVobj-conjunct-ne
p3105
I169
sVmwe-comp_fin-neg
p3106
I132
sVcomp
p3107
I5
sVobj-comp
p3108
I333
sVcomp-obj-adjunct
p3109
I415
sVconjunct-comp_inf-comp-comp_fin
p3110
I1089
sVadjunct-obj_th
p3111
I656
sVconjunct-adjunct-comp-ne
p3112
I672
sVpd-adjunct-comp
p3113
I448
sVconjunct-comp-adjunct-comp_inf-obj
p3114
I1004
sVcomp_fin-comp_inf-obj_th-adjunct-obj-adjunct-conjunct-obj
p3115
I784
sVcomp_inf-obj-adjunct-mwe
p3116
I1013
sVobj_th-comp-comp_fin-comp_inf-obj
p3117
I404
sVcomp_inf-conjunct-subj
p3118
I1193
sVsubj-adjunct_rc-comp-comp_fin-adjunct
p3119
I1069
sVadjunct-conjunct-comp_fin-obj
p3120
I972
sVcomp_inf-root-adjunct-comp
p3121
I639
sVobj-app-adjunct_rc-punct
p3122
I821
sVadjunct-comp-conjunct-adjunct
p3123
I256
sVconjunct-adjunct-comp_inf-conjunct-adjunct-obj
p3124
I1203
sVconjunct-comp_inf-comp-conjunct-comp_fin
p3125
I312
sVsubj-comp-punct
p3126
I44
sVadjunct-app
p3127
I556
sVmwe-comp_fin-pd-mwe
p3128
I141
sVcomp_fin-adjunct-comp_fin-adjunct-comp_fin-adjunct
p3129
I288
sVadjunct-adjunct_rc-adjunct-comp-ne
p3130
I837
sVsubj-adjunct-pd
p3131
I217
sVadjunct-mwe-comp-obj-adjunct
p3132
I804
sVobj_th-comp-punct
p3133
I394
sVadjunct-comp-comp_fin-comp_inf-obj-adjunct
p3134
I590
sVconjunct-obj_th-adjunct-comp-adjunct
p3135
I226
sVsubj-adjunct-abbrev_punct
p3136
I516
sVadjunct_compar-punct
p3137
I1015
sVconjunct-adjunct-obj-adjunct-comp
p3138
I548
sVcomp-comp_inf-comp-adjunct-abbrev_punct
p3139
I709
sVadjunct-comp_inf-obj
p3140
I849
sVadjunct-comp_inf-obj-conjunct-comp
p3141
I636
sVadjunct-subj-conjunct-subj-adjunct_rc-adjunct-conjunct
p3142
I1058
sVconjunct-comp_fin-adjunct-comp-adjunct
p3143
I1116
sVadjunct-comp-comp_inf-comp-adjunct-abbrev_punct
p3144
I712
sVconjunct-obj-adjunct-subj
p3145
I1095
sVcomp-comp_fin-conjunct-neg
p3146
I197
sVsubj-conjunct-adjunct
p3147
I845
sVsubj-comp-comp_fin-conjunct-adjunct-comp
p3148
I43
sVcomp_inf-comp-comp_fin-subj-comp
p3149
I1178
sVcomp-comp_fin-comp_inf
p3150
I397
sVconjunct-comp_fin-conjunct-subj
p3151
I978
sVconjunct-app
p3152
I960
sVadjunct-comp-adjunct_rc-adjunct_qt-adjunct
p3153
I503
sVobj_th-adjunct-conjunct
p3154
I264
sVadjunct-subj-conjunct-subj
p3155
I1048
sVobj_th-ne
p3156
I940
sVadjunct-comp-comp_fin-adjunct
p3157
I98
sVadjunct-comp-adjunct_rc
p3158
I485
sVcomp_inf-conjunct-adjunct-obj
p3159
I1204
sVobj-adjunct-comp-comp_fin-subj
p3160
I608
sVobj-app-adjunct_rc-subj
p3161
I827
sVconjunct-comp_fin-obj-adjunct-abbrev_punct
p3162
I721
sVcomp_inf-pd-adjunct-punct
p3163
I521
sVconjunct-adjunct-comp_fin-subj-adjunct_rc-adjunct
p3164
I1146
sVadjunct_rc-refl
p3165
I1210
sVobj-mwe
p3166
I322
sVconjunct-comp_fin-conjunct-subj-adjunct
p3167
I976
sVconjunct-subj-comp-comp_fin-conjunct-obj_th-punct
p3168
I50
sVcomp-comp_fin-comp_inf-obj_th-adjunct-obj-adjunct
p3169
I816
sVcomp_inf-comp-comp_fin-comp
p3170
I1082
sVcomp-comp_fin-conjunct-adjunct-mwe-comp
p3171
I46
sVadjunct-comp_fin-adjunct-comp_fin-adjunct-punct
p3172
I283
sVcomp-comp_ag
p3173
I534
sVpd
p3174
I129
sVpunct-subj-adjunct-pd-adjunct
p3175
I210
sVobj_th-comp-comp_fin-comp_inf
p3176
I396
sVsubj-adjunct-subj-conjunct-subj
p3177
I1047
sVconjunct-adjunct-conjunct
p3178
I906
sVsubj-adjunct-obj
p3179
I677
sVconjunct-comp_ag-comp-adjunct
p3180
I193
sVcomp_inf-comp-conjunct-comp_fin
p3181
I313
sVmwe-comp_fin-pd
p3182
I125
sVcomp_fin-obj-adjunct
p3183
I107
sVcomp-adjunct_rc-adjunct_qt-adjunct-comp-adjunct-comp
p3184
I450
sVobj-conjunct-adjunct
p3185
I83
sVmwe-comp-adjunct-comp-adjunct_rc-comp
p3186
I493
sVcomp-adjunct_rc-punct
p3187
I504
sVcomp_fin-adjunct-comp-adjunct
p3188
I1117
sVcomp-adjunct
p3189
I17
sVadjunct-obj_th-adjunct-comp
p3190
I431
sVconjunct-adjunct-comp-adjunct_rc-subj-adjunct
p3191
I1149
sVcomp-adjunct-comp
p3192
I109
sVadjunct_compar-comp-adjunct-comp_ag
p3193
I878
sVroot-adjunct-app-punct
p3194
I354
sVcomp-comp_fin-subj-comp
p3195
I774
sVadjunct-comp-adjunct-comp-adjunct-comp
p3196
I457
sVadjunct-conjunct-pd-adjunct-comp
p3197
I737
sVcomp_inf-comp-adjunct-comp-adjunct
p3198
I705
sVconjunct-comp_fin-obj-adjunct
p3199
I690
sVadjunct-obj-adjunct-comp-adjunct
p3200
I897
sVsubj-comp-comp_fin-conjunct-obj_th-punct
p3201
I51
sVcomp_fin-conjunct-adjunct-comp
p3202
I40
sVadjunct-comp-adjunct_rc-adjunct_qt-adjunct-comp
p3203
I472
sVcomp_inf-comp-conjunct-comp_fin-aux
p3204
I311
sVadjunct-obj_th-adjunct-comp-adjunct-comp-obj-adjunct-comp
p3205
I442
sVobj-adjunct-comp-conjunct-adjunct
p3206
I375
sVsubj-adjunct_rc-adjunct-conjunct-comp
p3207
I1062
sVadjunct_qt-conjunct
p3208
I300
sVadjunct_rc-punct-conjunct-pd-comp
p3209
I1184
sVconjunct-comp_inf-comp-conjunct
p3210
I305
sVcomp-conjunct-comp_fin-aux
p3211
I307
sVconjunct-obj-adjunct-comp-adjunct
p3212
I167
sVobj-adjunct-comp-punct
p3213
I602
sVcomp_inf-comp-comp_fin
p3214
I1088
sVcomp-conjunct
p3215
I251
sVcomp_inf-refl
p3216
I229
sVcomp_fin-comp_inf-obj_th-adjunct-obj-adjunct-conjunct-refl
p3217
I771
sVconjunct-obj_th-adjunct
p3218
I221
sVcomp-comp_fin-conjunct-adjunct
p3219
I271
sVmwe-comp_fin-subj
p3220
I136
sVconjunct-obj_th-comp-comp_fin
p3221
I395
sVadjunct-conjunct-ne
p3222
I332
sVadjunct_rc-punct
p3223
I131
sVcomp_inf-conjunct-comp-adjunct
p3224
I1207
sVcomp-comp_fin-pd-conjunct-obj-ne
p3225
I928
sVpd-root
p3226
I262
sVconjunct-comp_fin-subj
p3227
I303
sVcond
p3228
I57
sVrefl
p3229
I219
sVcomp-adjunct-comp_inf-adjunct
p3230
I998
sVconjunct-comp_fin-adjunct
p3231
I1106
sVcomp_fin-comp_inf
p3232
I391
sVadjunct-comp
p3233
I41
sVadjunct-obj-adjunct-conjunct-obj-adjunct
p3234
I768
sVobj_th-comp
p3235
I410
sVobj-app-adjunct_rc
p3236
I829
sVsubj-adjunct-comp
p3237
I140
sVconjunct-comp-adjunct-comp-adjunct-mwe
p3238
I1161
sVcomp-comp_fin-subj-comp-adjunct
p3239
I800
sVadjunct-subj-conjunct-subj-adjunct_rc-adjunct-conjunct-comp
p3240
I1056
sVadjunct_qt-conjunct-adjunct
p3241
I299
sVadjunct-comp_inf-obj-adjunct
p3242
I1000
sVobj-adjunct_compar-comp-adjunct
p3243
I1017
sVadjunct-comp_ag
p3244
I115
sVadjunct-root
p3245
I572
sVobj_th-adjunct-comp
p3246
I187
sVcomp_inf-comp
p3247
I335
sVobj-app-adjunct_rc-obj
p3248
I825
sVadjunct-comp-adjunct_rc-comp-adjunct-comp
p3249
I492
sVconjunct-comp_fin-obj-adjunct-obj
p3250
I699
sVcomp-comp_inf-obj-adjunct-comp_ag-comp
p3251
I720
sVconjunct-obj-mwe
p3252
I323
sVadjunct-adjunct_compar-comp
p3253
I370
sVcomp-comp_fin-conjunct-adjunct-comp
p3254
I39
sVcomp-comp_fin
p3255
I62
sVconjunct-subj-adjunct_rc-adjunct-conjunct
p3256
I1073
sVcomp-comp_fin-comp_inf-obj_th-adjunct-subj
p3257
I778
sVconjunct-obj_th-comp-comp_fin-comp_inf-obj
p3258
I401
sVconjunct-comp-adjunct-comp-adjunct-mwe-conjunct
p3259
I1162
sVcomp-subj-adjunct-conjunct-adjunct
p3260
I734
sVpd-conjunct
p3261
I1214
sVcomp_fin-pd-conjunct-aglt
p3262
I931
sVconjunct-adjunct-comp-punct
p3263
I901
sVsubj-app-punct
p3264
I72
sVadjunct-conjunct-adjunct-comp_inf-obj_th-adjunct
p3265
I1134
sVcomp-comp_fin-comp_inf-obj_th-adjunct-obj-adjunct-conjunct-adjunct-mwe-comp-obj
p3266
I808
sVadjunct-conjunct-adjunct-mwe-comp-obj
p3267
I758
sVcomp_fin-subj-comp-adjunct
p3268
I785
sVadjunct-comp_fin-subj-adjunct_rc-comp
p3269
I1142
sVadjunct_rc-adjunct-conjunct-comp
p3270
I1063
sVsubj-comp-comp_fin-conjunct-adjunct-mwe-comp-adjunct
p3271
I21
sVconjunct-subj-comp-comp_fin-conjunct-subj
p3272
I31
sVmwe-comp-abbrev_punct
p3273
I64
sVne-adjunct-conjunct
p3274
I853
sVadjunct-app-adjunct-comp-adjunct
p3275
I519
sVcomp-comp_fin-aux
p3276
I584
sVcomp-comp_fin-comp_inf-adjunct-comp-adjunct
p3277
I609
sVcomp_fin-comp_inf-adjunct_compar-comp_fin-aux
p3278
I1128
sVsubj-adjunct-subj-adjunct-comp
p3279
I1159
sVadjunct_rc-subj
p3280
I481
sVobj-adjunct-obj_th-obj
p3281
I119
sVadjunct-mwe-comp-punct
p3282
I1139
sVcomp_fin-obj
p3283
I105
sVcomp-conjunct-obj_th-conjunct-adjunct-comp-adjunct
p3284
I726
sVconjunct-adjunct-conjunct-adjunct-comp-adjunct
p3285
I917
sVconjunct-adjunct-subj
p3286
I182
sVadjunct-mwe-conjunct
p3287
I1166
sVobj-comp_fin-adjunct-subj
p3288
I945
sVobj_th-adjunct-obj-adjunct
p3289
I793
sVobj_th-adjunct-obj-adjunct-conjunct-obj
p3290
I788
sVroot-comp
p3291
I619
sVcomp-adjunct-comp-adjunct_rc-adjunct_qt-adjunct-comp-adjunct-comp-adjunct-comp
p3292
I462
sVcomp-adjunct-comp_inf-obj-adjunct
p3293
I999
sVmwe-comp-adjunct-comp-adjunct_rc-adjunct_qt-adjunct-comp-adjunct-comp
p3294
I454
sVsubj-adjunct-comp-adjunct-punct
p3295
I1098
sVcomp_inf-pd-adjunct-obj-adjunct
p3296
I526
sVadjunct-obj_th-adjunct-comp-adjunct-comp
p3297
I446
sVconjunct-adjunct-comp_fin-conjunct-adjunct-conjunct
p3298
I908
sVconjunct-comp-comp_fin-obj_th
p3299
I872
sVadjunct-comp-adjunct_rc-adjunct_qt
p3300
I512
sVadjunct-comp-adjunct-comp-obj-adjunct-comp-adjunct
p3301
I435
sVconjunct-adjunct-mwe-comp-adjunct
p3302
I18
sVcomp-adjunct-comp-adjunct_rc-adjunct_qt-adjunct
p3303
I477
sVadjunct_qt-subj
p3304
I231
sVpd-adjunct-obj
p3305
I524
sVadjunct-comp-adjunct_rc-punct
p3306
I500
sVadjunct-comp-comp_inf-comp-adjunct-comp-adjunct
p3307
I703
sVcomp-adjunct-subj-adjunct_rc-punct
p3308
I589
sVpd-comp
p3309
I164
sVadjunct-comp_inf-conjunct
p3310
I1200
sVobj-adjunct-subj-adjunct
p3311
I839
sVmwe-adjunct_rc-punct
p3312
I130
sVconjunct-adjunct-comp-comp_fin-conjunct-neg
p3313
I196
sVsubj-conjunct-adjunct-mwe-comp
p3314
I937
sVapp-adjunct_rc-obj
p3315
I826
sVmwe-comp-adjunct-comp-adjunct_rc-comp-adjunct-comp
p3316
I491
sVsubj-adjunct-subj-conjunct
p3317
I1030
sVobj_th-adjunct-obj-adjunct-conjunct-adjunct-mwe-comp-obj
p3318
I763
sVcomp_fin-adjunct-comp-adjunct-comp
p3319
I1120
sVconjunct-aglt
p3320
I926
sVconjunct-adjunct-comp-adjunct-abbrev_punct
p3321
I890
sVadjunct-obj_th-adjunct-comp-adjunct
p3322
I444
sVcomp_fin-conjunct-adjunct-mwe-comp-adjunct
p3323
I15
sVcomp-adjunct-comp-adjunct-comp
p3324
I449
sVobj-adjunct-abbrev_punct
p3325
I722
sVadjunct-subj-conjunct-adjunct
p3326
I1059
sVconjunct-comp_fin-comp_inf-obj_th-adjunct
p3327
I1123
sVcomp-subj-app-adjunct-punct
p3328
I751
sVconjunct-adjunct_rc-punct
p3329
I909
sVobj-comp_fin-punct
p3330
I905
sVsubj-adjunct-subj-conjunct-comp-adjunct
p3331
I1031
sVadjunct-comp_inf
p3332
I371
sVpd-adjunct-comp-abbrev_punct
p3333
I378
sVcomp-adjunct-conjunct
p3334
I89
sVcomp-adjunct-comp-adjunct-aux
p3335
I754
sVconjunct-adjunct-comp_inf
p3336
I364
sVcomp-comp_fin-conjunct-obj
p3337
I13
sVcomp_fin-conjunct
p3338
I34
sVadjunct-conjunct-adjunct-comp-adjunct-conjunct
p3339
I1131
sVcomp_inf-obj-comp_fin-punct
p3340
I904
sVconjunct-comp-adjunct-comp_inf-adjunct-mwe
p3341
I1002
sVadjunct_rc-adjunct
p3342
I148
sVcomp_inf-comp-comp_fin-subj
p3343
I1091
sVadjunct-obj-adjunct-ne
p3344
I666
sVadjunct-comp-adjunct-comp
p3345
I176
sVcomp_fin-obj-adjunct-obj-conjunct-adjunct
p3346
I725
sVpd-mwe
p3347
I143
sVsubj-adjunct-comp-adjunct-comp
p3348
I876
sVcomp_fin-comp_inf-obj_th-adjunct
p3349
I797
sVobj-adjunct-comp-adjunct
p3350
I100
sNI0
sVcomp-comp_fin-comp_inf-obj-adjunct
p3351
I591
sVcomp-comp_fin-adjunct-comp_fin-adjunct
p3352
I291
sVcomp-adjunct-conjunct-adjunct
p3353
I236
sVadjunct_rc-comp
p3354
I490
sVcomp_fin-adjunct-comp_fin-adjunct-comp_fin-subj
p3355
I267
sVobj-conjunct-subj
p3356
I869
sVcomp_fin-comp_inf-adjunct_compar
p3357
I1104
sVadjunct-comp_inf-conjunct-adjunct-obj-adjunct
p3358
I1199
sVapp-adjunct-mwe-comp-adjunct
p3359
I75
sVconjunct-subj-comp-punct
p3360
I54
sVcomp_inf-adjunct-comp_fin-adjunct
p3361
I935
sVcomp_inf-adjunct-obj-comp-adjunct
p3362
I657
sVsubj-adjunct_rc-comp-comp_fin-adjunct-comp
p3363
I1066
sVpd-adjunct-comp-adjunct
p3364
I746
sVobj_th
p3365
I117
sVsubj-adjunct-mwe-subj-mwe
p3366
I563
sVcomp-app-punct
p3367
I680
sVadjunct_rc-adjunct_qt
p3368
I514
sVcomp-comp_inf-obj
p3369
I715
sVadjunct-comp_fin-adjunct-comp
p3370
I277
sVconjunct-adjunct-punct-root
p3371
I355
sVcomp_fin-adjunct-comp_fin-adjunct-comp_fin-adjunct-punct
p3372
I279
sVadjunct-subj-conjunct-subj-adjunct
p3373
I1039
sVcomp-comp_fin-comp_inf-obj
p3374
I403
sVobj-adjunct-comp_ag-comp
p3375
I698
sVconjunct-comp_ag
p3376
I178
sVcomp-comp_fin-adjunct-comp_fin-adjunct-comp_fin
p3377
I293
sVadjunct-comp-adjunct-mwe
p3378
I673
sVcomp-comp_fin-subj-adjunct_rc-punct-conjunct-pd-comp
p3379
I1181
sVconjunct-adjunct-comp-adjunct-comp
p3380
I1218
sVpd-conjunct-obj-ne
p3381
I923
sVadjunct_qt-neg
p3382
I388
sVconjunct-neg
p3383
I199
sVcomp_ag-comp-app-ne
p3384
I683
sVcomp_inf-pd-adjunct-subj
p3385
I525
sVpd-comp-abbrev_punct
p3386
I363
sVadjunct_compar-comp_fin-subj-adjunct-conjunct-adjunct-conjunct
p3387
I1109
sVadjunct-comp-comp_fin-comp_inf
p3388
I595
sVcomp_fin-adjunct-punct
p3389
I286
sVconjunct-subj-adjunct_rc-adjunct
p3390
I1042
sVadjunct-comp-adjunct-obj-adjunct-comp
p3391
I889
sVadjunct-mwe
p3392
I55
sVcomp-adjunct-obj-adjunct
p3393
I893
sVconjunct-adjunct-comp_inf-obj_th-adjunct
p3394
I1135
sVcomp-ne-abbrev_punct
p3395
I362
sVcomp_inf-adjunct-punct
p3396
I820
sVmwe-comp-adjunct-comp-ne
p3397
I1010
sVadjunct-comp_fin-aux
p3398
I424
sVmwe-subj-mwe-comp
p3399
I560
sVpd-conjunct-aglt
p3400
I924
sVcomp-comp_fin-comp_inf-adjunct
p3401
I408
sVobj_th-conjunct-adjunct-comp-adjunct
p3402
I728
sVobj-comp_fin
p3403
I950
sVadjunct-comp-adjunct-obj
p3404
I1076
sVobj-adjunct_rc
p3405
I576
sVconjunct-adjunct-mwe-comp-abbrev_punct
p3406
I67
sVcomp-conjunct-adjunct-comp
p3407
I987
sVconjunct-subj-comp-comp_fin-conjunct
p3408
I32
sVcomp_fin-adjunct-comp-adjunct-comp-adjunct-comp
p3409
I1122
sVcomp-punct
p3410
I45
sVadjunct-comp_fin-refl
p3411
I248
sVadjunct_rc-pd-conjunct
p3412
I1213
sVconjunct-adjunct-mwe-comp-obj
p3413
I759
sVadjunct-obj_th-adjunct-subj-adjunct
p3414
I439
sVconjunct-adjunct-comp_fin-subj-adjunct
p3415
I867
sVroot-subj
p3416
I963
sVapp-adjunct_rc-punct
p3417
I819
sVconjunct-subj-adjunct_rc-punct
p3418
I1034
sVconjunct-adjunct-adjunct_compar-comp
p3419
I369
sVcomp_fin-conjunct-obj_th-punct
p3420
I49
sVcomp_inf-obj-adjunct_rc-subj
p3421
I577
sVcomp-adjunct_rc-adjunct_qt-adjunct-comp-adjunct-comp-adjunct-comp
p3422
I458
sVadjunct-comp_fin-punct
p3423
I246
sVadjunct-comp-adjunct_compar-comp-adjunct
p3424
I653
sVobj-adjunct_compar-punct
p3425
I1016
sVobj-adjunct-comp-comp_fin-comp_inf-obj
p3426
I605
sVadjunct-pd-adjunct-comp
p3427
I447
sVadjunct_qt-comp-adjunct
p3428
I230
sVconjunct-comp-punct
p3429
I874
sVcomp_fin-aux
p3430
I308
sVmwe-comp_fin
p3431
I145
sVsubj-adjunct-subj-conjunct-obj_th
p3432
I1049
sVobj-adjunct-mwe-comp
p3433
I1007
sVobj
p3434
I8
sVsubj-adjunct_rc-adjunct
p3435
I1043
sVadjunct-comp-adjunct-ne
p3436
I1024
sVobj_th-adjunct-comp-conjunct-comp-ne
p3437
I995
sVobj-conjunct-subj-adjunct-comp
p3438
I532
sVcomp_fin-adjunct-comp_fin-adjunct-comp_fin-adjunct-comp
p3439
I275
sVobj_th-adjunct-subj
p3440
I425
sVpd-adjunct
p3441
I213
sVcomp_inf-root-adjunct-comp-adjunct_compar-comp
p3442
I646
sVconjunct-comp-comp_ag-comp-adjunct
p3443
I541
sVcomp_fin-comp_inf-obj_th-adjunct-obj-adjunct-conjunct-adjunct-mwe-comp-obj-adjunct
p3444
I807
sVcomp-abbrev_punct
p3445
I65
sVcomp_fin-subj-adjunct_rc-comp
p3446
I1143
sVmwe-conjunct
p3447
I1167
sVadjunct-comp_fin-subj-adjunct-subj-adjunct
p3448
I884
sVobj-adjunct-mwe
p3449
I586
sVsubj-comp-ne
p3450
I359
sVroot-adjunct-comp
p3451
I640
sVadjunct_rc-comp-comp_fin-adjunct
p3452
I1070
sVcomp-comp_fin-conjunct-cond
p3453
I59
sVcomp_fin-pd
p3454
I127
sVconjunct-adjunct-conjunct-adjunct
p3455
I571
sVcomp-comp_fin-refl
p3456
I413
sVobj-comp_fin-obj
p3457
I952
sVcomp-adjunct_rc-adjunct_qt-adjunct-comp
p3458
I473
sVsubj-adjunct-subj-conjunct-subj-adjunct
p3459
I1038
sVconjunct-adjunct-mwe-comp-obj-adjunct
p3460
I803
sVcomp-conjunct-comp-ne
p3461
I984
sVadjunct_qt-adjunct-comp-conjunct
p3462
I419
sVconjunct-subj-comp-comp_fin-conjunct-obj
p3463
I11
sVcomp-subj-adjunct-conjunct-pd-adjunct
p3464
I748
sVconjunct-obj-adjunct-punct
p3465
I1097
sVconjunct-adjunct-comp_inf-conjunct-comp-adjunct
p3466
I1206
sVsubj
p3467
I30
sVobj-comp_fin-subj-adjunct
p3468
I951
sVcomp-obj_th-adjunct-comp
p3469
I184
sVadjunct-conjunct-adjunct-mwe
p3470
I781
sVroot-punct
p3471
I962
sVcomp-adjunct-comp-adjunct_rc-subj
p3472
I478
sVsubj-adjunct-pd-adjunct
p3473
I211
sVadjunct-comp-adjunct_rc-comp-adjunct
p3474
I494
sVobj-adjunct-comp-comp_fin-comp_inf-obj-adjunct
p3475
I593
sVcomp_fin-conjunct-neg
p3476
I198
sVobj-conjunct-adjunct-punct
p3477
I669
sVcomp_inf-adjunct-mwe
p3478
I1001
sVobj-conjunct
p3479
I172
sVcomp-adjunct-comp-obj-adjunct-comp-adjunct
p3480
I427
sVobj_th-adjunct-comp-conjunct-adjunct-conjunct
p3481
I991
sVobj-adjunct-obj-conjunct-adjunct
p3482
I692
sVobj-adjunct-mwe-comp-adjunct
p3483
I585
sVconjunct-adjunct-comp-adjunct-obj-adjunct-comp
p3484
I888
sVcomp-mwe-comp
p3485
I1219
sVadjunct-conjunct-comp
p3486
I921
sVconjunct-adjunct-comp_inf-conjunct
p3487
I1196
sVne-punct
p3488
I348
sVcomp_inf-comp-adjunct-abbrev_punct
p3489
I707
sVcomp-adjunct-abbrev_punct
p3490
I700
sVconjunct-comp_fin-adjunct-comp
p3491
I1102
sVadjunct-conjunct-obj-mwe
p3492
I324
sVobj-adjunct-comp-comp_fin-comp_inf-adjunct-comp-adjunct
p3493
I612
sVcomp_fin-obj-adjunct-obj
p3494
I701
sVadjunct_rc-pd
p3495
I1173
sVadjunct-comp-adjunct
p3496
I99
sVadjunct-conjunct-comp_fin-comp
p3497
I973
sVobj-adjunct-comp-adjunct-mwe
p3498
I670
sVadjunct-comp_fin-subj-adjunct-neg
p3499
I883
sVobj-comp_fin-adjunct-subj-comp
p3500
I955
sVpd-comp-adjunct
p3501
I327
sVcomp_fin-subj-adjunct_rc-pd
p3502
I1177
sVcomp-subj-adjunct-conjunct-pd
p3503
I731
sVcomp_fin-comp_inf-obj_th-adjunct-obj-adjunct
p3504
I810
sVconjunct-adjunct-conjunct-comp-obj
p3505
I544
sVadjunct-comp_inf-obj_th-adjunct
p3506
I1136
sVroot-comp_fin-adjunct-mwe
p3507
I624
sVcomp_fin-obj_th
p3508
I870
sVcomp-comp_fin-conjunct
p3509
I33
sVobj-conjunct-comp
p3510
I638
sVcomp_fin-conjunct-obj
p3511
I7
sVcomp_fin-pd-conjunct-obj-ne
p3512
I930
sVconjunct-adjunct
p3513
I22
sVadjunct-comp-ne-comp
p3514
I340
sVsubj-adjunct-ne
p3515
I528
sVcomp-comp_fin-comp_inf-obj_th-adjunct
p3516
I796
sVadjunct-comp-adjunct-mwe-conjunct
p3517
I1164
sVadjunct-conjunct-pd
p3518
I733
sVcomp-obj
p3519
I209
sVcomp_inf-obj-adjunct-mwe-comp-adjunct-comp-ne
p3520
I1008
sVconjunct-subj-ne
p3521
I227
sVadjunct-conjunct-adjunct-conjunct-adjunct-punct
p3522
I911
sVadjunct-comp-obj-adjunct
p3523
I417
sVsubj-app
p3524
I70
sVcomp-conjunct-comp_fin
p3525
I314
sVconjunct-adjunct-obj-adjunct-ne
p3526
I667
sVcomp-obj-adjunct-conjunct
p3527
I159
sVconjunct-comp-comp_fin-comp_inf-obj
p3528
I1022
sVcomp_inf-conjunct-comp
p3529
I1185
sVobj-comp_fin-adjunct-pd
p3530
I957
sVobj_th-adjunct-comp-adjunct-comp-obj-adjunct-comp-adjunct
p3531
I434
sVsubj-adjunct-subj-conjunct-subj-adjunct_rc-adjunct-conjunct-comp
p3532
I1055
sVadjunct-conjunct-adjunct-comp_fin-conjunct-adjunct_rc-comp_inf-obj-comp_fin-punct
p3533
I912
sVobj-adjunct_compar-comp
p3534
I1021
sVadjunct-subj-conjunct-subj-adjunct_rc-punct
p3535
I1037
sVapp-adjunct-comp-adjunct
p3536
I553
sVcomp_fin-adjunct
p3537
I97
sVadjunct_qt-comp_inf
p3538
I387
sVcomp-comp_fin-conjunct-adjunct-mwe-comp-adjunct
p3539
I14
sVcomp_inf-comp-comp_fin-adjunct-comp
p3540
I1171
sVsubj-adjunct_rc-adjunct-comp
p3541
I1054
sVobj_th-adjunct-obj-adjunct-conjunct-obj-adjunct
p3542
I767
sVadjunct-conjunct-pd-adjunct-comp-adjunct
p3543
I745
sVcomp_fin-obj_th-comp
p3544
I631
sVadjunct-neg
p3545
I1158
sVne-adjunct
p3546
I852
sVapp-adjunct
p3547
I78
sVmwe-comp-adjunct-comp-adjunct_rc-adjunct_qt-adjunct-comp-adjunct-comp-adjunct-comp
p3548
I460
sVadjunct-comp-comp_fin-obj-adjunct
p3549
I108
sVobj-adjunct-comp-comp_inf-adjunct
p3550
I717
sVadjunct-comp_inf-conjunct-comp-adjunct
p3551
I1208
sVcomp_inf-pd-adjunct
p3552
I522
sVconjunct-comp-comp_fin
p3553
I873
sVconjunct-ne
p3554
I170
sVne
p3555
I118
sVcomp-comp_fin-adjunct-comp_fin-adjunct-punct
p3556
I292
sVcomp_inf-obj-adjunct-comp_ag-comp
p3557
I706
sVcomp-adjunct-comp-adjunct_rc-comp
p3558
I497
sVadjunct-subj-conjunct-adjunct-mwe-comp
p3559
I939
sVcomp_inf-adjunct-obj-comp
p3560
I661
sVcomp-adjunct-app
p3561
I555
sVconjunct-comp_inf-comp-comp_fin-subj
p3562
I1090
sVadjunct-comp-comp_fin-comp_inf-obj_th-adjunct
p3563
I799
sVcomp_fin-obj_th-comp-adjunct
p3564
I629
sVcomp_ag-adjunct
p3565
I1153
sVcomp_inf-comp-conjunct
p3566
I306
sVadjunct_qt-adjunct-comp-adjunct-comp-adjunct-comp
p3567
I464
sVadjunct-abbrev_punct
p3568
I204
sVconjunct-comp_ag-comp
p3569
I181
sVconjunct-adjunct-conjunct-comp
p3570
I920
sVcomp_inf-pd-adjunct-obj
p3571
I523
sVobj_th-adjunct-comp-adjunct
p3572
I445
sVaglt
p3573
I383
sVobj-ne
p3574
I205
sVobj-comp_fin-adjunct-pd-adjunct
p3575
I953
sVconjunct-adjunct_rc-pd-conjunct
p3576
I1212
sVcomp_fin-comp_inf-adjunct_compar-comp_fin-subj-adjunct-conjunct
p3577
I1110
sVadjunct_compar-comp-adjunct-mwe
p3578
I879
sVadjunct-comp-adjunct-obj-adjunct
p3579
I892
sVsubj-adjunct-conjunct
p3580
I740
sVcomp_inf-obj_th-adjunct-obj
p3581
I814
sVcomp-comp_fin-subj-adjunct
p3582
I1014
sVadjunct-comp-comp_fin-subj-comp-adjunct
p3583
I801
sVcomp_fin-subj-adjunct-subj-punct
p3584
I881
sVadjunct_qt-adjunct-comp-adjunct
p3585
I468
sVcomp-comp_fin-comp_inf-obj_th-adjunct-obj-adjunct-conjunct-refl
p3586
I770
sVobj-app-adjunct
p3587
I822
sVmwe-adjunct_rc-adjunct
p3588
I147
sVobj-adjunct-comp-conjunct
p3589
I366
sVobj_th-adjunct-comp-conjunct-adjunct-comp
p3590
I985
sVcomp_fin-pd-adjunct-ne
p3591
I674
sVcomp_inf-comp-comp_fin-refl
p3592
I1079
sVcomp_fin-subj-adjunct_rc-punct-conjunct-pd-comp
p3593
I1182
sVconjunct-comp_fin-conjunct-adjunct-comp
p3594
I965
sVcomp_fin-pd-mwe-adjunct_rc-punct
p3595
I126
sVobj-adjunct-obj_th
p3596
I1019
sVapp-ne-adjunct
p3597
I854
sVadjunct-conjunct-adjunct-conjunct-adjunct-comp-adjunct
p3598
I918
sVadjunct-conjunct-adjunct-conjunct-comp
p3599
I919
sVcomp-subj
p3600
I750
ssVannotation
p3601
(dp3602
Vstate#head%
p3603
I1
sVstate%
p3604
I11
sVaction#head%
p3605
I2
sVi_state%
p3606
I10
sS'n/a'
p3607
I0
sVreporting#head%
p3608
I5
sVi_state#head%
p3609
I6
sVaspectual#head%
p3610
I3
sVi_action#head%
p3611
I4
sVaction%
p3612
I9
sVlight_predicate#head%
p3613
I8
sVperception#head%
p3614
I7
ssVdependency_path_to
p3615
(dp3616
ss.