(dp0
S'labels_index'
p1
(dp2
Vloc
p3
I3
sVben
p4
I2
sS'n/a'
p5
I0
sVag
p6
I1
ssS'indexed_features'
p7
(dp8
Vtoken_type
p9
(dp10
S'to'
p11
I2
sS'from'
p12
I1
sS'n/a'
p13
I0
ssS'dependency_path_short'
p14
(dp15
S''
p16
I9
sVmwe-comp-punct
p17
I762
sVadjunct-conjunct-aux
p18
I1328
sVobj-pd
p19
I595
sVobj_th-obj
p20
I127
sVadjunct-subj
p21
I124
sVadjunct-conjunct-adjunct-punct
p22
I1101
sVcomp_fin-neg
p23
I137
sVmwe
p24
I15
sVaux
p25
I94
sVsubj-comp-comp_fin-conjunct-obj
p26
I56
sVconjunct-comp_fin-adjunct-punct
p27
I1175
sVcomp-adjunct-pd-adjunct
p28
I707
sVobj_th-adjunct-comp-adjunct-comp
p29
I526
sVroot-adjunct-comp-punct
p30
I781
sVapp-ne-app-adjunct-app-adjunct-conjunct-adjunct_qt-punct
p31
I984
sVcomp_ag-comp-adjunct-comp-adjunct
p32
I817
sVadjunct-pd-adjunct
p33
I246
sVne-abbrev_punct
p34
I13
sVobj-comp_fin-subj
p35
I1143
sVpunct-mwe
p36
I638
sVcomp_fin-subj-comp
p37
I904
sVpd-root-conjunct-adjunct_rc-punct
p38
I308
sVadjunct-comp-app
p39
I809
sVsubj-adjunct-subj-conjunct-adjunct
p40
I1131
sVcomp-adjunct-comp-adjunct-mwe-conjunct
p41
I1373
sVcomp_fin-conjunct-comp-conjunct
p42
I1172
sVconjunct-cond
p43
I37
sVmwe-comp-adjunct-mwe
p44
I761
sVcomp_fin-subj-adjunct-comp
p45
I155
sVadjunct-conjunct-adjunct-ne
p46
I1445
sVconjunct-adjunct-comp-adjunct-obj-adjunct-comp-adjunct
p47
I1073
sVadjunct-app-punct
p48
I612
sVconjunct-adjunct-comp-adjunct_rc
p49
I1347
sVadjunct-conjunct-adjunct-comp-ne
p50
I674
sVneg
p51
I139
sVcomp_inf-comp-comp_fin-subj-adjunct
p52
I1384
sVconjunct-comp-adjunct-comp-ne
p53
I1135
sVcomp-adjunct_compar-comp-adjunct
p54
I788
sVcomp_fin-obj-adjunct-comp-comp_inf-comp-adjunct-comp-adjunct
p55
I831
sVadjunct_rc-punct-conjunct-pd-comp
p56
I1396
sVadjunct_qt-adjunct-conjunct-ne
p57
I995
sVcomp-adjunct-comp-abbrev_punct
p58
I1432
sVne-app-adjunct-app-adjunct-conjunct-adjunct_qt-adjunct-conjunct-punct
p59
I1003
sVcomp-comp_fin-comp_inf-obj_th-adjunct-obj-adjunct-conjunct-adjunct-mwe
p60
I927
sVcomp-comp_ag
p61
I623
sVcomp-adjunct-comp-adjunct-conjunct-adjunct
p62
I670
sVobj-adjunct-conjunct-obj-adjunct
p63
I898
sVconjunct-obj_th-punct
p64
I39
sVsubj-adjunct-refl
p65
I950
sVpd-adjunct-conjunct
p66
I438
sVroot-comp
p67
I760
sVconjunct-adjunct_rc-punct
p68
I310
sVcomp-comp_fin-obj_th
p69
I1049
sVsubj-adjunct-subj-punct
p70
I1065
sVadjunct-obj-conjunct
p71
I186
sVconjunct-adjunct-comp_ag-comp-adjunct
p72
I278
sVsubj-adjunct-conjunct-pd
p73
I863
sVadjunct_rc-adjunct-conjunct-comp
p74
I1257
sVadjunct-app-adjunct-conjunct-adjunct_qt-adjunct-conjunct-ne
p75
I996
sVcomp_inf
p76
I260
sVadjunct-obj-comp
p77
I799
sVobj-adjunct-mwe-comp-adjunct-comp-ne
p78
I1213
sVcomp_fin-conjunct-adjunct
p79
I53
sVadjunct-comp-obj-adjunct-comp-adjunct
p80
I515
sVadjunct-comp_fin
p81
I292
sVcomp-comp_fin-comp_inf-obj_th-adjunct-obj-adjunct-conjunct-refl
p82
I914
sVsubj-adjunct_rc-adjunct-ne
p83
I1140
sVadjunct-app-adjunct-punct
p84
I419
sVcomp-adjunct-aux-neg
p85
I756
sVconjunct-adjunct-comp-adjunct-conjunct-adjunct-comp_inf-obj_th-adjunct-conjunct-comp-adjunct-comp
p86
I1331
sVadjunct-conjunct-comp_fin-adjunct-comp-adjunct
p87
I1162
sVconjunct-obj-adjunct-conjunct-adjunct
p88
I181
sVadjunct_rc-comp_inf-obj-comp_fin
p89
I1090
sVpd-mwe-adjunct_rc-punct
p90
I145
sVcomp_inf-obj-adjunct
p91
I84
sVconjunct-subj-comp-comp_fin-conjunct-adjunct
p92
I54
sVroot
p93
I307
sVadjunct_compar-comp
p94
I436
sVcomp-adjunct_rc-comp
p95
I573
sVobj-adjunct-punct
p96
I103
sVcomp_fin-punct
p97
I299
sVcomp_inf-adjunct-comp-adjunct
p98
I754
sVcomp_inf-adjunct
p99
I470
sVsubj-app-adjunct-mwe-comp-adjunct
p100
I74
sVadjunct-obj
p101
I129
sVadjunct-comp-conjunct-comp
p102
I196
sVapp-adjunct-app-adjunct
p103
I1010
sVconjunct-comp-adjunct-comp-adjunct-mwe
p104
I1369
sVconjunct-subj-comp-comp_fin-conjunct-adjunct-mwe-comp-adjunct
p105
I26
sVcomp-obj-adjunct-comp-adjunct
p106
I516
sVne-app-adjunct-app-adjunct-conjunct-adjunct_qt-adjunct-conjunct-ne
p107
I993
sVmwe-adjunct-punct-mwe
p108
I636
sVadjunct-comp-adjunct-ne
p109
I1337
sVconjunct-adjunct-comp_fin-adjunct
p110
I1023
sVmwe-comp-adjunct-comp
p111
I564
sVmwe-comp-adjunct
p112
I31
sVadjunct-conjunct-obj
p113
I407
sVcomp_inf-aux
p114
I912
sVconjunct-obj_th-comp-comp_fin-comp_inf-adjunct
p115
I456
sVsubj-adjunct-abbrev_punct-conjunct
p116
I1357
sVsubj-comp
p117
I122
sVadjunct-comp_fin-adjunct
p118
I297
sVadjunct_qt-adjunct-comp-conjunct
p119
I495
sVadjunct_qt
p120
I268
sVadjunct-comp-adjunct-obj
p121
I1075
sVcomp_fin-comp_inf-obj
p122
I468
sVsubj-adjunct-obj
p123
I818
sVadjunct-adjunct_qt-comp
p124
I960
sVobj_th-adjunct-obj-adjunct-conjunct
p125
I901
sVadjunct-conjunct-comp-adjunct
p126
I192
sVmwe-comp-adjunct-comp-adjunct_rc
p127
I568
sVconjunct-adjunct-comp-comp_fin-conjunct-comp-obj_th-adjunct-comp
p128
I221
sVobj-adjunct-aux
p129
I958
sVcomp_inf-comp-comp_fin-subj-adjunct_rc-punct-conjunct-pd-comp
p130
I1392
sVapp-adjunct_rc
p131
I944
sVadjunct_rc-adjunct_qt-adjunct-comp-adjunct
p132
I549
sVadjunct-adjunct_qt-obj-adjunct-aux
p133
I957
sVsubj-conjunct-subj-adjunct_rc-punct
p134
I1244
sVadjunct_rc-pd-conjunct-adjunct
p135
I1427
sVobj_th-adjunct-punct
p136
I318
sVconjunct-app-punct
p137
I406
sVcomp-conjunct-comp
p138
I198
sVcomp_fin-adjunct-ne
p139
I1043
sVcomp_fin-pd-mwe-adjunct_rc-adjunct
p140
I136
sVconjunct-comp_inf-comp-conjunct-comp_fin-aux
p141
I356
sVapp-adjunct-conjunct-adjunct_qt-adjunct-conjunct
p142
I1006
sVobj-adjunct
p143
I76
sVconjunct-comp_fin-comp_inf-adjunct_compar
p144
I1298
sVmwe-adjunct-punct
p145
I598
sVadjunct-obj-adjunct-conjunct-refl
p146
I910
sVconjunct-adjunct-comp-adjunct-conjunct-adjunct-comp_inf-obj_th-adjunct
p147
I1330
sVcomp_inf-obj-adjunct_rc
p148
I694
sVadjunct_rc-adjunct_qt-adjunct-comp-adjunct-comp-adjunct-comp
p149
I545
sVadjunct-obj-adjunct-conjunct-adjunct-mwe-comp-obj
p150
I889
sVsubj-adjunct-subj-conjunct-subj-adjunct_rc-adjunct-conjunct-comp
p151
I1255
sVadjunct-comp-abbrev_punct
p152
I445
sVconjunct-ne-abbrev_punct
p153
I532
sVsubj-adjunct-conjunct-adjunct
p154
I868
sVcomp-mwe-comp
p155
I1433
sVadjunct-comp-comp_inf-adjunct
p156
I841
sVpunct-subj-adjunct
p157
I240
sVconjunct-adjunct-comp-comp_fin-conjunct-subj
p158
I223
sVadjunct_compar-mwe-adjunct
p159
I648
sVadjunct-subj-adjunct-punct
p160
I685
sVcomp_fin-comp_inf-obj_th-adjunct-obj-adjunct-conjunct
p161
I926
sVapp-ne-app-adjunct-app-adjunct-conjunct-adjunct_qt-adjunct-conjunct-ne
p162
I992
sVsubj-adjunct-subj-adjunct
p163
I1067
sVcomp-adjunct-comp_ag-comp-adjunct
p164
I1057
sVadjunct-conjunct-adjunct-comp_fin-conjunct-adjunct_rc-punct
p165
I1094
sVcomp-adjunct-comp-adjunct-mwe
p166
I1368
sVmwe-comp_fin-pd-mwe-adjunct_rc-punct
p167
I143
sVadjunct-comp-comp_inf-obj-adjunct-comp_ag-comp
p168
I846
sVsubj-conjunct-adjunct-mwe-comp-obj
p169
I1130
sVpd-comp-abbrev_punct
p170
I430
sVconjunct-subj-adjunct-comp
p171
I383
sVcomp-subj-adjunct-conjunct-pd-adjunct-comp
p172
I866
sVadjunct_qt-conjunct-punct
p173
I384
sVadjunct-adjunct_qt-adjunct
p174
I951
sVadjunct-aux
p175
I210
sVapp-adjunct-punct
p176
I610
sVcomp-adjunct-comp-adjunct-conjunct-adjunct-comp
p177
I666
sVcomp_inf-comp-comp_fin-adjunct
p178
I1280
sVconjunct-comp
p179
I21
sVapp-adjunct-mwe
p180
I80
sVconjunct-comp_inf-comp-comp_fin-refl
p181
I1269
sVconjunct-comp_inf-comp-comp_fin-comp-adjunct
p182
I1273
sVconjunct-ne-adjunct
p183
I982
sVadjunct-comp-comp_fin-pd
p184
I1117
sVne-adjunct-app-punct
p185
I1266
sVapp-ne-app-adjunct-app-adjunct-conjunct-adjunct_qt-adjunct-conjunct
p186
I1008
sVadjunct-comp-comp_fin-comp_inf-obj
p187
I749
sVcomp_inf-conjunct
p188
I1408
sVcomp-comp_fin-pd-conjunct-obj-ne
p189
I1115
sVsubj-adjunct-conjunct-app-punct
p190
I935
sVconjunct-comp_inf-comp-adjunct
p191
I1293
sVadjunct-conjunct-adjunct-conjunct-adjunct-punct
p192
I1098
sVconjunct-obj_th-adjunct
p193
I257
sVne-adjunct-comp-ne
p194
I288
sVadjunct-subj-adjunct-comp
p195
I417
sVconjunct-adjunct-comp-adjunct-comp-abbrev_punct
p196
I1431
sVcomp_ag-punct
p197
I505
sVconjunct-comp_fin-neg
p198
I1296
sVapp-punct
p199
I73
sVsubj-adjunct-mwe-subj-mwe-app-conjunct-adjunct-punct
p200
I645
sVadjunct-adjunct_rc-adjunct
p201
I956
sVpd-adjunct
p202
I242
sVadjunct-conjunct-subj-ne
p203
I387
sVobj-adjunct-obj_th-adjunct
p204
I1223
sVroot-refl
p205
I783
sVapp-adjunct-conjunct-adjunct_qt
p206
I1013
sVroot-adjunct-comp_fin-subj
p207
I771
sVcomp_inf-pd
p208
I613
sVadjunct-subj-adjunct-comp-adjunct
p209
I215
sVconjunct-obj_th-comp-comp_fin-adjunct
p210
I471
sVcomp-conjunct-obj_th-conjunct
p211
I859
sVpd-adjunct-comp-mwe
p212
I1199
sVconjunct-obj-adjunct-comp-conjunct
p213
I434
sVadjunct-comp-comp_fin-comp_inf-adjunct-comp
p214
I740
sVcomp-conjunct-adjunct-conjunct-adjunct
p215
I1189
sVadjunct-pd
p216
I173
sVadjunct-app-adjunct-comp
p217
I608
sVobj-conjunct-pd-adjunct
p218
I1046
sVobj_th-adjunct-comp-conjunct-adjunct
p219
I1193
sVadjunct_compar-comp-adjunct
p220
I782
sVconjunct-adjunct-comp-adjunct
p221
I271
sVconjunct-obj-adjunct-comp-adjunct-mwe
p222
I806
sVadjunct-comp-comp_inf-obj
p223
I839
sVapp-ne-app-adjunct-app-adjunct
p224
I1011
sVcomp_fin-refl
p225
I296
sVcomp-adjunct-comp-adjunct-conjunct-adjunct-comp-ne
p226
I669
sVconjunct-adjunct-conjunct-adjunct-conjunct
p227
I1319
sVapp-adjunct-abbrev_punct
p228
I990
sVadjunct-ne
p229
I159
sVcomp-adjunct_compar-comp
p230
I784
sVadjunct-mwe-comp-obj
p231
I892
sVcomp-comp_fin-comp
p232
I1272
sVobj_th-adjunct-comp_ag
p233
I121
sVcomp-app
p234
I810
sVadjunct_rc-adjunct_qt-adjunct
p235
I550
sVconjunct-comp_fin-conjunct-adjunct
p236
I1167
sVobj-adjunct-comp-comp_fin
p237
I735
sVadjunct-conjunct-adjunct-comp
p238
I677
sVroot-comp-adjunct-punct
p239
I1020
sVcomp_fin-subj-adjunct-conjunct-punct
p240
I1026
sVadjunct-subj-conjunct
p241
I1246
sVcomp-comp_fin-adjunct-comp_fin-adjunct-comp_fin-adjunct
p242
I333
sVadjunct-comp_fin-pd
p243
I294
sVapp-adjunct-comp-adjunct-obj_th-adjunct-root-subj-punct
p244
I485
sVadjunct_compar-comp_fin-subj-adjunct-conjunct-adjunct-conjunct-adjunct
p245
I1305
sVadjunct-punct-mwe
p246
I637
sVcomp_inf-adjunct_compar
p247
I1307
sVobj_th-comp-comp_fin-adjunct
p248
I469
sVobj-punct
p249
I236
sVcomp_fin-subj-punct
p250
I154
sVsubj-app-adjunct-mwe
p251
I91
sVobj-adjunct-conjunct-adjunct
p252
I178
sVobj_th-comp-comp_fin-comp_inf-obj
p253
I480
sVcomp-adjunct_rc-adjunct
p254
I563
sVabbrev_punct
p255
I8
sVobj-conjunct-ne
p256
I184
sVmwe-comp_fin-neg
p257
I152
sVadjunct-comp_fin-subj-adjunct
p258
I1025
sVcomp-comp_fin-comp_inf-comp-adjunct
p259
I394
sVcomp-adjunct-comp-adjunct-mwe-conjunct-ne
p260
I1378
sVadjunct-obj_th-adjunct-punct
p261
I525
sVobj-app-adjunct_rc-punct
p262
I941
sVcomp-conjunct-adjunct-conjunct-ne
p263
I1182
sVadjunct-adjunct_rc-adjunct-comp-ne
p264
I953
sVcomp_inf-obj-adjunct-mwe-comp-adjunct-comp
p265
I1209
sVsubj-adjunct-abbrev_punct
p266
I596
sVcomp-comp_inf-comp-adjunct-abbrev_punct
p267
I838
sVcomp_fin-conjunct-adjunct-mwe
p268
I17
sVcomp-adjunct-conjunct
p269
I95
sVcomp_inf-comp-comp_fin-subj-comp
p270
I1387
sVapp-ne-app-adjunct-app-adjunct-conjunct-adjunct_qt
p271
I1014
sVadjunct-conjunct-adjunct_qt-adjunct-conjunct-punct
p272
I1004
sVconjunct-comp_fin-obj-adjunct-abbrev_punct
p273
I851
sVconjunct-comp_fin-obj-adjunct-comp-comp_inf-comp-adjunct-comp-adjunct
p274
I832
sVadjunct_qt-adjunct-comp-conjunct-ne
p275
I499
sVcomp_fin-adjunct-comp-adjunct
p276
I1161
sVadjunct_qt-adjunct-comp-conjunct-app
p277
I494
sVcomp_fin-comp_ag-comp
p278
I511
sVconjunct-obj-adjunct-comp-adjunct
p279
I180
sVcomp-conjunct
p280
I189
sVcomp-conjunct-obj-conjunct-subj-adjunct-comp
p281
I621
sVcomp-abbrev_punct
p282
I63
sVmwe-comp_fin-subj
p283
I141
sVcond
p284
I33
sVadjunct-adjunct_compar
p285
I1030
sVsubj-adjunct-comp
p286
I156
sVmwe-adjunct_compar
p287
I603
sVadjunct-comp_fin-subj-adjunct_rc-comp
p288
I1343
sVcomp_inf-comp
p289
I388
sVconjunct-obj-mwe
p290
I376
sVcomp-comp_fin
p291
I104
sVconjunct-refl
p292
I202
sVcomp_fin-comp_inf-comp-adjunct-comp-adjunct
p293
I393
sVconjunct-adjunct-comp-adjunct-comp-adjunct-comp_ag
p294
I1440
sVsubj-adjunct_rc-subj-adjunct
p295
I820
sVadjunct-conjunct-adjunct-comp_fin-conjunct-adjunct_rc-comp_inf-obj-comp_fin
p296
I1096
sVcomp-subj-adjunct-conjunct-pd-adjunct-comp-adjunct
p297
I871
sVobj-comp_fin-adjunct-subj
p298
I1153
sVroot-neg
p299
I1155
sVmwe-adjunct
p300
I601
sVsubj-adjunct-comp-adjunct-punct
p301
I1290
sVcomp-adjunct-comp-adjunct_rc-adjunct_qt-adjunct
p302
I560
sVpd-adjunct-obj
p303
I446
sVpd-comp
p304
I176
sVconjunct-adjunct-comp-adjunct-abbrev_punct
p305
I1071
sVsubj-conjunct-subj-adjunct
p306
I1250
sVcomp-conjunct-adjunct-comp
p307
I1196
sVcomp-comp_fin-conjunct-obj
p308
I23
sVadjunct_qt-conjunct-ne-abbrev_punct
p309
I531
sVadjunct_rc-adjunct
p310
I134
sVapp-adjunct_rc-obj
p311
I938
sVobj-adjunct-comp-adjunct
p312
I99
sVcomp-comp_fin-adjunct-comp_fin-adjunct
p313
I338
sVcomp-adjunct-conjunct-adjunct
p314
I265
sVcomp_fin-subj-adjunct-conjunct-ne
p315
I1028
sVconjunct-comp-ne
p316
I1186
sVapp-adjunct-mwe-comp-adjunct
p317
I79
sVadjunct-conjunct-comp_fin-conjunct-adjunct
p318
I1166
sVne-app-adjunct-app-adjunct-conjunct-adjunct_qt-punct
p319
I985
sVsubj-comp-comp_fin-conjunct-cond
p320
I58
sVcomp_fin-adjunct-comp_fin-adjunct-comp_fin-adjunct-punct
p321
I348
sVcomp-comp_fin-comp_inf-obj
p322
I481
sVpd-conjunct-adjunct
p323
I1422
sVcomp-comp_fin-subj-adjunct_rc
p324
I1388
sVadjunct_qt-neg
p325
I453
sVcomp-comp_fin-adjunct-subj
p326
I1215
sVconjunct-comp-comp_fin-subj-adjunct
p327
I1089
sVadjunct-mwe-comp-punct
p328
I193
sVobj-comp_fin
p329
I1092
sVadjunct-comp-adjunct-pd
p330
I711
sVsubj-comp-comp_fin-conjunct-adjunct-mwe-comp-abbrev_punct
p331
I67
sVsubj-adjunct-comp-adjunct-comp-ne
p332
I641
sVobj-adjunct-ne-adjunct
p333
I704
sVadjunct-comp-adjunct_compar-comp-adjunct
p334
I787
sVobj-adjunct_compar-punct
p335
I1220
sVconjunct-subj-comp-adjunct
p336
I1340
sVmwe-conjunct-ne
p337
I1367
sVobj-adjunct-mwe-comp
p338
I723
sVobj
p339
I24
sVcomp_fin-adjunct-comp_fin-adjunct-comp_fin-adjunct-comp
p340
I332
sVobj_th-adjunct-subj
p341
I523
sVcomp-adjunct-conjunct-adjunct-comp
p342
I676
sVsubj-adjunct-conjunct-adjunct-comp
p343
I880
sVcomp_fin-subj-adjunct_rc-comp
p344
I1342
sVadjunct-comp-adjunct-conjunct-adjunct-conjunct-comp
p345
I656
sVadjunct-comp_fin-subj-adjunct-subj-adjunct
p346
I1062
sVroot-adjunct-comp
p347
I1338
sVcomp_fin-pd
p348
I153
sVconjunct-adjunct-conjunct-adjunct
p349
I681
sVcomp-adjunct-obj_th-adjunct-root-subj-punct
p350
I484
sVobj-comp_fin-adjunct
p351
I1144
sVsubj
p352
I5
sVobj-comp_fin-subj-adjunct
p353
I1146
sVobj-adjunct-comp-comp_fin-comp_inf-adjunct
p354
I746
sVcomp-adjunct-comp-obj-adjunct-comp-adjunct
p355
I514
sVadjunct-conjunct-comp_fin-adjunct-comp
p356
I1159
sVcomp_fin-comp_inf-adjunct_compar-comp_fin-aux
p357
I1318
sVne-app-adjunct-abbrev_punct
p358
I989
sVadjunct-ne-abbrev_punct
p359
I759
sVcomp_fin-obj_th
p360
I1032
sVcomp_inf-obj_th-adjunct
p361
I693
sVadjunct-mwe-conjunct
p362
I1370
sVcomp_inf-obj-adjunct-mwe-comp-adjunct-comp-ne
p363
I1210
sVconjunct-subj-adjunct_rc-adjunct
p364
I1240
sVadjunct-subj-adjunct-comp-adjunct-comp
p365
I225
sVcomp_fin-comp_inf-adjunct_compar-comp_fin-subj-adjunct-conjunct-adjunct-conjunct-adjunct-conjunct
p366
I1323
sVcomp_fin-adjunct
p367
I101
sVsubj-conjunct-adjunct-comp-ne
p368
I1154
sVconjunct-comp_fin-adjunct
p369
I1295
sVadjunct-comp-adjunct-comp-adjunct-comp-adjunct
p370
I1265
sVadjunct-comp-comp_fin-obj-adjunct
p371
I111
sVne
p372
I11
sVcomp_inf-obj-adjunct-comp_ag-comp
p373
I845
sVcomp_inf-adjunct-obj-comp
p374
I798
sVsubj-adjunct-obj-conjunct
p375
I1284
sVne-app-adjunct-app-adjunct-conjunct-adjunct
p376
I998
sVadjunct-abbrev_punct
p377
I158
sVadjunct_qt-obj-adjunct-comp
p378
I1033
sVconjunct-obj_th-conjunct
p379
I860
sVobj-comp_fin-obj
p380
I1147
sVadjunct-comp-adjunct-obj-adjunct
p381
I1074
sVobj_th-ne
p382
I1128
sVcomp_fin-pd-adjunct-ne
p383
I808
sVcomp-adjunct-comp-conjunct
p384
I679
sVcomp_inf-adjunct-comp_fin-subj
p385
I1123
sVroot-adjunct
p386
I422
sVconjunct-obj-adjunct
p387
I182
sVaux-neg
p388
I209
sVadjunct-comp-adjunct_rc-comp
p389
I572
sVsubj-comp-comp_fin-conjunct-adjunct-mwe-comp
p390
I51
sVcomp-comp_inf-adjunct
p391
I842
sVadjunct-comp-comp_fin-pd-conjunct-obj-ne
p392
I1111
sVcomp-conjunct-adjunct
p393
I197
sVadjunct-subj-adjunct
p394
I216
sVcomp_inf-conjunct-adjunct
p395
I1400
sVconjunct-comp-adjunct-comp-adjunct-mwe-conjunct-ne
p396
I1376
sVadjunct-comp_fin-comp-adjunct
p397
I1382
sVcomp_inf-adjunct-comp_fin
p398
I1121
sVapp-ne-app
p399
I978
sVadjunct-conjunct-comp-obj
p400
I628
sVitem
p401
I248
sVcomp-subj-app-adjunct
p402
I864
sVcomp-subj-app-punct
p403
I884
sVcomp-conjunct-app
p404
I491
sVconjunct-adjunct-comp
p405
I60
sVsubj-adjunct-subj-conjunct-comp-adjunct
p406
I1237
sVconjunct-comp_fin-conjunct-comp-conjunct
p407
I1171
sVconjunct-comp_inf-comp-punct
p408
I1270
sVadjunct_compar-comp_fin-subj-adjunct-conjunct-adjunct-conjunct-adjunct-conjunct
p409
I1321
sVne-app-adjunct-punct
p410
I975
sVpunct-subj
p411
I243
sVcomp_fin-adjunct-subj-comp
p412
I1151
sVcomp_fin-obj-adjunct-comp-comp_inf-comp-adjunct-abbrev_punct
p413
I836
sVconjunct-subj-app-adjunct-comp
p414
I487
sVsubj-comp-adjunct
p415
I715
sVcomp_inf-conjunct-comp-adjunct
p416
I1401
sVadjunct-comp-adjunct-conjunct
p417
I97
sVapp-adjunct-conjunct
p418
I981
sVconjunct-aux
p419
I213
sVconjunct-obj-ne
p420
I1112
sVadjunct-comp_ag-comp-adjunct
p421
I119
sVconjunct-comp_inf-comp-conjunct-comp_fin
p422
I359
sVcomp_fin-adjunct-subj
p423
I1216
sVadjunct_rc-subj-conjunct-adjunct
p424
I1439
sVadjunct-comp_fin-comp_ag-punct
p425
I508
sVmwe-adjunct_rc-punct
p426
I133
sVcomp_ag-comp
p427
I206
sVmwe-comp-adjunct-comp-adjunct_rc-subj
p428
I570
sVpd-root-conjunct-adjunct_rc-subj
p429
I315
sVmwe-adjunct-mwe-adjunct
p430
I604
sVconjunct-adjunct-obj
p431
I804
sVcomp_fin-subj-adjunct-conjunct-adjunct-conjunct-adjunct-conjunct
p432
I1325
sVcomp_inf-adjunct-comp_fin-obj
p433
I1122
sVobj-adjunct-ne-adjunct-conjunct
p434
I708
sVconjunct-obj_th-adjunct-comp
p435
I256
sVsubj-conjunct-subj-adjunct_rc-adjunct-conjunct
p436
I1260
sVne-comp
p437
I412
sVadjunct-comp-punct
p438
I100
sVcomp_fin-adjunct-comp_fin-adjunct-punct
p439
I346
sVsubj-adjunct-subj-conjunct-subj-adjunct_rc-punct
p440
I1232
sVadjunct-comp-adjunct_rc-adjunct_qt-adjunct-comp-adjunct
p441
I551
sVpd-conjunct
p442
I1119
sVcomp-adjunct-conjunct-adjunct-conjunct
p443
I661
sVsubj-adjunct-conjunct-adjunct-conjunct-adjunct-conjunct
p444
I1314
sVobj-conjunct-pd
p445
I1039
sVcomp-comp_fin-comp_inf-obj_th-adjunct-obj
p446
I928
sVcomp_fin-conjunct-comp-obj_th-adjunct-comp
p447
I226
sVcomp_inf-comp-comp_fin-adjunct-comp
p448
I1381
sVconjunct-comp-adjunct
p449
I177
sVroot-adjunct-comp-adjunct_compar
p450
I780
sVconjunct-comp-comp_ag
p451
I622
sVcomp-adjunct-comp_ag
p452
I730
sVadjunct-comp-comp_fin-comp_inf-obj_th-adjunct-obj-adjunct-conjunct
p453
I925
sVcomp_fin-comp_inf-comp
p454
I390
sVobj-adjunct-comp_ag
p455
I1084
sVcomp-subj-adjunct-conjunct
p456
I869
sVadjunct_qt-comp_inf-comp
p457
I452
sVadjunct-comp-conjunct-adjunct-comp-adjunct
p458
I1185
sVadjunct-comp-adjunct-pd-adjunct
p459
I706
sVadjunct-obj-adjunct-conjunct
p460
I899
sVadjunct-adjunct_qt-obj-adjunct-adjunct_rc-adjunct
p461
I955
sVconjunct-adjunct-conjunct-obj-comp
p462
I626
sVadjunct-comp_fin-subj-adjunct-subj-punct
p463
I1063
sVadjunct-comp-adjunct-conjunct-adjunct-comp-ne
p464
I672
sVcomp_fin-adjunct-comp_fin
p465
I324
sVobj-adjunct-subj
p466
I713
sVadjunct-comp_fin-subj-adjunct_rc-adjunct
p467
I1344
sVadjunct-adjunct_rc-adjunct-punct
p468
I963
sVcomp-comp_fin-adjunct-comp_fin-adjunct-comp_fin-subj
p469
I327
sVcomp-adjunct_rc-subj
p470
I561
sVconjunct-ne-punct
p471
I424
sVsubj-adjunct-mwe-comp
p472
I1285
sVobj-pd-comp
p473
I594
sVconjunct-adjunct-comp_inf-conjunct-comp-adjunct
p474
I1421
sVsubj-adjunct-pd-comp
p475
I699
sVcomp_fin-subj-adjunct-punct
p476
I1036
sVconjunct
p477
I22
sVobj-conjunct-subj-adjunct-comp
p478
I620
sVmwe-comp-adjunct-comp-adjunct_rc-punct
p479
I565
sVadjunct-adjunct_rc-adjunct-comp
p480
I952
sVobj_th-conjunct-adjunct-comp-adjunct-conjunct-adjunct
p481
I856
sVconjunct-comp_inf-comp-conjunct-punct
p482
I365
sVcomp-adjunct-aux
p483
I731
sVobj_th-adjunct-obj
p484
I931
sVsubj-comp-comp_fin
p485
I25
sVadjunct_qt-subj
p486
I267
sVsubj-adjunct-subj
p487
I301
sVconjunct-adjunct-subj-adjunct
p488
I217
sVsubj-adjunct-subj-conjunct-subj-adjunct_rc-adjunct-conjunct
p489
I1261
sVapp-adjunct-app
p490
I1016
sVconjunct-comp_inf-obj-adjunct
p491
I83
sVcomp-comp_fin-comp-adjunct
p492
I1274
sVadjunct-ne-adjunct
p493
I705
sVadjunct_compar
p494
I304
sVadjunct_rc-subj-adjunct
p495
I821
sVcomp-comp_fin-subj-adjunct_rc-punct-conjunct-pd-comp-comp_fin-subj-adjunct_rc-comp
p496
I1395
sVmwe-comp-adjunct-comp-adjunct_rc-adjunct_qt-adjunct-comp-adjunct-comp-adjunct-comp
p497
I543
sVsubj-comp-adjunct-comp
p498
I504
sVconjunct-pd-adjunct-comp-adjunct
p499
I870
sVadjunct-comp-conjunct
p500
I188
sVconjunct-adjunct-comp_inf-conjunct-adjunct-obj-adjunct
p501
I1406
sVsubj-obj
p502
I415
sVadjunct-conjunct-adjunct-comp-adjunct
p503
I1329
sVcomp_fin-obj-adjunct-comp-comp_inf-obj-adjunct-comp_ag-comp
p504
I824
sVcomp_fin-pd-adjunct
p505
I680
sVsubj-adjunct-neg
p506
I1364
sVcomp-comp_fin-comp_inf-obj-adjunct
p507
I739
sVcomp-adjunct-comp-adjunct_rc-subj
p508
I571
sVadjunct_compar-comp_fin-subj-adjunct-punct
p509
I1327
sVapp-adjunct-conjunct-adjunct
p510
I999
sVadjunct-comp-comp_fin-pd-conjunct-aglt
p511
I1114
sVcomp-adjunct-comp-adjunct_rc
p512
I569
sVadjunct-comp-adjunct_compar-comp
p513
I778
sVsubj-adjunct-mwe
p514
I261
sVcomp_inf-obj_th
p515
I772
sVobj_th-adjunct-obj-adjunct-conjunct-refl
p516
I909
sVadjunct-comp-comp_fin-obj
p517
I107
sVobj-adjunct-comp-comp_fin-comp_inf-adjunct-comp
p518
I741
sVsubj-app-adjunct-comp
p519
I486
sVadjunct-comp-conjunct-adjunct-conjunct
p520
I1191
sVobj-conjunct-refl
p521
I1053
sVroot-comp_fin-subj-adjunct
p522
I157
sVcomp_fin-comp_inf-obj_th-adjunct-obj-adjunct-conjunct-adjunct-mwe-comp-obj
p523
I903
sVadjunct_compar-comp_fin-aux
p524
I1316
sVsubj-conjunct-comp-adjunct
p525
I1249
sVobj_th-adjunct-comp-adjunct-comp-obj-adjunct
p526
I519
sVadjunct-mwe-subj-mwe
p527
I650
sVcomp_fin-conjunct-subj-adjunct
p528
I1165
sVadjunct-comp-conjunct-adjunct-comp
p529
I1188
sVcomp_inf-obj_th-adjunct-obj-adjunct
p530
I918
sVcomp-adjunct-comp-adjunct_rc-adjunct_qt-adjunct-comp-adjunct
p531
I552
sVpd-adjunct-ne
p532
I397
sVadjunct-mwe-comp-adjunct-comp
p533
I721
sVne-conjunct
p534
I404
sVadjunct-comp-adjunct-comp-abbrev_punct
p535
I1430
sVconjunct-obj-adjunct-obj_th
p536
I1288
sVconjunct-obj_th-comp-comp_fin-refl
p537
I475
sVcomp_fin-adjunct-comp_fin-adjunct-comp_fin
p538
I340
sVcomp-subj-adjunct
p539
I873
sVconjunct-comp_fin-obj-adjunct
p540
I823
sVsubj-comp-comp_fin-conjunct
p541
I36
sVconjunct-comp_fin-comp_inf-adjunct_compar-comp_fin-aux
p542
I1317
sVconjunct-comp_fin-comp_inf-obj_th-adjunct
p543
I1313
sVconjunct-item
p544
I249
sVadjunct-comp-adjunct-comp-adjunct
p545
I270
sVconjunct-obj_th-comp-comp_fin-comp_inf-obj
p546
I467
sVsubj-conjunct
p547
I254
sVcomp_fin-adjunct-comp_fin-subj
p548
I350
sVconjunct-adjunct-comp-adjunct_rc-comp
p549
I1354
sVcomp-adjunct-comp-adjunct_rc-adjunct_qt
p550
I589
sVcomp_ag-comp-adjunct
p551
I117
sVmwe-comp
p552
I49
sVconjunct-adjunct-comp-adjunct-comp-adjunct
p553
I274
sVadjunct-punct
p554
I98
sVadjunct-subj-conjunct-obj_th
p555
I1236
sVadjunct-mwe-adjunct_compar
p556
I602
sVadjunct-conjunct-comp_fin
p557
I1158
sVobj-comp_fin-adjunct-subj-comp
p558
I1150
sVcomp_fin
p559
I105
sVcomp-comp_fin-adjunct-comp_fin-adjunct-comp_fin-adjunct-punct
p560
I325
sVobj-adjunct-comp-comp_inf-obj-adjunct-comp_ag-comp
p561
I849
sVconjunct-comp-adjunct-comp
p562
I1136
sVobj-adjunct-comp_inf-obj-conjunct-comp
p563
I777
sVsubj-adjunct_rc-adjunct-conjunct-comp
p564
I1256
sVmwe-comp-adjunct-comp-adjunct_rc-comp-adjunct
p565
I580
sVadjunct-obj-adjunct-punct
p566
I803
sVadjunct_qt-adjunct-subj
p567
I496
sVadjunct-conjunct-adjunct-conjunct-adjunct-conjunct
p568
I1324
sVadjunct-conjunct-comp_fin-conjunct-comp
p569
I1160
sVadjunct-comp_fin-comp
p570
I700
sVcomp_inf-obj-adjunct_rc-comp_inf
p571
I692
sVconjunct-adjunct_rc-pd-conjunct
p572
I1426
sVadjunct-conjunct-comp_fin-adjunct-punct
p573
I1178
sVmwe-comp-adjunct-comp-adjunct_rc-adjunct_qt-adjunct
p574
I567
sVcomp-adjunct-mwe
p575
I277
sVobj_th-comp-comp_fin
p576
I464
sVobj-adjunct-comp-comp_fin-comp_inf
p577
I736
sVadjunct-obj-adjunct-obj
p578
I633
sVadjunct-adjunct_rc
p579
I959
sVadjunct-comp-adjunct_rc-adjunct_qt-adjunct-comp-adjunct-comp
p580
I536
sVcomp_fin-obj-adjunct-abbrev_punct
p581
I850
sVconjunct-adjunct-mwe-comp
p582
I381
sVpd-root-conjunct-adjunct_rc-subj-adjunct-punct
p583
I312
sVsubj-conjunct-adjunct-comp-adjunct
p584
I1441
sVobj-adjunct-adjunct_rc-adjunct-punct
p585
I964
sVobj-adjunct-conjunct-adjunct-mwe
p586
I930
sVadjunct-comp-comp_fin-conjunct-neg
p587
I227
sVadjunct-comp-adjunct-conjunct-adjunct-comp
p588
I667
sVcomp-adjunct_rc-subj-adjunct
p589
I1353
sVadjunct-comp_fin-subj
p590
I298
sVcomp_fin-adjunct-pd-adjunct
p591
I1149
sVadjunct-mwe-comp-adjunct-ne
p592
I191
sVconjunct-obj_th-conjunct-adjunct-comp-adjunct-conjunct-adjunct
p593
I855
sVcomp
p594
I7
sVconjunct-comp_inf-comp-comp_fin
p595
I1278
sVcomp_inf-adjunct_compar-comp_fin-aux
p596
I1315
sVadjunct-comp-conjunct-adjunct
p597
I195
sVconjunct-adjunct-comp-conjunct-punct
p598
I853
sVadjunct_compar-comp_fin-subj-adjunct-conjunct
p599
I1312
sVobj_th-comp-punct
p600
I460
sVadjunct-neg
p601
I1363
sVconjunct-adjunct-obj-adjunct-comp
p602
I634
sVadjunct-subj-mwe
p603
I714
sVcomp-adjunct-comp-ne-adjunct-comp
p604
I282
sVadjunct-subj-conjunct-subj-adjunct_rc-adjunct-conjunct
p605
I1262
sVapp-adjunct-app-adjunct-conjunct-adjunct_qt-punct
p606
I987
sVcomp_fin-pd-conjunct
p607
I1120
sVobj_th-adjunct-conjunct
p608
I319
sVobj-adjunct-comp-comp_fin-comp_inf-adjunct-comp-adjunct
p609
I753
sVobj_th-comp-comp_fin-comp_inf
p610
I461
sVcomp-adjunct_rc-punct
p611
I575
sVadjunct_qt-comp_inf
p612
I451
sVcomp-adjunct-comp-adjunct-comp-adjunct
p613
I758
sVobj-adjunct-comp-conjunct-adjunct
p614
I442
sVcomp-conjunct-comp_fin-aux
p615
I358
sVobj-adjunct-comp-punct
p616
I744
sVconjunct-obj-conjunct
p617
I85
sVadjunct_rc-refl
p618
I1429
sVobj-adjunct-mwe-comp-adjunct-comp
p619
I722
sVpd-mwe-adjunct_rc-adjunct
p620
I138
sVadjunct-comp-adjunct-comp-ne-adjunct-comp
p621
I281
sVadjunct-comp-adjunct-conjunct-adjunct-comp_inf-obj_th-adjunct-conjunct-comp-adjunct-comp
p622
I1335
sVcomp_fin-comp_inf
p623
I463
sVadjunct-comp
p624
I6
sVadjunct-obj-adjunct-conjunct-obj-adjunct
p625
I897
sVcomp_fin-comp_inf-obj_th
p626
I1309
sVobj_th-comp
p627
I474
sVadjunct_compar-comp-adjunct-mwe-comp
p628
I1055
sVadjunct_qt-conjunct-adjunct
p629
I352
sVadjunct_qt-obj-adjunct-subj-adjunct
p630
I954
sVadjunct-comp_ag
p631
I115
sVobj_th-adjunct-comp
p632
I255
sVconjunct-comp_fin-obj-adjunct-obj
p633
I828
sVmwe-adjunct-mwe-adjunct_compar
p634
I600
sVconjunct-adjunct-comp-punct
p635
I1088
sVsubj-app-punct
p636
I75
sVcomp-comp_fin-comp_inf-obj_th-adjunct-obj-adjunct-conjunct-adjunct-mwe-comp-obj
p637
I905
sVadjunct-conjunct-adjunct-mwe-comp-obj
p638
I894
sVcomp_fin-subj-comp-adjunct
p639
I1383
sVsubj-adjunct_rc-adjunct-conjunct
p640
I1258
sVconjunct-subj-adjunct_rc-adjunct-ne
p641
I1139
sVcomp_inf-comp-comp_fin-subj-adjunct_rc-punct-conjunct-pd-comp-comp_fin-subj-adjunct_rc-comp
p642
I1394
sVadjunct-comp_fin-comp_ag
p643
I506
sVadjunct-app-adjunct-comp-adjunct
p644
I609
sVsubj-adjunct-subj-adjunct-comp
p645
I1365
sVobj-adjunct-obj_th-obj
p646
I125
sVconjunct-adjunct-subj
p647
I211
sVadjunct-app-ne
p648
I399
sVadjunct_qt-adjunct-obj
p649
I493
sVsubj-comp-comp_fin-conjunct-adjunct-mwe
p650
I19
sVcomp-adjunct-comp_inf-obj-adjunct
p651
I1201
sVcomp_inf-pd-adjunct-obj-adjunct
p652
I619
sVcomp-comp_fin-subj-comp-adjunct
p653
I922
sVadjunct-pd-adjunct-comp-adjunct
p654
I535
sVconjunct-ne
p655
I185
sVadjunct-comp-comp_inf-comp-adjunct-comp-adjunct
p656
I829
sVcomp_fin-obj_th-adjunct
p657
I1031
sVmwe-comp-adjunct-comp-adjunct_rc-comp-adjunct-comp
p658
I576
sVsubj-adjunct-subj-conjunct
p659
I1126
sVconjunct-comp-adjunct-comp-adjunct-mwe-conjunct
p660
I1380
sVconjunct-pd-adjunct-comp
p661
I867
sVcomp_fin-conjunct-adjunct-mwe-comp-adjunct
p662
I42
sVadjunct-subj-conjunct-adjunct
p663
I1127
sVadjunct_qt-adjunct-pd-adjunct
p664
I497
sVcomp_inf-comp-comp_fin-refl
p665
I1268
sVpd-adjunct-comp-abbrev_punct
p666
I444
sVsubj-adjunct-adjunct_compar-mwe-adjunct
p667
I649
sVcomp_fin-conjunct
p668
I44
sVadjunct-conjunct-adjunct-obj
p669
I1104
sVadjunct-comp-adjunct-comp
p670
I165
sVsubj-adjunct-comp-adjunct-comp
p671
I1059
sVadjunct-comp-adjunct-abbrev_punct
p672
I1078
sVadjunct_rc-comp
p673
I592
sVconjunct-adjunct-comp_inf-conjunct-adjunct
p674
I1407
sVobj-conjunct-subj
p675
I1045
sVobj_th
p676
I160
sVobj-adjunct_rc
p677
I695
sVadjunct-comp-ne-conjunct
p678
I279
sVobj-adjunct-comp-comp_fin-comp_inf-obj
p679
I747
sVobj-adjunct-comp_ag-comp
p680
I847
sVconjunct-neg
p681
I885
sVsubj-adjunct-adjunct_compar-comp-adjunct
p682
I653
sVcomp_inf-adjunct-punct
p683
I936
sVmwe-comp-adjunct-comp-ne
p684
I1211
sVmwe-abbrev_punct
p685
I402
sVsubj-adjunct-subj-conjunct-subj-adjunct_rc-adjunct-comp
p686
I1252
sVcomp_inf-adjunct_compar-comp_fin-subj-adjunct-punct
p687
I1326
sVcomp_fin-conjunct-adjunct_rc-punct
p688
I1093
sVconjunct-subj-comp-comp_fin-conjunct
p689
I35
sVadjunct-root-comp
p690
I1022
sVcomp-punct
p691
I48
sVadjunct-comp_fin-refl
p692
I291
sVconjunct-adjunct-mwe-comp-obj
p693
I891
sVroot-subj
p694
I1156
sVadjunct_rc-subj-conjunct-adjunct-punct
p695
I1435
sVcomp_inf-obj-adjunct_rc-subj
p696
I698
sVcomp_inf-pd-adjunct-obj
p697
I617
sVadjunct_compar-punct
p698
I1056
sVadjunct-pd-adjunct-comp
p699
I533
sVsubj-adjunct-conjunct-app
p700
I934
sVcomp_fin-aux
p701
I354
sVsubj-adjunct-subj-conjunct-obj_th
p702
I1235
sVcomp-ne-conjunct
p703
I280
sVconjunct-adjunct-conjunct-comp
p704
I659
sVconjunct-comp-comp_ag-comp-adjunct
p705
I627
sVroot-punct
p706
I1157
sVroot-comp-adjunct
p707
I1019
sVsubj-adjunct-subj-conjunct-subj-adjunct
p708
I1231
sVobj-adjunct-comp-comp_fin-comp_inf-obj-adjunct
p709
I734
sVcomp_fin-conjunct-neg
p710
I220
sVconjunct-adjunct-comp-adjunct-obj-adjunct-comp
p711
I1070
sVadjunct-conjunct-comp
p712
I273
sVcomp-comp_fin-comp_inf-comp-adjunct-comp
p713
I395
sVconjunct-adjunct-comp-adjunct_rc-subj
p714
I1346
sVadjunct-comp_fin-comp_ag-comp
p715
I510
sVcomp_fin-obj-adjunct-obj
p716
I827
sVcomp-comp_fin-subj-adjunct_rc-punct-conjunct-pd-comp
p717
I1393
sVobj-adjunct-comp-adjunct-mwe
p718
I807
sVroot-comp_fin-adjunct-mwe
p719
I765
sVconjunct-comp-adjunct-comp_inf-adjunct-mwe
p720
I1202
sVconjunct-adjunct
p721
I32
sVadjunct-comp-ne-comp
p722
I411
sVsubj-adjunct-ne
p723
I489
sVcomp-conjunct-comp_fin
p724
I361
sVne-adjunct-comp
p725
I283
sVcomp_inf-comp-adjunct-comp
p726
I396
sVsubj-adjunct-ne-abbrev_punct
p727
I1366
sVcomp_inf-conjunct-comp
p728
I1414
sVcomp_inf-conjunct-adjunct-obj
p729
I1411
sVadjunct-conjunct-adjunct-comp_fin-conjunct-adjunct_rc-comp_inf-obj-comp_fin-punct
p730
I1097
sVadjunct_compar-comp-adjunct-comp_ag
p731
I1060
sVadjunct-comp-adjunct_rc-comp-adjunct
p732
I588
sVconjunct-comp_fin-conjunct-adjunct-comp
p733
I1177
sVapp-ne-app-adjunct-conjunct
p734
I1009
sVcomp_inf-pd-adjunct
p735
I615
sVconjunct-comp-comp_fin
p736
I1050
sVcomp_inf-pd-adjunct-subj
p737
I616
sVobj_th-comp-comp_fin-comp_inf-adjunct
p738
I457
sVconjunct-comp_inf-comp-comp_fin-subj
p739
I1283
sVcomp_fin-obj_th-comp-adjunct
p740
I773
sVcomp_inf-comp-conjunct
p741
I364
sVapp-adjunct-conjunct-adjunct_qt-punct
p742
I983
sVapp-adjunct-comp-conjunct-adjunct
p743
I607
sVsubj-adjunct-conjunct-ne
p744
I1029
sVadjunct_qt-adjunct-comp-adjunct
p745
I553
sVobj-app-adjunct
p746
I942
sVmwe-adjunct_rc-adjunct
p747
I132
sVobj-adjunct-comp-conjunct
p748
I435
sVobj_th-adjunct-comp-conjunct-adjunct-comp
p749
I1187
sVsubj-comp_ag-comp
p750
I888
sVapp-adjunct-app-adjunct-conjunct-adjunct_qt-adjunct-conjunct
p751
I1007
sVcomp-subj
p752
I877
sVcomp_fin-conjunct-adjunct-comp-adjunct
p753
I339
sVconjunct-comp_fin-comp-adjunct
p754
I1168
sVcomp-comp_fin-comp_inf-adjunct-comp
p755
I742
sVadjunct-comp-adjunct-conjunct-adjunct-comp_inf-obj_th-adjunct
p756
I1332
sVadjunct_qt-conjunct-adjunct-comp
p757
I385
sVobj_th-comp-adjunct
p758
I766
sVapp-adjunct-conjunct-adjunct_qt-adjunct-conjunct-punct
p759
I1001
sVadjunct-conjunct-pd-adjunct-comp
p760
I876
sVcomp-ne
p761
I161
sVconjunct-adjunct-comp-adjunct-conjunct
p762
I322
sVadjunct-comp-conjunct-adjunct-conjunct-ne
p763
I1194
sVadjunct-comp-comp_fin-subj-comp
p764
I1108
sVconjunct-adjunct-aux
p765
I1397
sVconjunct-subj-comp-comp_fin-conjunct-adjunct-mwe-comp-abbrev_punct
p766
I66
sVadjunct-comp_inf-punct
p767
I1402
sVadjunct-comp-comp_fin-comp_inf-adjunct
p768
I748
sVsubj-adjunct-subj-conjunct-subj-adjunct_rc
p769
I1229
sVmwe-comp-adjunct-comp-adjunct_rc-adjunct
p770
I582
sVcomp_inf-adjunct-comp
p771
I745
sVcomp-adjunct-conjunct-ne
p772
I811
sVadjunct-obj_th-adjunct
p773
I530
sVadjunct-pd-comp
p774
I174
sVsubj-adjunct-comp-adjunct-conjunct
p775
I449
sVconjunct-adjunct_qt-punct
p776
I986
sVconjunct-comp_fin-aux
p777
I355
sVapp-adjunct-mwe-comp
p778
I92
sVobj-adjunct-obj
p779
I414
sVcomp_ag
p780
I116
sVadjunct-refl
p781
I949
sVpd-adjunct-punct
p782
I437
sVconjunct-subj-comp-comp_fin-conjunct-adjunct-mwe
p783
I14
sVadjunct-conjunct-obj-adjunct-punct
p784
I409
sVadjunct-conjunct-punct
p785
I194
sVadjunct-comp-adjunct-obj-adjunct-comp
p786
I1068
sVmwe-comp_fin-pd-mwe-adjunct_rc-adjunct
p787
I146
sVsubj-app-adjunct-punct
p788
I882
sVcomp_ag-comp-adjunct-conjunct
p789
I1356
sVadjunct-comp-adjunct-comp-obj-adjunct-comp-adjunct
p790
I518
sVroot-ne
p791
I1360
sVobj_th-adjunct-comp-conjunct-adjunct-comp-adjunct
p792
I1184
sVcomp-adjunct-mwe-conjunct
p793
I1375
sVadjunct-app-adjunct-comp-conjunct-adjunct
p794
I606
sVcomp_fin-conjunct-subj-adjunct-comp
p795
I1170
sVconjunct-pd-conjunct-adjunct-comp
p796
I205
sVsubj-ne
p797
I123
sVadjunct-conjunct-adjunct-subj
p798
I1102
sVcomp-adjunct-comp-ne-adjunct
p799
I284
sVadjunct-conjunct-adjunct-mwe
p800
I916
sVobj-adjunct-mwe-comp-adjunct
p801
I720
sVadjunct-abbrev_punct-conjunct
p802
I1359
sVadjunct-subj-conjunct-subj-adjunct_rc-punct
p803
I1233
sVadjunct_rc-punct
p804
I135
sVobj-comp_fin-adjunct-pd-adjunct
p805
I1148
sVadjunct-obj-conjunct-adjunct
p806
I830
sVadjunct-subj-punct
p807
I229
sVsubj-adjunct-subj-conjunct-adjunct-mwe-comp-obj-adjunct
p808
I1133
sVadjunct-subj-comp
p809
I683
sVconjunct-obj_th
p810
I170
sVsubj-app-adjunct
p811
I87
sVcomp-comp_fin-comp_inf-obj_th-adjunct-obj-adjunct-conjunct-obj-adjunct
p812
I906
sVadjunct-ne-conjunct
p813
I405
sVcomp-adjunct-comp-adjunct_rc-adjunct
p814
I542
sVsubj-mwe-comp
p815
I646
sVcomp-adjunct-obj-adjunct-comp
p816
I1069
sVcomp_inf-obj-adjunct_rc-punct
p817
I687
sVcomp_inf-comp-comp_fin-comp
p818
I1277
sVcomp-comp_fin-comp_inf-obj_th-adjunct
p819
I896
sVapp-ne
p820
I166
sVconjunct-obj_th-comp
p821
I473
sVcomp_fin-conjunct-cond
p822
I57
sVroot-adjunct-punct
p823
I767
sVcomp_fin-comp-adjunct
p824
I1275
sVobj-adjunct-conjunct-adjunct-mwe-comp-obj
p825
I890
sVpunct-root-adjunct
p826
I421
sVadjunct-comp_fin-adjunct-comp_fin-subj
p827
I329
sVobj-adjunct_compar-comp-adjunct
p828
I1219
sVadjunct-conjunct-refl
p829
I902
sVadjunct-comp-obj
p830
I239
sVconjunct-obj-conjunct-obj
p831
I89
sVadjunct-comp-comp_fin-subj
p832
I1110
sVobj-adjunct-comp-adjunct-comp
p833
I702
sVadjunct-comp-adjunct-comp-conjunct
p834
I678
sVadjunct-aglt
p835
I790
sVne-adjunct-conjunct
p836
I710
sVconjunct-comp_fin-comp_inf-obj_th
p837
I1308
sVsubj-comp_ag-comp-adjunct
p838
I886
sVadjunct_qt-comp_inf-comp-adjunct
p839
I454
sVcomp_fin-adjunct-mwe
p840
I764
sVobj-conjunct-adjunct
p841
I81
sVcomp-adjunct-subj-adjunct_rc-obj-adjunct
p842
I724
sVobj-adjunct_rc-subj
p843
I696
sVcomp-adjunct-comp_inf-adjunct-mwe
p844
I1205
sVmwe-comp-obj
p845
I893
sVadjunct-conjunct-pd
p846
I862
sVcomp_fin-pd-mwe
p847
I150
sVadjunct-conjunct-adjunct-conjunct
p848
I662
sVconjunct-adjunct-obj-adjunct-obj
p849
I635
sVconjunct-comp-punct
p850
I1044
sVcomp_inf-obj-comp_fin
p851
I1091
sVcomp_fin-obj-adjunct-comp-comp_inf-adjunct
p852
I840
sVobj-adjunct_compar
p853
I1222
sVadjunct_rc-comp-adjunct
p854
I585
sVconjunct-pd-root
p855
I305
sVconjunct-obj-adjunct-comp
p856
I317
sVobj-app
p857
I945
sVapp-adjunct-app-adjunct-conjunct-adjunct
p858
I1000
sVadjunct-comp_inf-adjunct
p859
I969
sVsubj-adjunct_rc-punct
p860
I726
sVcomp_inf-obj-adjunct-mwe-comp-adjunct
p861
I1206
sVadjunct-conjunct-adjunct-conjunct-comp
p862
I658
sVadjunct-comp_fin-adjunct-comp_fin
p863
I342
sVconjunct-comp_inf-comp
p864
I410
sVconjunct-comp_fin-obj-adjunct-comp-comp_inf-obj-adjunct-comp_ag-comp
p865
I848
sVobj_th-punct
p866
I40
sVcomp-adjunct-conjunct-adjunct-conjunct-comp
p867
I657
sVsubj-comp-comp_fin-conjunct-adjunct-mwe-comp-adjunct
p868
I28
sVsubj-adjunct-comp-adjunct
p869
I214
sVobj-comp-adjunct
p870
I797
sVcomp_inf-obj
p871
I466
sVconjunct-adjunct-comp_fin-subj-adjunct_rc-comp
p872
I1351
sVcomp_fin-subj
p873
I142
sVsubj-adjunct-punct
p874
I313
sVadjunct-mwe-comp-abbrev_punct
p875
I65
sVcomp-comp_fin-adjunct-comp_fin
p876
I323
sVobj-adjunct-comp_ag-comp-adjunct
p877
I1083
sVsubj-adjunct-subj-comp
p878
I300
sVobj-adjunct-conjunct
p879
I175
sVcomp-conjunct-abbrev_punct
p880
I199
sVcomp-conjunct-adjunct-comp-ne
p881
I858
sVadjunct-comp-comp_fin
p882
I233
sVconjunct-subj-comp-comp_fin-punct
p883
I38
sVcomp_fin-comp_inf-obj_th-adjunct-obj
p884
I932
sVsubj-adjunct-comp-adjunct-comp-adjunct
p885
I647
sVcomp-comp_fin-conjunct-obj_th-punct
p886
I52
sVadjunct-subj-conjunct-comp-adjunct
p887
I1238
sVconjunct-adjunct-subj-punct
p888
I228
sVconjunct-obj_th-comp-punct
p889
I465
sVcomp-comp_fin-adjunct-comp
p890
I1214
sVconjunct-pd-root-conjunct-adjunct_rc-subj
p891
I314
sVcomp_inf-root-refl
p892
I786
sVadjunct-comp_inf-conjunct-comp
p893
I1405
sVcomp_fin-subj-adjunct-comp-adjunct
p894
I1390
sVsubj-adjunct-subj-conjunct-subj-adjunct_rc-adjunct
p895
I1239
sVconjunct-adjunct-ne
p896
I965
sVconjunct-comp_inf-comp-comp_fin-comp
p897
I1271
sVadjunct-comp-adjunct_rc-adjunct
p898
I562
sVadjunct-obj_th-adjunct-comp
p899
I521
sVpd-adjunct_compar-comp-adjunct
p900
I1180
sVcomp-comp_fin-obj-adjunct
p901
I112
sVadjunct_compar-comp-adjunct-comp_ag-comp-adjunct
p902
I1058
sVroot-comp_fin-subj
p903
I147
sVcomp-adjunct_rc-adjunct_qt-adjunct-comp-adjunct-comp
p904
I537
sVsubj-app-adjunct-mwe-comp
p905
I77
sVcomp_inf-root-adjunct-comp-punct
p906
I779
sVconjunct-pd-root-conjunct-adjunct_rc-subj-adjunct-punct
p907
I311
sVobj_th-adjunct-comp-conjunct
p908
I1183
sVconjunct-adjunct-comp_inf-conjunct-adjunct-obj
p909
I1418
sVapp-ne-app-adjunct-app-adjunct-conjunct-adjunct
p910
I997
sVadjunct_rc-comp-comp_fin-adjunct
p911
I1263
sVobj-subj
p912
I593
sVobj-comp_fin-adjunct-pd
p913
I1145
sVconjunct-adjunct-comp_inf-conjunct
p914
I1415
sVcomp_inf-conjunct-adjunct-obj-adjunct
p915
I1416
sVsubj-conjunct-ne
p916
I1264
sVsubj-adjunct-subj-conjunct-comp
p917
I1247
sVcomp-adjunct-comp-adjunct-conjunct-app-punct
p918
I668
sVobj-comp_fin-subj-adjunct-comp
p919
I1142
sVadjunct_rc-adjunct_qt-adjunct-comp
p920
I558
sVcomp-adjunct-subj
p921
I755
sVconjunct-adjunct-comp_inf-punct
p922
I1419
sVpd-comp-obj-adjunct-conjunct
p923
I171
sVadjunct-aux-neg
p924
I208
sVcomp_fin-comp_inf-obj-adjunct
p925
I750
sVcomp_inf-punct
p926
I1291
sVadjunct-comp_fin-comp_ag-comp-adjunct
p927
I509
sVconjunct-comp-comp_fin-refl
p928
I1054
sVconjunct-comp_inf
p929
I1292
sVcomp_inf-obj-adjunct_rc-comp_inf-obj_th
p930
I690
sVcomp_fin-conjunct-comp
p931
I328
sVpd-pre_coord-mwe
p932
I1035
sVcomp-adjunct-conjunct-app-punct
p933
I664
sVconjunct-adjunct-comp-adjunct-obj
p934
I1072
sVcomp-adjunct_rc-comp-adjunct
p935
I584
sVcomp_ag-comp-app-punct
p936
I812
sVconjunct-comp_fin-conjunct-subj-adjunct-comp
p937
I1169
sVroot-adjunct-app-adjunct-punct
p938
I418
sVconjunct-adjunct-mwe
p939
I55
sVconjunct-obj-adjunct-obj
p940
I1286
sVne-app-adjunct-conjunct
p941
I971
sVadjunct-punct-root-adjunct
p942
I423
sVcomp_fin-adjunct-comp_fin-adjunct
p943
I336
sVadjunct_qt-adjunct-comp-adjunct-comp-adjunct
p944
I501
sVobj-adjunct-app-punct
p945
I1226
sVcomp_ag-comp-adjunct-comp
p946
I816
sVconjunct-comp_fin-obj-adjunct-comp
p947
I826
sVcomp_fin-conjunct-subj
p948
I219
sVne-app-adjunct-app-adjunct-conjunct-adjunct_qt
p949
I1015
sVobj-adjunct-comp-adjunct-comp-adjunct
p950
I712
sVapp-ne-abbrev_punct
p951
I10
sVadjunct-obj_th
p952
I794
sVobj_th-adjunct-comp-conjunct-adjunct-conjunct-ne
p953
I1195
sVcomp_inf-obj_th-adjunct-obj-adjunct-conjunct-obj-adjunct
p954
I907
sVcomp-adjunct-punct
p955
I234
sVmwe-comp_fin-pd-mwe
p956
I149
sVadjunct-comp-adjunct-mwe-conjunct-ne
p957
I1377
sVsubj-adjunct-subj-adjunct-punct
p958
I1362
sVadjunct-comp-comp_fin-comp_inf-obj-adjunct
p959
I738
sVadjunct-comp_inf-obj-conjunct-comp
p960
I774
sVconjunct-obj-adjunct-subj
p961
I1289
sVcomp-comp_fin-conjunct-neg
p962
I230
sVsubj-comp-comp_fin-conjunct-adjunct-comp
p963
I61
sVadjunct-obj_th-app
p964
I793
sVcomp_inf-obj-adjunct-mwe
p965
I1208
sVadjunct-comp-comp_fin-adjunct
p966
I108
sVadjunct-comp-adjunct_rc
p967
I583
sVobj-adjunct-comp-comp_fin-subj
p968
I752
sVobj-adjunct-app-ne
p969
I1227
sVobj-mwe
p970
I373
sVcomp-comp_fin-comp_inf-obj_th-adjunct-obj-adjunct
p971
I929
sVpd
p972
I140
sVcomp-comp_fin-adjunct-mwe-comp
p973
I1217
sVconjunct-adjunct-conjunct
p974
I251
sVsubj-conjunct-comp
p975
I1228
sVadjunct-conjunct-app
p976
I403
sVmwe-comp-adjunct-comp-adjunct_rc-comp
p977
I578
sVcomp-adjunct
p978
I2
sVne-adjunct-app
p979
I1267
sVsubj-adjunct-subj-conjunct-adjunct-mwe-comp
p980
I1125
sVcomp-comp_fin-subj-comp
p981
I911
sVconjunct-obj-comp
p982
I371
sVcomp_inf-comp-conjunct-comp_fin-aux
p983
I357
sVadjunct-obj_th-adjunct-comp-adjunct-comp-obj-adjunct-comp
p984
I524
sVadjunct_qt-conjunct
p985
I353
sVconjunct-comp_inf-comp-conjunct
p986
I370
sVobj-adjunct-subj-adjunct-comp
p987
I961
sVcomp_inf-refl
p988
I262
sVconjunct-subj-comp-comp_fin-conjunct-adjunct-mwe-comp
p989
I50
sVconjunct-obj_th-comp-comp_fin
p990
I472
sVadjunct-conjunct-ne
p991
I400
sVcomp-adjunct-comp-ne-adjunct-comp-ne
p992
I287
sVadjunct_compar-comp_fin-subj-adjunct-conjunct-adjunct-conjunct
p993
I1301
sVsubj-comp-comp_fin-conjunct-subj
p994
I69
sVobj-app-adjunct_rc
p995
I943
sVcomp-adjunct-conjunct-adjunct-comp_inf-obj_th-adjunct-conjunct-comp-adjunct-comp
p996
I1334
sVconjunct-obj-app
p997
I1107
sVobj-app-adjunct_rc-obj
p998
I946
sVapp-adjunct-comp
p999
I488
sVconjunct-adjunct-obj-adjunct-punct
p1000
I802
sVcomp-subj-adjunct-conjunct-pd-adjunct
p1001
I872
sVconjunct-adjunct-conjunct-adjunct-ne
p1002
I1443
sVconjunct-adjunct-comp_inf-conjunct-subj
p1003
I1417
sVconjunct-subj-comp-comp_fin-conjunct-subj
p1004
I68
sVadjunct-comp-adjunct_rc-adjunct_qt
p1005
I590
sVcomp_fin-obj
p1006
I110
sVconjunct-adjunct-conjunct-comp-obj
p1007
I629
sVadjunct-comp-adjunct-conjunct-adjunct
p1008
I655
sVobj-conjunct-subj-adjunct
p1009
I1040
sVcomp_fin-adjunct-mwe-comp
p1010
I1218
sVcomp-adjunct-comp-adjunct_rc-adjunct_qt-adjunct-comp-adjunct-comp-adjunct-comp
p1011
I541
sVcomp-ne-adjunct
p1012
I966
sVconjunct-adjunct-mwe-comp-adjunct
p1013
I30
sVconjunct-adjunct_rc-comp_inf-obj-comp_fin-punct
p1014
I1100
sVadjunct-comp_inf-conjunct
p1015
I1409
sVobj_th-adjunct-conjunct-adjunct
p1016
I320
sVconjunct-abbrev_punct
p1017
I200
sVadjunct-conjunct-app-punct
p1018
I665
sVconjunct-aglt
p1019
I1113
sVadjunct-obj_th-adjunct-comp-adjunct
p1020
I529
sVcomp-adjunct-comp-adjunct-comp
p1021
I539
sVobj-adjunct-abbrev_punct
p1022
I852
sVadjunct-conjunct-comp_fin-obj
p1023
I1163
sVobj-comp_fin-adjunct-punct
p1024
I1141
sVadjunct-comp_inf
p1025
I433
sVne-app-adjunct-app-adjunct
p1026
I1012
sVadjunct-comp-adjunct-comp-ne
p1027
I162
sVapp-adjunct-app-adjunct-conjunct-adjunct_qt-adjunct-conjunct-ne
p1028
I991
sVcomp_fin-comp_inf-adjunct_compar
p1029
I1297
sVadjunct-comp_inf-conjunct-adjunct-obj-adjunct
p1030
I1404
sVpd-adjunct-comp-adjunct
p1031
I534
sVcomp-app-punct
p1032
I813
sVadjunct_rc-adjunct_qt
p1033
I587
sVadjunct-subj-conjunct-subj-adjunct
p1034
I1254
sVconjunct-comp_ag
p1035
I212
sVcomp-adjunct_rc-adjunct_qt-adjunct-comp
p1036
I555
sVadjunct-comp-adjunct-mwe
p1037
I93
sVconjunct-adjunct-comp-adjunct-comp
p1038
I276
sVconjunct-comp_fin-comp_inf-adjunct_compar-comp_fin-subj-adjunct-conjunct-adjunct-conjunct
p1039
I1310
sVadjunct-comp-comp_fin-comp_inf
p1040
I737
sVconjunct-comp-adjunct-obj
p1041
I203
sVadjunct-comp_fin-aux
p1042
I512
sVcomp-comp_fin-comp_inf-adjunct
p1043
I458
sVcomp_inf-obj_th-adjunct-obj-adjunct-conjunct
p1044
I919
sVadjunct_rc-subj-conjunct-adjunct-comp-adjunct
p1045
I1442
sVconjunct-comp-adjunct-comp_inf-obj
p1046
I1203
sVobj-adjunct-obj_th
p1047
I1287
sVcomp-comp_fin-subj
p1048
I751
sVconjunct-subj-adjunct_rc-punct
p1049
I1234
sVadjunct-obj-conjunct-ne
p1050
I183
sVcomp-adjunct_rc-adjunct_qt-adjunct-comp-adjunct-comp-adjunct-comp
p1051
I544
sVadjunct-comp_fin-punct
p1052
I295
sVroot-comp-punct
p1053
I1021
sVcomp_inf-obj_th-adjunct-obj-adjunct-conjunct-refl
p1054
I908
sVadjunct-adjunct_compar-comp-adjunct
p1055
I652
sVobj_th-adjunct-comp-conjunct-comp-ne
p1056
I1192
sVcomp-comp_fin-pd-pre_coord-mwe
p1057
I1034
sVadjunct-comp_fin-adjunct-punct
p1058
I351
sVconjunct-comp-comp_fin-adjunct-ne
p1059
I1041
sVadjunct-conjunct-comp_fin-conjunct-subj
p1060
I1179
sVadjunct-comp-conjunct-app
p1061
I502
sVcomp-comp_fin-adjunct-ne
p1062
I1042
sVsubj-adjunct-conjunct-pd-adjunct-comp
p1063
I875
sVadjunct_rc-adjunct-conjunct
p1064
I1259
sVcomp_inf-comp-comp_fin-subj-adjunct-comp-adjunct
p1065
I1385
sVadjunct_rc-adjunct-ne
p1066
I1138
sVcomp-adjunct-obj
p1067
I1076
sVadjunct-comp_inf-adjunct-comp-adjunct
p1068
I967
sVobj-conjunct-adjunct-punct
p1069
I801
sVadjunct-mwe-comp-adjunct-comp-ne
p1070
I1212
sVadjunct-mwe-conjunct-ne
p1071
I1371
sVcomp-conjunct-punct
p1072
I366
sVcomp-adjunct-abbrev_punct
p1073
I837
sVroot-adjunct-comp_fin
p1074
I763
sVconjunct-obj-conjunct-adjunct
p1075
I90
sVcomp_fin-conjunct-adjunct_rc-comp_inf-obj-comp_fin
p1076
I1095
sVadjunct-comp-adjunct
p1077
I3
sVcomp-subj-adjunct-conjunct-pd
p1078
I861
sVobj-conjunct-comp
p1079
I776
sVcomp_fin-conjunct-obj
p1080
I45
sVcomp_fin-pd-conjunct-obj-ne
p1081
I1116
sVconjunct-comp-obj
p1082
I630
sVadjunct-comp-adjunct-mwe-conjunct
p1083
I1374
sVcomp-obj
p1084
I238
sVsubj-app
p1085
I70
sVconjunct-adjunct-comp-ne
p1086
I671
sVconjunct-comp-comp_fin-comp_inf-obj
p1087
I1224
sVsubj-adjunct_rc-punct-conjunct-pd-comp
p1088
I1391
sVcomp-comp_fin-conjunct-adjunct-mwe-comp-adjunct
p1089
I41
sVobj_th-adjunct-obj-adjunct-conjunct-obj-adjunct
p1090
I900
sVcomp-adjunct-subj-adjunct_rc-adjunct
p1091
I729
sVcomp_fin-obj_th-comp
p1092
I770
sVne-adjunct
p1093
I703
sVapp-adjunct
p1094
I114
sVcomp-adjunct-subj-adjunct
p1095
I757
sVsubj-comp-adjunct-comp-adjunct
p1096
I503
sVcomp_fin-comp_inf-adjunct_compar-comp_fin-subj-adjunct-conjunct-adjunct-conjunct
p1097
I1299
sVconjunct-obj-punct
p1098
I933
sVcomp-comp_fin-adjunct-comp_fin-adjunct-punct
p1099
I345
sVcomp-adjunct-comp-adjunct_rc-comp
p1100
I577
sVconjunct-aux-neg
p1101
I1341
sVconjunct-obj-conjunct-comp
p1102
I1339
sVadjunct_qt-adjunct-comp-adjunct-comp-adjunct-comp
p1103
I540
sVcomp_ag-comp-abbrev_punct
p1104
I1086
sVcomp_inf-pd-adjunct-punct
p1105
I614
sVobj-ne
p1106
I237
sVconjunct-adjunct_qt-adjunct-conjunct-ne
p1107
I994
sVconjunct-comp_fin-obj
p1108
I835
sVsubj-adjunct_rc-adjunct-comp
p1109
I1251
sVcomp_fin-pd-mwe-adjunct_rc-punct
p1110
I144
sVcomp-comp_fin-comp_inf-obj_th
p1111
I895
sVcomp-adjunct-conjunct-adjunct-comp-ne
p1112
I673
sVconjunct-pd-adjunct-comp-punct
p1113
I321
sVadjunct-conjunct-adjunct
p1114
I179
sVcomp-comp_fin-adjunct-comp_fin-adjunct-comp_fin-adjunct-comp
p1115
I331
sVapp-adjunct-app-adjunct-conjunct-adjunct_qt-adjunct-conjunct-punct
p1116
I1005
sVadjunct_qt-comp
p1117
I264
sVcomp_inf-obj-adjunct_rc-comp_inf-obj_th-adjunct
p1118
I697
sVconjunct-obj-adjunct-comp-conjunct-adjunct
p1119
I441
sVcomp_fin-subj-adjunct-conjunct
p1120
I1306
sVadjunct_qt-punct
p1121
I266
sVadjunct-comp_inf-conjunct-subj
p1122
I1413
sVmwe-adjunct-mwe-adjunct-mwe-adjunct_compar
p1123
I597
sVadjunct-comp-comp_fin-refl
p1124
I1109
sVobj-conjunct-obj
p1125
I88
sVadjunct-conjunct-pd-adjunct
p1126
I879
sVconjunct-adjunct-comp-adjunct-punct
p1127
I1134
sVcomp-app-ne
p1128
I815
sVobj-adjunct_rc-punct
p1129
I688
sVcomp-comp_fin-conjunct-adjunct-comp-adjunct
p1130
I341
sVconjunct-pd
p1131
I253
sVconjunct-adjunct-comp-obj-adjunct
p1132
I478
sVadjunct-conjunct-obj-adjunct
p1133
I408
sVcomp-adjunct_rc-adjunct_qt-adjunct-comp-adjunct
p1134
I547
sVadjunct_rc-comp_inf-obj_th
p1135
I689
sVcomp-adjunct-comp-adjunct-comp_ag
p1136
I1434
sVcomp_inf-obj-conjunct-comp
p1137
I775
sVcomp-adjunct-comp-adjunct_rc-adjunct_qt-adjunct-comp
p1138
I556
sVadjunct-conjunct-obj-comp
p1139
I374
sVcomp_inf-obj_th-adjunct-subj
p1140
I913
sVpd-adjunct-obj-adjunct
p1141
I447
sVadjunct-mwe-adjunct
p1142
I605
sVcomp_fin-conjunct-obj_th-punct
p1143
I46
sVpunct
p1144
I4
sVcomp-comp_fin-conjunct-adjunct-mwe
p1145
I20
sVcomp-comp_fin-conjunct-comp
p1146
I232
sVcomp-adjunct_rc
p1147
I1348
sVsubj-conjunct-adjunct-mwe
p1148
I1129
sVcomp-adjunct_rc-adjunct_qt-adjunct
p1149
I548
sVconjunct-adjunct_rc-refl
p1150
I1428
sVadjunct-comp-adjunct-conjunct-app-punct
p1151
I663
sVapp
p1152
I12
sVcomp-adjunct-mwe-conjunct-ne
p1153
I1379
sVadjunct-comp_inf-conjunct-adjunct-obj
p1154
I1410
sVconjunct-punct
p1155
I250
sVcomp-adjunct-obj-adjunct
p1156
I1079
sVcomp_inf-adjunct_compar-comp_fin-subj-punct
p1157
I1302
sVcomp-conjunct-obj_th-conjunct-adjunct-comp-adjunct-conjunct-adjunct
p1158
I854
sVconjunct-adjunct-comp-adjunct-conjunct-adjunct-comp_inf-obj_th-adjunct-conjunct-comp
p1159
I1336
sVobj-conjunct-comp-comp_fin
p1160
I1051
sVconjunct-comp_inf-refl
p1161
I367
sVcomp-subj-app
p1162
I881
sVadjunct-comp-mwe
p1163
I302
sVcomp-comp_fin-punct
p1164
I344
sVapp-ne-adjunct
p1165
I980
sVconjunct-adjunct-comp_inf-obj
p1166
I440
sVadjunct_rc-pd-conjunct
p1167
I1425
sVadjunct-ne-adjunct-conjunct
p1168
I709
sVcomp-comp_fin-comp_inf-obj_th-adjunct-obj-adjunct-conjunct-obj
p1169
I917
sVadjunct-comp-adjunct-conjunct-adjunct-conjunct
p1170
I660
sVsubj-adjunct-mwe-adjunct_compar
p1171
I651
sVsubj-conjunct-obj_th
p1172
I1245
sVadjunct-comp-comp_fin-subj-adjunct-punct
p1173
I1038
sVconjunct-subj-adjunct
p1174
I204
sVobj-adjunct-comp-comp_fin-subj-adjunct-punct
p1175
I1037
sVadjunct-conjunct-adjunct-comp_fin-conjunct-adjunct-conjunct
p1176
I1099
sVcomp_inf-adjunct_compar-comp_fin-subj-adjunct-conjunct-adjunct-conjunct
p1177
I1300
sVcomp_inf-adjunct_compar-comp_fin-subj-adjunct-conjunct-adjunct-conjunct-adjunct
p1178
I1304
sVadjunct_rc-adjunct-punct
p1179
I962
sVsubj-adjunct_rc
p1180
I822
sVcomp_inf-comp-comp_fin-subj-adjunct_rc
p1181
I1389
sVsubj-mwe-app-conjunct-adjunct-punct
p1182
I640
sVcomp-adjunct-comp_ag-comp
p1183
I733
sVsubj-adjunct-comp_fin-adjunct
p1184
I789
sVconjunct-obj
p1185
I34
sVconjunct-comp-comp_fin-obj_th
p1186
I1048
sVadjunct_qt-adjunct-comp
p1187
I492
sVadjunct_qt-adjunct-punct
p1188
I490
sVadjunct-conjunct-comp_fin-conjunct-adjunct-comp
p1189
I1164
sVcomp-conjunct-adjunct-conjunct
p1190
I1190
sVadjunct-comp_fin-neg
p1191
I377
sVapp-ne-app-adjunct-app-adjunct-conjunct-adjunct_qt-adjunct-conjunct-punct
p1192
I1002
sVadjunct_rc-adjunct_qt-adjunct-comp-adjunct-comp
p1193
I538
sVsubj-adjunct-comp-adjunct-app-adjunct-comp-adjunct
p1194
I642
sVroot-comp_fin-obj_th-comp
p1195
I769
sVobj_th-adjunct
p1196
I120
sVconjunct-subj-app-ne
p1197
I168
sVcomp-adjunct-comp_inf-obj
p1198
I1204
sVconjunct-adjunct-punct
p1199
I272
sVpd-adjunct-comp
p1200
I448
sVadjunct-comp-adjunct_rc-subj
p1201
I586
sVadjunct_qt-adjunct
p1202
I263
sVcomp_inf-obj-adjunct-mwe-comp
p1203
I1207
sVcomp_inf-comp-comp_fin-comp-adjunct
p1204
I1281
sVadjunct-comp_fin-adjunct-comp_fin-adjunct-punct
p1205
I326
sVcomp-comp_fin-refl
p1206
I476
sVadjunct-conjunct-ne-adjunct
p1207
I979
sVadjunct-subj-ne
p1208
I130
sVadjunct-conjunct
p1209
I96
sVconjunct-adjunct-comp-adjunct-obj-adjunct
p1210
I1077
sVobj_th-conjunct-adjunct-comp-adjunct
p1211
I857
sVcomp-obj-adjunct
p1212
I477
sVconjunct-adjunct-comp_fin-subj-adjunct_rc-adjunct
p1213
I1345
sVcomp-comp_fin-comp_inf-obj_th-adjunct-obj-adjunct-conjunct-adjunct
p1214
I915
sVsubj-adjunct-aglt
p1215
I791
sVadjunct-obj-adjunct
p1216
I128
sVcomp-adjunct-comp-ne
p1217
I163
sVsubj-adjunct-comp-ne
p1218
I1080
sVsubj-adjunct-conjunct-pd-adjunct
p1219
I878
sVsubj-mwe
p1220
I639
sVadjunct-subj-conjunct-subj-adjunct_rc
p1221
I1230
sVcomp-adjunct-comp-adjunct
p1222
I275
sVsubj-adjunct-comp-abbrev_punct
p1223
I1081
sVcomp-comp_ag-comp
p1224
I624
sVconjunct-adjunct-obj-adjunct
p1225
I1403
sVapp-ne-app-adjunct-abbrev_punct
p1226
I988
sVconjunct-adjunct_rc
p1227
I1423
sVadjunct-mwe-adjunct-mwe-adjunct_compar
p1228
I599
sVsubj-adjunct_rc-obj
p1229
I732
sVconjunct-subj-app
p1230
I167
sVcomp_inf-comp-adjunct
p1231
I455
sVcomp-comp_fin-comp_inf-aux
p1232
I921
sVadjunct-app-adjunct
p1233
I611
sVcomp-ne-adjunct-comp
p1234
I286
sVconjunct-pd-adjunct-punct
p1235
I431
sVconjunct-comp_fin-conjunct-comp
p1236
I1173
sVadjunct-obj_th-adjunct-subj
p1237
I513
sVcomp_fin-adjunct-comp
p1238
I335
sVcomp_inf-comp-punct
p1239
I1279
sVadjunct_rc-pd-conjunct-adjunct-comp-adjunct
p1240
I1424
sVadjunct-mwe-comp-adjunct
p1241
I27
sVobj-adjunct-app
p1242
I1225
sVconjunct-comp-comp_ag-comp
p1243
I625
sVcomp-comp_fin-obj
p1244
I109
sVadjunct-pd-comp-adjunct
p1245
I379
sVpd-adjunct-subj
p1246
I618
sVcomp_fin-subj-adjunct
p1247
I131
sVcomp-conjunct-ne
p1248
I498
sVadjunct-conjunct-adjunct-comp_fin-conjunct-adjunct_rc-comp_inf-obj-comp_fin-adjunct-conjunct-adjunct_rc-pd-comp-conjunct-subj-adjunct-conjunct-adjunct-comp_fin-conjunct-obj-app
p1249
I1106
sVobj-adjunct-comp-comp_inf-comp-adjunct-comp-adjunct
p1250
I833
sVsubj-adjunct-subj-adjunct-comp-adjunct
p1251
I1361
sVcomp_fin-comp_inf-adjunct-comp
p1252
I743
sVsubj-adjunct-comp-adjunct-app-punct
p1253
I654
sVadjunct-mwe-comp
p1254
I78
sVapp-ne-app-punct
p1255
I972
sVadjunct-comp-adjunct_compar
p1256
I303
sVconjunct-obj-adjunct-conjunct
p1257
I682
sVcomp_fin-comp_inf-aux
p1258
I924
sVobj-conjunct-adjunct-obj
p1259
I805
sVcomp-comp_fin-adjunct
p1260
I102
sVadjunct-comp-adjunct_rc-subj-adjunct
p1261
I1352
sVsubj-conjunct-adjunct-comp
p1262
I428
sVconjunct-comp_fin
p1263
I362
sVconjunct-pd-adjunct-conjunct
p1264
I439
sVsubj-conjunct-adjunct
p1265
I429
sVmwe-comp-adjunct-comp-adjunct_rc-adjunct_qt-adjunct-comp
p1266
I557
sVpunct-subj-adjunct-pd
p1267
I247
sVobj-adjunct-ne
p1268
I187
sVadjunct-comp-adjunct_rc-adjunct_qt-adjunct-comp
p1269
I554
sVabbrev_punct-conjunct
p1270
I1358
sVobj_th-conjunct
p1271
I293
sVcomp_fin-subj-adjunct-subj-adjunct
p1272
I1066
sVobj_th-adjunct-comp-adjunct-comp-obj-adjunct-comp-adjunct
p1273
I517
sVcomp_fin-subj-adjunct-subj-punct
p1274
I1064
sVadjunct-comp_ag-comp
p1275
I207
sVsubj-adjunct
p1276
I71
sVobj-conjunct-comp-comp_fin-adjunct
p1277
I1052
sVcomp_fin-adjunct-comp_fin-adjunct-comp
p1278
I330
sVadjunct
p1279
I1
sVsubj-adjunct-conjunct-punct
p1280
I1027
sVconjunct-pd-adjunct
p1281
I252
sVadjunct-comp_fin-subj-adjunct-conjunct
p1282
I1024
sVcomp_fin-comp
p1283
I701
sVcomp-ne-comp
p1284
I413
sVadjunct-comp-ne
p1285
I164
sVcomp-adjunct-comp-obj-adjunct
p1286
I520
sVsubj-comp-ne-abbrev_punct
p1287
I427
sVcomp-adjunct-comp-adjunct_rc-punct
p1288
I566
sVconjunct-subj-comp
p1289
I43
sVadjunct_rc-subj-conjunct-app
p1290
I1436
sVsubj-comp_ag
p1291
I887
sVconjunct-adjunct-comp_inf-conjunct-comp
p1292
I1398
sVadjunct_rc
p1293
I591
sVadjunct-subj-adjunct-subj-comp
p1294
I684
sVcomp_fin-comp_inf-adjunct
p1295
I459
sVobj-adjunct-comp
p1296
I106
sVobj-adjunct_rc-comp_inf-obj_th
p1297
I691
sVconjunct-comp-conjunct
p1298
I1174
sVconjunct-subj-app-adjunct
p1299
I482
sVobj-adjunct-comp_ag-comp-abbrev_punct
p1300
I1082
sVcomp_fin-obj-adjunct-comp-comp_inf-obj
p1301
I834
sVadjunct-comp-conjunct-ne
p1302
I500
sVsubj-app-ne
p1303
I169
sVconjunct-comp_fin-comp_inf-adjunct_compar-comp_fin-subj-adjunct-conjunct-adjunct-conjunct-adjunct-conjunct
p1304
I1322
sVcomp-adjunct-ne
p1305
I386
sVadjunct-comp_inf-adjunct-comp
p1306
I968
sVcomp_inf-root-adjunct-comp-adjunct_compar-comp
p1307
I785
sVconjunct-subj
p1308
I82
sVcomp_inf-comp-conjunct-punct
p1309
I369
sVobj_th-adjunct-comp_ag-comp-adjunct
p1310
I118
sVne-app
p1311
I1017
sVadjunct_rc-obj
p1312
I937
sVadjunct-comp-adjunct-punct
p1313
I235
sVadjunct-comp-adjunct-obj_th-adjunct-root-subj-punct
p1314
I483
sVadjunct-root-comp-adjunct
p1315
I1018
sVobj-app-punct
p1316
I947
sVcomp-adjunct-comp-adjunct_rc-comp-adjunct
p1317
I581
sVne-app-punct
p1318
I973
sVsubj-punct
p1319
I72
sVpd-adjunct-comp-obj
p1320
I1197
sVcomp_inf-adjunct-obj-adjunct
p1321
I800
sVcomp_fin-subj-adjunct-conjunct-adjunct-conjunct
p1322
I1311
sVsubj-adjunct_rc-adjunct
p1323
I1241
sVadjunct_rc-adjunct-comp
p1324
I1253
sVadjunct_qt-comp-adjunct-conjunct
p1325
I269
sVroot-conjunct-adjunct_rc-punct
p1326
I309
sVobj-comp
p1327
I372
sVcomp_inf-comp-conjunct-adjunct
p1328
I363
sVadjunct-app
p1329
I290
sVcomp_ag-comp-app-ne
p1330
I814
sVcomp_fin-adjunct-comp_fin-adjunct-comp_fin-adjunct
p1331
I337
sVsubj-adjunct-pd
p1332
I244
sVconjunct-obj_th-adjunct-comp-adjunct
p1333
I258
sVadjunct-comp_ag-comp-abbrev_punct
p1334
I1085
sVadjunct-comp_inf-obj
p1335
I443
sVadjunct_compar-comp_fin-subj-punct
p1336
I1303
sVapp-ne-app-adjunct-punct
p1337
I974
sVcomp-comp_fin-comp_inf
p1338
I462
sVconjunct-app
p1339
I398
sVadjunct-comp-adjunct_rc-adjunct_qt-adjunct
p1340
I559
sVadjunct-subj-conjunct-subj
p1341
I1243
sVobj-app-adjunct_rc-subj
p1342
I939
sVobj-adjunct-mwe
p1343
I719
sVadjunct-mwe-comp-adjunct-conjunct-comp-adjunct
p1344
I190
sVpunct-subj-adjunct-pd-adjunct
p1345
I241
sVsubj-adjunct-subj-conjunct-subj
p1346
I1242
sVconjunct-comp_ag-comp-adjunct
p1347
I231
sVcomp_inf-comp-conjunct-comp_fin
p1348
I360
sVcomp_fin-obj-adjunct
p1349
I717
sVobj-adjunct-comp-comp_inf-adjunct
p1350
I844
sVconjunct-adjunct-comp-adjunct_rc-subj-adjunct
p1351
I1349
sVcomp-adjunct-comp
p1352
I113
sVadjunct_rc-subj-conjunct-adjunct-ne
p1353
I1437
sVapp-adjunct_rc-subj
p1354
I948
sVcomp_inf-comp-adjunct-comp-adjunct
p1355
I391
sVadjunct-subj-obj
p1356
I416
sVcomp_fin-conjunct-adjunct-comp
p1357
I16
sVconjunct-comp_fin-obj-adjunct-comp-comp_inf-adjunct
p1358
I843
sVadjunct-comp-ne-adjunct-comp
p1359
I285
sVcomp-comp_fin-conjunct-adjunct
p1360
I29
sVconjunct-comp-adjunct-comp-adjunct
p1361
I1137
sVapp-adjunct-comp-adjunct-obj-adjunct
p1362
I1438
sVadjunct-obj_th-obj
p1363
I126
sVconjunct-comp-comp_fin-adjunct
p1364
I1047
sVpd-root
p1365
I306
sVconjunct-comp_fin-subj
p1366
I368
sVrefl
p1367
I201
sVcomp-adjunct-comp_inf-adjunct
p1368
I1200
sVadjunct-subj-comp-adjunct
p1369
I716
sVadjunct-conjunct-adjunct-comp_fin-conjunct-adjunct_rc-comp_inf-obj-comp_fin-adjunct-conjunct-adjunct_rc-pd-comp-conjunct-subj-adjunct-conjunct-adjunct-comp_fin-conjunct-obj
p1370
I1105
sVcomp-mwe
p1371
I1198
sVsubj-adjunct_rc-obj-adjunct
p1372
I727
sVadjunct-root
p1373
I686
sVadjunct-comp-adjunct_rc-comp-adjunct-comp
p1374
I579
sVcomp-comp_fin-conjunct-adjunct-comp
p1375
I62
sVcomp-comp_fin-comp_inf-comp-adjunct-comp-adjunct
p1376
I392
sVcomp_ag-comp-app
p1377
I819
sVcomp-subj-adjunct-conjunct-adjunct
p1378
I865
sVcomp-comp_fin-aux
p1379
I718
sVadjunct_rc-subj
p1380
I316
sVconjunct-adjunct-conjunct-adjunct-comp-adjunct
p1381
I1444
sVadjunct-obj_th-adjunct-comp-adjunct-comp
p1382
I527
sVadjunct-subj-conjunct-comp
p1383
I1248
sVcomp-adjunct-subj-adjunct_rc-punct
p1384
I728
sVadjunct-comp_inf-conjunct-adjunct
p1385
I1399
sVsubj-adjunct-mwe-subj-mwe-comp
p1386
I643
sVcomp-subj-app-adjunct-punct
p1387
I883
sVadjunct_rc-obj-adjunct
p1388
I725
sVcomp-comp_fin-subj-adjunct-comp-adjunct
p1389
I1386
sVconjunct-adjunct-comp_inf
p1390
I432
sVcomp-comp_fin-comp_inf-obj_th-adjunct-obj-adjunct-conjunct
p1391
I920
sVcomp_inf-comp-comp_fin-subj
p1392
I1282
sVpd-mwe
p1393
I151
sVcomp_fin-comp_inf-obj_th-adjunct
p1394
I923
sNI0
sVcomp_fin-adjunct-comp_fin-adjunct-comp_fin-subj
p1395
I349
sVadjunct-subj-conjunct-adjunct-mwe
p1396
I1132
sVadjunct-app-adjunct-mwe
p1397
I289
sVcomp_inf-adjunct-obj-comp-adjunct
p1398
I795
sVsubj-adjunct-mwe-subj-mwe
p1399
I644
sVapp-adjunct_rc-punct
p1400
I940
sVadjunct-comp_fin-adjunct-comp
p1401
I334
sVcomp_inf-conjunct-subj
p1402
I1412
sVcomp-comp_fin-adjunct-comp_fin-adjunct-comp_fin
p1403
I343
sVpd-conjunct-obj-ne
p1404
I1118
sVadjunct-pd-comp-adjunct-punct
p1405
I378
sVcomp_fin-adjunct-punct
p1406
I347
sVadjunct-mwe
p1407
I18
sVroot-comp_fin-adjunct
p1408
I768
sVcomp-ne-abbrev_punct
p1409
I426
sVcomp_ag-adjunct
p1410
I1355
sVconjunct-comp_ag-comp
p1411
I218
sVconjunct-adjunct-mwe-comp-abbrev_punct
p1412
I64
sVapp-ne-adjunct-conjunct
p1413
I977
sVcomp_fin-obj-adjunct-comp
p1414
I825
sVconjunct-adjunct-subj-adjunct-comp-adjunct-comp
p1415
I222
sVcomp_inf-adjunct_compar-comp_fin-subj-adjunct-conjunct-adjunct-conjunct-adjunct-conjunct
p1416
I1320
sVmwe-comp_fin
p1417
I148
sVsubj-adjunct_rc-comp
p1418
I1350
sVadjunct-obj-comp-adjunct
p1419
I796
sVadjunct-mwe-abbrev_punct
p1420
I401
sVmwe-conjunct
p1421
I1372
sVsubj-comp-ne
p1422
I425
sVcomp-comp_fin-conjunct-cond
p1423
I59
sVapp-ne-app-adjunct
p1424
I970
sVsubj-adjunct-pd-adjunct
p1425
I245
sVconjunct-comp_fin-comp_inf-comp
p1426
I1294
sVobj-conjunct
p1427
I86
sVne-punct
p1428
I420
sVconjunct-subj-adjunct-comp-adjunct
p1429
I382
sVconjunct-adjunct-conjunct-ne
p1430
I1181
sVadjunct-conjunct-obj-mwe
p1431
I375
sVconjunct-adjunct-conjunct-punct
p1432
I631
sVadjunct-comp_fin-subj-adjunct-neg
p1433
I1061
sVpd-comp-adjunct
p1434
I380
sVcomp_fin-adjunct-pd
p1435
I1152
sVadjunct-obj-adjunct-comp
p1436
I632
sVcomp-comp_fin-conjunct
p1437
I47
sVcomp_fin-comp_ag-punct
p1438
I507
sVconjunct-subj-ne
p1439
I259
sVadjunct-comp-obj-adjunct
p1440
I479
sVne-app-adjunct
p1441
I976
sVcomp-obj-adjunct-conjunct
p1442
I172
sVcomp-comp_fin-comp_inf-comp
p1443
I389
sVconjunct-comp_fin-conjunct-subj-adjunct
p1444
I1176
sVobj-adjunct_compar-comp
p1445
I1221
sVadjunct-comp-adjunct-comp-adjunct-comp
p1446
I546
sVcomp_inf-comp-comp_fin
p1447
I1276
sVsubj-adjunct-conjunct
p1448
I874
sVadjunct-comp_inf-conjunct-comp-adjunct
p1449
I1420
sVadjunct-comp-adjunct_rc-punct
p1450
I574
sVconjunct-adjunct-comp-comp_fin-conjunct-neg
p1451
I224
sVadjunct-subj-conjunct-adjunct-mwe-comp
p1452
I1124
sVobj_th-app
p1453
I792
sVcomp-adjunct-comp-adjunct-conjunct-adjunct-conjunct
p1454
I675
sVobj_th-adjunct-comp-adjunct
p1455
I528
sVaglt
p1456
I450
sVcomp-comp_fin-subj-adjunct
p1457
I1087
sVconjunct-adjunct-abbrev_punct
p1458
I1333
sVadjunct-obj_th-adjunct-subj-adjunct
p1459
I522
sVadjunct-conjunct-adjunct-conjunct-adjunct-comp-adjunct
p1460
I1103
ssVdependency_bag
p1461
(dp1462
Vadjunct,conjunct,obj,pd,root,subj,
p1463
I2281
sVadjunct,comp,obj,root,subj,
p1464
I476
sVadjunct,comp_fin,neg,obj,root,subj,
p1465
I1016
sVadjunct,adjunct_rc,comp,mwe,root,subj,
p1466
I1312
sVapp,obj,root,subj,
p1467
I424
sVadjunct,conjunct,ne,root,subj,
p1468
I417
sVadjunct_rc,comp_inf,obj,root,
p1469
I559
sVadjunct,app,comp,comp_fin,obj,root,
p1470
I67
sVadjunct,comp,comp_fin,conjunct,obj_th,punct,root,
p1471
I1738
sVadjunct_compar,comp,comp_inf,conjunct,obj,pd,root,
p1472
I1374
sVabbrev_punct,adjunct,comp,comp_ag,obj,root,
p1473
I1841
sVadjunct,comp,comp_ag,comp_fin,root,
p1474
I2002
sVadjunct_qt,comp,comp_fin,conjunct,obj_th,root,
p1475
I2139
sVadjunct,aux,cond,conjunct,root,
p1476
I2067
sVadjunct,adjunct_qt,comp,comp_fin,mwe,root,
p1477
I102
sVadjunct,comp,comp_inf,conjunct,obj,refl,root,subj,
p1478
I83
sVobj,obj_th,root,
p1479
I1028
sVadjunct_qt,comp,comp_fin,root,
p1480
I716
sVadjunct,app,obj_th,root,subj,
p1481
I2175
sVadjunct_rc,comp_inf,mwe,obj,root,
p1482
I560
sVcomp_inf,conjunct,neg,root,
p1483
I192
sVadjunct,adjunct_rc,obj,pre_coord,root,
p1484
I416
sVadjunct,conjunct,obj,root,
p1485
I126
sVcomp_fin,conjunct,obj,obj_th,root,subj,
p1486
I1100
sVadjunct,neg,pd,root,
p1487
I1550
sVadjunct,comp,comp_fin,comp_inf,punct,root,
p1488
I1439
sVadjunct,app,comp,ne,punct,root,
p1489
I1026
sVcomp,comp_fin,
p1490
I815
sVcomp_fin,conjunct,ne,obj_th,root,
p1491
I1820
sVadjunct,app,comp,comp_fin,obj,root,subj,
p1492
I68
sVadjunct,comp,conjunct,ne,obj,root,
p1493
I287
sVadjunct,adjunct_qt,comp,obj,root,
p1494
I952
sVadjunct,adjunct_qt,comp,comp_fin,conjunct,refl,root,subj,
p1495
I1691
sVadjunct,aux,conjunct,refl,root,
p1496
I318
sVadjunct,adjunct_rc,conjunct,pd,root,
p1497
I1648
sVadjunct,comp_inf,root,
p1498
I175
sVadjunct,adjunct_qt,app,conjunct,mwe,punct,root,
p1499
I1724
sVadjunct,conjunct,ne,pd,punct,root,
p1500
I2263
sVadjunct,adjunct_qt,ne,obj_th,root,
p1501
I1835
sVapp,comp,root,
p1502
I1239
sVadjunct_rc,comp,conjunct,mwe,obj_th,punct,root,
p1503
I1298
sVadjunct,aux,comp,root,
p1504
I1481
sVadjunct,adjunct_rc,comp_inf,conjunct,root,subj,
p1505
I1269
sVcomp,comp_fin,conjunct,pd,root,
p1506
I1129
sVadjunct,app,comp_ag,root,subj,
p1507
I1479
sVcomp,mwe,obj,punct,root,
p1508
I1905
sVapp,ne,pd,root,
p1509
I500
sVcomp,obj_th,root,
p1510
I441
sVadjunct,comp,comp_fin,mwe,root,
p1511
I529
sVadjunct,obj_th,pd,root,
p1512
I1416
sVadjunct,app,comp,ne,obj_th,root,subj,
p1513
I1836
sVadjunct,adjunct_rc,comp,comp_inf,punct,root,
p1514
I1220
sVadjunct,adjunct_rc,comp,comp_fin,obj,punct,root,subj,
p1515
I1088
sVadjunct_qt,obj_th,pd,root,
p1516
I2187
sVadjunct,adjunct_qt,comp,comp_fin,conjunct,punct,root,
p1517
I1634
sVadjunct,aux,pd,root,
p1518
I963
sVadjunct,app,conjunct,obj,punct,root,subj,
p1519
I383
sVadjunct_rc,comp_fin,conjunct,obj,root,
p1520
I1057
sVcomp,comp_fin,pd,root,subj,
p1521
I1070
sVcomp_fin,comp_inf,obj,root,
p1522
I154
sVadjunct,comp,comp_fin,conjunct,mwe,punct,root,subj,
p1523
I2180
sVadjunct,comp_fin,comp_inf,conjunct,pd,root,
p1524
I1879
sVadjunct_rc,comp,comp_fin,obj,root,subj,
p1525
I1631
sVcomp,ne,root,subj,
p1526
I1034
sVaux,conjunct,neg,root,
p1527
I855
sVconjunct,root,subj,
p1528
I53
sVneg,obj,root,
p1529
I1547
sVadjunct_qt,conjunct,punct,root,
p1530
I123
sVaux,comp_fin,comp_inf,root,subj,
p1531
I1305
sVadjunct,comp_fin,ne,obj_th,root,
p1532
I2060
sVadjunct,adjunct_qt,conjunct,imp,obj,root,
p1533
I2315
sVcomp,comp_fin,comp_inf,neg,root,
p1534
I1532
sVadjunct,adjunct_rc,comp_inf,conjunct,refl,root,
p1535
I1935
sVadjunct_rc,conjunct,obj,pd,root,
p1536
I624
sVadjunct,comp_inf,conjunct,obj,obj_th,punct,root,
p1537
I1287
sVadjunct,adjunct_rc,comp_fin,conjunct,root,subj,
p1538
I1745
sVadjunct,adjunct_rc,obj_th,refl,root,
p1539
I1273
sVadjunct,adjunct_qt,comp,comp_fin,obj_th,root,
p1540
I2159
sVadjunct,comp,conjunct,mwe,root,subj,
p1541
I465
sVadjunct,comp,obj,obj_th,root,
p1542
I674
sVcomp_inf,root,
p1543
I49
sVadjunct_compar,conjunct,punct,root,
p1544
I897
sVcomp,conjunct,mwe,obj_th,root,
p1545
I2201
sVadjunct,comp,comp_fin,ne,pd,root,subj,
p1546
I1526
sVadjunct,comp,conjunct,obj,root,
p1547
I128
sVabbrev_punct,adjunct,conjunct,root,subj,
p1548
I915
sVadjunct,app,comp,conjunct,ne,obj_th,root,
p1549
I574
sVconjunct,mwe,obj,root,
p1550
I2050
sVapp,conjunct,punct,root,subj,
p1551
I1165
sVabbrev_punct,comp,pd,root,
p1552
I1045
sVadjunct,aux,comp,comp_fin,obj,root,subj,
p1553
I2295
sVadjunct,aux,comp,conjunct,root,subj,
p1554
I934
sVadjunct,adjunct_rc,comp,conjunct,mwe,ne,obj_th,root,
p1555
I1292
sVadjunct,adjunct_rc,comp_fin,comp_inf,conjunct,obj,punct,root,subj,
p1556
I162
sVadjunct,adjunct_rc,comp,punct,root,
p1557
I455
sVadjunct,adjunct_rc,comp,conjunct,neg,root,
p1558
I1700
sVadjunct,adjunct_rc,obj,punct,root,subj,
p1559
I1036
sVadjunct,comp,comp_fin,comp_inf,neg,obj,root,subj,
p1560
I2065
sVabbrev_punct,adjunct,comp,mwe,root,
p1561
I919
sVadjunct,adjunct_rc,conjunct,refl,root,
p1562
I1956
sVadjunct,app,comp,conjunct,obj_th,root,
p1563
I575
sVadjunct,adjunct_rc,comp_fin,punct,root,
p1564
I2012
sVadjunct,adjunct_qt,obj,root,
p1565
I951
sVcomp_fin,conjunct,obj,punct,root,
p1566
I392
sVcomp,comp_fin,comp_inf,conjunct,root,subj,
p1567
I186
sVcomp,mwe,ne,root,
p1568
I1650
sVadjunct,comp,conjunct,neg,obj,root,subj,
p1569
I93
sVadjunct_qt,adjunct_rc,comp,comp_fin,conjunct,obj,pd,root,
p1570
I602
sVadjunct_rc,comp,refl,root,
p1571
I1586
sVadjunct,adjunct_compar,app,comp,comp_fin,conjunct,ne,root,subj,
p1572
I1784
sVcomp,comp_fin,obj_th,root,
p1573
I315
sVadjunct,comp,neg,obj_th,root,
p1574
I1545
sVadjunct,adjunct_qt,comp,comp_fin,comp_inf,conjunct,obj,root,
p1575
I1851
sVadjunct_qt,ne,root,subj,
p1576
I730
sVadjunct,comp,comp_fin,comp_inf,pd,root,
p1577
I1115
sVadjunct,adjunct_rc,comp,pd,refl,root,subj,
p1578
I1818
sVadjunct,conjunct,ne,punct,root,subj,
p1579
I573
sVadjunct,app,comp,conjunct,mwe,punct,root,
p1580
I1407
sVcomp,root,subj,
p1581
I351
sVapp,comp,conjunct,ne,obj,root,
p1582
I786
sVadjunct_qt,comp_ag,root,
p1583
I1977
sVadjunct,app,comp,comp_inf,root,
p1584
I46
sVapp,obj,punct,root,
p1585
I331
sVadjunct_rc,app,root,subj,
p1586
I1404
sVadjunct_compar,root,
p1587
I970
sVadjunct,comp,comp_fin,root,subj,
p1588
I178
sVcomp_fin,comp_inf,obj,punct,root,
p1589
I446
sVadjunct_compar,conjunct,punct,root,subj,
p1590
I2122
sVadjunct,adjunct_rc,comp,conjunct,mwe,root,subj,
p1591
I2126
sVadjunct,app,comp,conjunct,punct,root,
p1592
I553
sVabbrev_punct,adjunct,app,comp,ne,pd,root,
p1593
I34
sVadjunct,comp,comp_ag,comp_fin,conjunct,root,
p1594
I2254
sVcomp,conjunct,obj,refl,root,
p1595
I1815
sVadjunct,comp,obj,punct,root,subj,
p1596
I477
sVabbrev_punct,adjunct,comp_inf,conjunct,obj,root,
p1597
I1373
sVadjunct,adjunct_compar,comp,comp_fin,conjunct,mwe,obj,root,subj,
p1598
I2079
sVadjunct,adjunct_qt,comp,comp_fin,conjunct,pd,root,subj,
p1599
I221
sVapp,comp,comp_fin,conjunct,root,subj,
p1600
I1732
sVadjunct,adjunct_compar,comp_fin,comp_inf,conjunct,obj_th,root,
p1601
I2165
sVadjunct,conjunct,obj,pre_coord,root,
p1602
I2056
sVapp,comp_fin,comp_inf,conjunct,obj,root,
p1603
I444
sVcomp_fin,conjunct,root,
p1604
I124
sVadjunct_qt,conjunct,neg,root,subj,
p1605
I1039
sVcomp,conjunct,obj_th,refl,root,
p1606
I1426
sVadjunct,adjunct_qt,adjunct_rc,obj,obj_th,root,
p1607
I615
sVadjunct_compar,comp,comp_inf,conjunct,root,
p1608
I898
sVadjunct_compar,comp,comp_fin,cond,conjunct,root,
p1609
I1602
sVadjunct_rc,conjunct,punct,root,subj,
p1610
I1511
sVadjunct,adjunct_rc,comp,conjunct,mwe,obj,root,subj,
p1611
I2303
sVadjunct,adjunct_compar,adjunct_qt,comp,comp_fin,comp_inf,pd,root,subj,
p1612
I2157
sVadjunct,adjunct_qt,comp,root,
p1613
I471
sVadjunct,comp,conjunct,ne,root,
p1614
I31
sVadjunct,app,comp,conjunct,mwe,root,
p1615
I520
sVcomp,comp_fin,comp_inf,root,subj,
p1616
I2096
sVadjunct_rc,obj,refl,root,
p1617
I1066
sVadjunct,app,comp,comp_fin,comp_inf,conjunct,obj,root,
p1618
I445
sVadjunct,app,pd,root,
p1619
I427
sVadjunct_rc,root,
p1620
I557
sVcomp,comp_fin,conjunct,obj_th,root,subj,
p1621
I2094
sVadjunct,conjunct,refl,root,
p1622
I139
sVadjunct,adjunct_rc,conjunct,mwe,root,subj,
p1623
I2125
sVadjunct_rc,conjunct,punct,root,
p1624
I1735
sVapp,conjunct,ne,punct,root,
p1625
I1751
sVadjunct,comp,comp_inf,mwe,root,
p1626
I461
sVadjunct,app,ne,punct,root,subj,
p1627
I2302
sVcomp_fin,conjunct,obj_th,root,subj,
p1628
I1104
sVadjunct,comp,comp_inf,conjunct,obj,punct,root,
p1629
I196
sVadjunct,comp_fin,obj_th,punct,root,
p1630
I371
sVadjunct,conjunct,
p1631
I1868
sVabbrev_punct,adjunct,adjunct_rc,comp,root,subj,
p1632
I1266
sVadjunct,conjunct,neg,root,
p1633
I584
sVabbrev_punct,adjunct,comp,mwe,obj,root,
p1634
I887
sVadjunct,mwe,pd,punct,root,
p1635
I1971
sVadjunct,adjunct_qt,conjunct,punct,root,
p1636
I613
sVadjunct,comp,mwe,
p1637
I1520
sVaux,conjunct,root,subj,
p1638
I775
sVadjunct,aux,comp,comp_fin,comp_inf,root,
p1639
I1927
sVadjunct_qt,comp,
p1640
I1675
sVcomp,comp_ag,pd,root,
p1641
I1798
sVadjunct_compar,comp,obj,root,
p1642
I2029
sVadjunct,comp_inf,conjunct,root,subj,
p1643
I190
sVadjunct,adjunct_qt,comp,comp_fin,obj,pd,root,subj,
p1644
I1327
sVconjunct,mwe,root,
p1645
I688
sVabbrev_punct,adjunct,comp,obj_th,root,
p1646
I1172
sVadjunct,conjunct,mwe,root,subj,
p1647
I501
sVadjunct,aux,neg,root,
p1648
I590
sVadjunct,obj,pre_coord,root,subj,
p1649
I2059
sVadjunct,adjunct_compar,comp,pd,punct,root,
p1650
I1522
sVadjunct,adjunct_rc,app,comp,conjunct,obj,root,
p1651
I744
sVadjunct,adjunct_qt,conjunct,mwe,punct,root,
p1652
I1007
sVadjunct,adjunct_rc,app,comp,comp_fin,comp_inf,conjunct,obj,root,subj,
p1653
I70
sVadjunct,comp_inf,obj_th,root,
p1654
I294
sVadjunct,comp_fin,root,
p1655
I231
sVadjunct,app,ne,obj_th,root,subj,
p1656
I2176
sVadjunct_compar,comp_fin,refl,root,
p1657
I1553
sVadjunct,adjunct_compar,comp,comp_fin,conjunct,root,subj,
p1658
I1106
sVadjunct,adjunct_rc,comp_fin,obj,pd,root,
p1659
I1215
sVadjunct,comp,comp_inf,conjunct,obj_th,root,
p1660
I1356
sVconjunct,obj_th,punct,root,
p1661
I939
sVadjunct_rc,conjunct,obj,punct,root,
p1662
I1994
sVpd,refl,root,
p1663
I1529
sVadjunct,comp,comp_ag,punct,root,subj,
p1664
I2235
sVcond,root,
p1665
I147
sVadjunct,app,obj,root,
p1666
I420
sVadjunct,comp,comp_inf,pd,root,subj,
p1667
I2154
sVadjunct,adjunct_compar,comp,comp_inf,conjunct,mwe,root,
p1668
I905
sVadjunct,comp,comp_inf,neg,root,
p1669
I1364
sVadjunct,app,comp,comp_fin,ne,punct,root,subj,
p1670
I1710
sVabbrev_punct,adjunct,comp_fin,conjunct,obj,root,
p1671
I1616
sVadjunct_compar,comp,ne,root,
p1672
I2286
sVadjunct,comp,conjunct,mwe,root,
p1673
I443
sVapp,ne,root,subj,
p1674
I259
sVadjunct,adjunct_rc,app,comp_inf,conjunct,obj,root,
p1675
I740
sVconjunct,refl,root,
p1676
I142
sVapp,comp_fin,conjunct,root,subj,
p1677
I1346
sVadjunct,app,ne,obj,obj_th,root,
p1678
I242
sVabbrev_punct,adjunct,comp,conjunct,root,subj,
p1679
I1038
sVadjunct,adjunct_compar,comp,comp_ag,conjunct,root,
p1680
I513
sVadjunct,comp,comp_fin,comp_inf,conjunct,obj,obj_th,pre_coord,root,
p1681
I2234
sVadjunct_rc,conjunct,obj_th,root,subj,
p1682
I1512
sVadjunct,aglt,comp,comp_fin,root,
p1683
I1534
sVadjunct,aglt,comp_fin,root,
p1684
I1150
sVadjunct,adjunct_qt,app,comp,mwe,root,
p1685
I1685
sVaux,root,
p1686
I17
sVadjunct,comp,mwe,ne,obj,root,subj,
p1687
I883
sVadjunct,adjunct_rc,comp,pd,punct,root,subj,
p1688
I1817
sVadjunct,comp,comp_fin,conjunct,pd,root,subj,
p1689
I1069
sVadjunct,aglt,root,subj,
p1690
I1561
sVadjunct,comp,comp_fin,conjunct,mwe,pd,root,subj,
p1691
I2183
sVcomp_fin,mwe,obj,punct,root,
p1692
I1984
sVadjunct,adjunct_qt,item,root,
p1693
I923
sVapp,comp_inf,obj,root,
p1694
I1173
sVadjunct,comp,comp_fin,conjunct,obj,obj_th,punct,root,subj,
p1695
I1098
sVobj,pd,root,
p1696
I651
sVadjunct,comp,mwe,punct,root,
p1697
I459
sVadjunct,adjunct_compar,adjunct_qt,comp,comp_fin,comp_inf,conjunct,root,
p1698
I1542
sVadjunct,comp_ag,obj_th,root,
p1699
I349
sVcomp,pd,root,
p1700
I15
sVadjunct_compar,comp,comp_inf,root,
p1701
I903
sVadjunct_rc,conjunct,obj_th,root,
p1702
I2238
sVadjunct,adjunct_qt,adjunct_rc,root,subj,
p1703
I986
sVcomp,comp_fin,mwe,obj_th,root,
p1704
I2063
sVadjunct,adjunct_rc,comp_fin,conjunct,obj,root,
p1705
I369
sVadjunct_rc,comp_fin,conjunct,root,subj,
p1706
I1746
sVcomp_ag,mwe,root,
p1707
I2197
sVcomp,conjunct,ne,
p1708
I812
sVcomp,comp_ag,conjunct,root,
p1709
I285
sVcomp_fin,mwe,root,
p1710
I1280
sVadjunct,comp_ag,conjunct,ne,root,
p1711
I912
sVadjunct,comp,pd,punct,root,
p1712
I39
sVadjunct,conjunct,pd,root,subj,
p1713
I581
sVadjunct,adjunct_rc,conjunct,ne,root,subj,
p1714
I1821
sVadjunct,comp,comp_ag,conjunct,obj,root,subj,
p1715
I1829
sVapp,root,subj,
p1716
I5
sVadjunct,adjunct_rc,comp_fin,conjunct,neg,obj,root,
p1717
I368
sVadjunct,adjunct_qt,comp,comp_fin,pd,root,subj,
p1718
I2043
sVaux,root,subj,
p1719
I1108
sVadjunct,comp_fin,obj,root,
p1720
I534
sVmwe,obj,root,subj,
p1721
I411
sVadjunct,mwe,obj,obj_th,root,subj,
p1722
I2011
sVadjunct,comp,comp_fin,comp_inf,conjunct,root,
p1723
I405
sVadjunct_rc,comp,obj,root,
p1724
I1065
sVaglt,comp,comp_fin,root,
p1725
I564
sVadjunct,aux,obj,root,
p1726
I576
sVadjunct,app,comp,ne,root,subj,
p1727
I468
sVadjunct_qt,comp,conjunct,root,
p1728
I1503
sVadjunct,comp,comp_ag,conjunct,obj_th,root,
p1729
I1896
sVadjunct,comp,conjunct,obj_th,pd,root,
p1730
I1788
sVcomp,conjunct,ne,root,subj,
p1731
I1504
sVadjunct,comp_fin,comp_inf,obj,obj_th,root,
p1732
I746
sVadjunct,app,comp,comp_fin,ne,root,
p1733
I1425
sVcomp_fin,conjunct,obj,punct,root,subj,
p1734
I1146
sVobj,pre_coord,root,
p1735
I310
sVadjunct,adjunct_qt,comp,ne,obj,root,
p1736
I1832
sVadjunct,comp,comp_fin,conjunct,mwe,pd,root,
p1737
I956
sVadjunct,adjunct_rc,comp,comp_fin,conjunct,root,subj,
p1738
I1056
sVadjunct,adjunct_qt,app,comp,conjunct,root,
p1739
I823
sVconjunct,obj,obj_th,root,
p1740
I684
sVabbrev_punct,conjunct,ne,root,
p1741
I878
sVadjunct,adjunct_rc,app,comp,comp_fin,comp_inf,conjunct,obj,pd,root,subj,
p1742
I1858
sVadjunct,adjunct_qt,obj_th,root,
p1743
I211
sVadjunct,comp_inf,obj,punct,root,
p1744
I1060
sVadjunct,adjunct_rc,comp,obj,root,
p1745
I503
sVadjunct,conjunct,pd,refl,root,
p1746
I2296
sVadjunct,comp,comp_inf,conjunct,root,subj,
p1747
I707
sVadjunct,adjunct_qt,comp_inf,conjunct,obj,root,
p1748
I1583
sVadjunct,comp,comp_fin,comp_inf,conjunct,obj,punct,root,
p1749
I195
sVadjunct,adjunct_qt,adjunct_rc,conjunct,neg,root,subj,
p1750
I992
sVadjunct,adjunct_compar,adjunct_rc,comp_inf,punct,root,subj,
p1751
I1270
sVadjunct,app,conjunct,pd,root,subj,
p1752
I1501
sVadjunct,comp,comp_ag,mwe,obj,pd,root,
p1753
I1972
sVconjunct,imp,root,
p1754
I2000
sVadjunct,adjunct_qt,comp,comp_fin,obj,root,
p1755
I1257
sVadjunct,conjunct,mwe,obj_th,punct,root,
p1756
I1655
sVcomp,subj,
p1757
I810
sVabbrev_punct,comp,conjunct,root,
p1758
I552
sVabbrev_punct,pd,root,
p1759
I1952
sVadjunct,conjunct,obj,punct,root,subj,
p1760
I346
sVadjunct,app,conjunct,mwe,root,subj,
p1761
I526
sVadjunct,adjunct_compar,comp,comp_fin,conjunct,root,
p1762
I702
sVadjunct,comp,obj_th,root,
p1763
I246
sVadjunct,adjunct_qt,comp_fin,mwe,refl,root,
p1764
I98
sVadjunct,adjunct_qt,comp,obj_th,punct,root,
p1765
I2213
sVadjunct,adjunct_qt,comp,comp_fin,conjunct,root,subj,
p1766
I1690
sVadjunct,comp_fin,mwe,obj,root,
p1767
I1695
sVadjunct,adjunct_qt,app,comp,conjunct,mwe,root,
p1768
I821
sVadjunct,mwe,punct,root,
p1769
I665
sVadjunct,adjunct_rc,comp,conjunct,obj,subj,
p1770
I1859
sVadjunct,comp,comp_inf,obj,pd,root,
p1771
I2152
sVadjunct_rc,app,ne,root,subj,
p1772
I2259
sVadjunct,comp,conjunct,obj_th,root,
p1773
I212
sVadjunct,pd,refl,root,
p1774
I1238
sVcomp_fin,ne,root,subj,
p1775
I1807
sVadjunct,app,conjunct,mwe,root,
p1776
I627
sVabbrev_punct,app,ne,root,
p1777
I41
sVadjunct_rc,comp,conjunct,root,
p1778
I1900
sVadjunct,comp_ag,obj,root,subj,
p1779
I1599
sVadjunct_rc,app,conjunct,ne,root,subj,
p1780
I799
sVadjunct,comp,conjunct,mwe,ne,obj,root,
p1781
I924
sVadjunct,adjunct_rc,conjunct,obj,punct,root,
p1782
I1734
sVadjunct,comp,refl,root,
p1783
I528
sVapp,conjunct,punct,root,
p1784
I693
sVadjunct,adjunct_qt,comp,conjunct,obj,root,
p1785
I305
sVadjunct,adjunct_compar,mwe,punct,root,subj,
p1786
I1391
sVadjunct,comp_fin,mwe,root,subj,
p1787
I769
sVadjunct,adjunct_rc,app,comp,comp_fin,comp_inf,conjunct,ne,obj,pd,root,subj,
p1788
I1857
sVadjunct,comp_fin,conjunct,root,
p1789
I138
sVcomp,comp_fin,cond,conjunct,root,subj,
p1790
I163
sVadjunct,adjunct_qt,comp,comp_fin,mwe,root,subj,
p1791
I108
sVadjunct,comp,ne,punct,root,subj,
p1792
I1525
sVadjunct,adjunct_qt,adjunct_rc,obj,obj_th,punct,root,
p1793
I614
sVcomp,punct,root,
p1794
I344
sVadjunct,adjunct_qt,comp,comp_inf,obj,root,
p1795
I1688
sVadjunct,aux,comp,comp_fin,comp_inf,conjunct,punct,root,subj,
p1796
I1200
sVadjunct,comp,comp_fin,conjunct,ne,obj_th,root,
p1797
I1625
sVadjunct,comp,comp_fin,conjunct,neg,root,
p1798
I714
sVcomp,conjunct,pd,root,
p1799
I865
sVapp,comp,conjunct,punct,root,subj,
p1800
I2285
sVaglt,comp,comp_fin,conjunct,root,
p1801
I1093
sVabbrev_punct,adjunct,comp,ne,root,subj,
p1802
I2208
sVadjunct,comp,comp_fin,comp_inf,conjunct,punct,root,subj,
p1803
I876
sVadjunct,adjunct_rc,app,obj,root,subj,
p1804
I2260
sVconjunct,ne,obj,root,subj,
p1805
I1595
sVadjunct,comp,comp_ag,refl,root,
p1806
I2231
sVadjunct,imp,root,subj,
p1807
I2052
sVabbrev_punct,adjunct,adjunct_rc,root,subj,
p1808
I1274
sVadjunct,adjunct_qt,adjunct_rc,app,comp,conjunct,root,
p1809
I1462
sVadjunct,comp,comp_inf,conjunct,punct,root,
p1810
I1307
sVadjunct,conjunct,item,root,subj,
p1811
I2245
sVadjunct,comp,comp_inf,root,
p1812
I43
sVadjunct,comp,comp_fin,comp_inf,obj_th,subj,
p1813
I1679
sVadjunct,adjunct_qt,conjunct,obj,punct,root,
p1814
I2319
sVadjunct_qt,app,conjunct,root,
p1815
I1248
sVadjunct_qt,conjunct,root,subj,
p1816
I204
sVadjunct,adjunct_rc,app,conjunct,root,subj,
p1817
I1823
sVadjunct,comp_inf,conjunct,obj,punct,root,
p1818
I492
sVadjunct_rc,punct,root,subj,
p1819
I430
sVadjunct,adjunct_rc,comp,mwe,obj,punct,root,
p1820
I1408
sVadjunct,comp,comp_fin,conjunct,obj,punct,root,
p1821
I1132
sVapp,conjunct,ne,pre_coord,root,
p1822
I1434
sVadjunct_qt,comp,mwe,obj,refl,root,
p1823
I1907
sVadjunct,adjunct_qt,conjunct,obj,root,
p1824
I118
sVadjunct,app,comp_fin,obj_th,punct,root,
p1825
I2309
sVadjunct,adjunct_rc,conjunct,punct,root,
p1826
I1632
sVadjunct,adjunct_qt,comp,conjunct,punct,root,
p1827
I752
sVcomp,comp_ag,conjunct,obj_th,root,
p1828
I1898
sVadjunct,adjunct_rc,punct,root,subj,
p1829
I422
sVadjunct,comp_fin,conjunct,root,subj,
p1830
I137
sVadjunct,adjunct_compar,mwe,root,subj,
p1831
I1392
sVadjunct,adjunct_qt,comp_fin,comp_inf,root,
p1832
I1947
sVadjunct,adjunct_qt,adjunct_rc,app,conjunct,root,
p1833
I1457
sVadjunct,comp_fin,comp_inf,punct,root,subj,
p1834
I1192
sVadjunct,comp,conjunct,obj_th,punct,root,subj,
p1835
I90
sVconjunct,obj,punct,root,subj,
p1836
I1760
sVabbrev_punct,adjunct,ne,root,
p1837
I507
sVadjunct,adjunct_rc,comp_inf,punct,root,subj,
p1838
I1272
sVadjunct,adjunct_qt,comp,comp_ag,mwe,obj,root,
p1839
I1910
sVadjunct,comp,comp_fin,comp_inf,conjunct,obj_th,refl,root,
p1840
I1884
sVadjunct,adjunct_rc,comp,comp_fin,conjunct,obj_th,root,subj,
p1841
I1716
sVadjunct,adjunct_qt,comp,comp_fin,comp_inf,mwe,obj,root,
p1842
I103
sVadjunct,mwe,pd,root,
p1843
I496
sVadjunct,mwe,obj_th,root,
p1844
I804
sVadjunct,adjunct_rc,comp_fin,comp_inf,conjunct,obj,root,subj,
p1845
I159
sVadjunct,comp,comp_fin,pre_coord,root,
p1846
I2278
sVadjunct_qt,comp,comp_fin,mwe,pd,root,
p1847
I107
sVcomp_inf,obj_th,root,
p1848
I555
sVadjunct,ne,punct,root,subj,
p1849
I1528
sVadjunct_qt,adjunct_rc,root,subj,
p1850
I990
sVcomp_ag,conjunct,root,
p1851
I284
sVadjunct,adjunct_rc,app,ne,obj,root,subj,
p1852
I1021
sVadjunct,app,comp,comp_fin,conjunct,ne,root,
p1853
I1261
sVcomp,comp_fin,cond,conjunct,root,
p1854
I1345
sVadjunct,aux,comp_fin,comp_inf,obj,root,subj,
p1855
I1916
sVapp,mwe,obj,root,
p1856
I329
sVconjunct,item,root,
p1857
I677
sVadjunct,mwe,root,subj,
p1858
I302
sVadjunct,ne,pd,root,subj,
p1859
I1981
sVadjunct,comp,comp_fin,comp_inf,obj,obj_th,root,subj,
p1860
I1570
sVpunct,root,subj,
p1861
I260
sVadjunct_qt,punct,root,
p1862
I100
sVapp,ne,root,
p1863
I40
sVadjunct_rc,comp_inf,obj,punct,root,
p1864
I1435
sVadjunct,comp,mwe,obj,punct,root,
p1865
I1379
sVcomp,comp_fin,comp_inf,conjunct,obj,obj_th,root,
p1866
I1158
sVadjunct,app,comp,obj_th,punct,root,subj,
p1867
I1873
sVabbrev_punct,adjunct,app,root,subj,
p1868
I1250
sVabbrev_punct,adjunct,comp,mwe,ne,root,
p1869
I1795
sVadjunct,adjunct_rc,conjunct,root,
p1870
I1633
sVpre_coord,root,
p1871
I1461
sVadjunct,app,ne,root,
p1872
I341
sVadjunct,adjunct_rc,app,obj,root,
p1873
I452
sVadjunct,adjunct_qt,comp,comp_fin,comp_inf,obj,pd,root,subj,
p1874
I1469
sVadjunct,comp,comp_inf,obj,root,subj,
p1875
I2148
sVadjunct,adjunct_qt,comp,obj,root,subj,
p1876
I1597
sVadjunct,comp,conjunct,ne,obj,root,subj,
p1877
I478
sVadjunct_rc,obj,punct,root,
p1878
I1067
sVobj_th,root,
p1879
I44
sVadjunct_qt,conjunct,pd,refl,root,
p1880
I2112
sVadjunct_qt,adjunct_rc,comp,comp_fin,punct,root,
p1881
I1186
sVadjunct,comp,comp_fin,comp_inf,obj_th,punct,
p1882
I1681
sVadjunct,aux,conjunct,obj,root,subj,
p1883
I2144
sVadjunct,adjunct_qt,adjunct_rc,comp,cond,mwe,root,
p1884
I1313
sVadjunct,comp,conjunct,obj_th,root,subj,
p1885
I91
sVadjunct,comp,comp_fin,conjunct,ne,root,
p1886
I2255
sVadjunct,comp,root,subj,
p1887
I10
sVadjunct_qt,adjunct_rc,refl,root,subj,
p1888
I1323
sVadjunct_qt,conjunct,obj,obj_th,pd,root,
p1889
I2188
sVadjunct,comp,comp_fin,mwe,refl,root,subj,
p1890
I2104
sVapp,comp,root,subj,
p1891
I1639
sVcomp,comp_fin,comp_inf,conjunct,obj,root,subj,
p1892
I323
sVadjunct,comp,comp_fin,conjunct,pd,root,
p1893
I664
sVapp,conjunct,root,
p1894
I21
sVcomp_fin,comp_inf,root,
p1895
I156
sVcomp,comp_ag,conjunct,punct,root,
p1896
I937
sVadjunct_compar,comp_fin,conjunct,root,
p1897
I893
sVadjunct,comp,conjunct,mwe,ne,root,
p1898
I548
sVadjunct,adjunct_rc,comp,comp_fin,conjunct,punct,root,
p1899
I1259
sVadjunct,adjunct_rc,obj_th,root,subj,
p1900
I2010
sVadjunct,comp,punct,
p1901
I1049
sVadjunct,adjunct_qt,conjunct,obj_th,refl,root,
p1902
I1791
sVadjunct,adjunct_rc,comp,punct,root,subj,
p1903
I1331
sVadjunct,comp,comp_fin,pd,root,subj,
p1904
I968
sVadjunct,aux,comp,comp_fin,root,subj,
p1905
I1538
sVadjunct,adjunct_rc,comp,comp_fin,comp_inf,conjunct,pd,punct,root,subj,
p1906
I2274
sVadjunct,obj,punct,root,subj,
p1907
I347
sVadjunct,aux,comp_fin,comp_inf,neg,obj,root,subj,
p1908
I1915
sVadjunct,adjunct_rc,app,ne,root,
p1909
I1022
sVadjunct,app,comp,mwe,obj,punct,root,subj,
p1910
I1177
sVcomp,ne,root,
p1911
I522
sVadjunct,comp,conjunct,obj,obj_th,root,subj,
p1912
I1017
sVadjunct,app,conjunct,punct,root,subj,
p1913
I1164
sVadjunct,comp,comp_fin,conjunct,obj,refl,root,
p1914
I1140
sVadjunct_compar,comp,conjunct,pd,root,
p1915
I2284
sVadjunct,comp,comp_fin,comp_inf,conjunct,mwe,obj,root,subj,
p1916
I1304
sVadjunct,comp,pre_coord,root,
p1917
I1399
sVadjunct_compar,comp,punct,root,
p1918
I2242
sVcomp_fin,comp_inf,conjunct,refl,root,
p1919
I2169
sVconjunct,refl,root,subj,
p1920
I880
sVadjunct,aux,comp_fin,root,
p1921
I1184
sVadjunct,conjunct,obj,pd,pre_coord,root,
p1922
I1931
sVadjunct,adjunct_compar,comp,comp_inf,conjunct,pd,root,
p1923
I1377
sVcomp_fin,obj,root,subj,
p1924
I1107
sVapp,conjunct,root,subj,
p1925
I470
sVadjunct,app,conjunct,root,
p1926
I22
sVadjunct_qt,conjunct,neg,root,
p1927
I116
sVconjunct,obj,root,
p1928
I187
sVadjunct_qt,adjunct_rc,ne,root,subj,
p1929
I2100
sVadjunct_compar,comp,comp_fin,conjunct,root,subj,
p1930
I1601
sVcomp,comp_fin,obj_th,refl,root,
p1931
I1961
sVadjunct,adjunct_qt,app,conjunct,ne,punct,root,
p1932
I1756
sVabbrev_punct,adjunct,app,ne,root,
p1933
I1025
sVneg,root,
p1934
I171
sVcomp,comp_fin,conjunct,neg,root,
p1935
I570
sVadjunct,comp_inf,conjunct,obj_th,punct,root,
p1936
I1358
sVadjunct,app,comp,root,subj,
p1937
I6
sVadjunct_rc,conjunct,mwe,root,
p1938
I1295
sVabbrev_punct,adjunct,comp,pd,root,
p1939
I653
sVadjunct_rc,ne,punct,root,subj,
p1940
I1527
sVadjunct,comp_fin,comp_inf,obj,root,subj,
p1941
I1917
sVcomp_fin,comp_inf,obj,obj_th,root,
p1942
I1565
sVadjunct,comp,comp_fin,comp_inf,conjunct,mwe,root,subj,
p1943
I2130
sVadjunct_compar,adjunct_qt,root,
p1944
I1970
sVadjunct,adjunct_compar,comp_fin,comp_inf,conjunct,root,subj,
p1945
I2166
sVcomp_fin,conjunct,neg,root,
p1946
I1849
sVapp,comp,conjunct,obj_th,root,
p1947
I214
sVadjunct,conjunct,obj,
p1948
I1867
sVcomp,comp_ag,mwe,root,
p1949
I2198
sVadjunct,comp,comp_fin,mwe,refl,root,
p1950
I2016
sVcomp,comp_fin,conjunct,neg,root,subj,
p1951
I2322
sVcomp,comp_inf,punct,root,
p1952
I2097
sVadjunct,aglt,comp,comp_fin,conjunct,root,
p1953
I1080
sVcomp,comp_inf,conjunct,obj_th,root,
p1954
I1998
sVadjunct,comp,comp_fin,comp_inf,conjunct,mwe,obj,obj_th,
p1955
I1672
sVadjunct,adjunct_qt,comp,conjunct,pd,root,
p1956
I1191
sVadjunct,app,mwe,root,subj,
p1957
I1397
sVadjunct,pd,root,subj,
p1958
I710
sVadjunct,adjunct_qt,comp,conjunct,ne,punct,root,subj,
p1959
I1464
sVadjunct_rc,comp,cond,obj,root,
p1960
I2024
sVadjunct,adjunct_rc,comp,comp_inf,conjunct,obj,pd,root,
p1961
I1930
sVadjunct,adjunct_rc,app,comp,root,subj,
p1962
I2257
sVadjunct,mwe,ne,root,
p1963
I1008
sVadjunct,refl,root,subj,
p1964
I835
sVadjunct,comp,comp_fin,comp_inf,conjunct,obj,obj_th,
p1965
I1671
sVadjunct,comp,mwe,obj,refl,root,subj,
p1966
I882
sVadjunct_qt,adjunct_rc,aglt,comp_fin,pd,root,
p1967
I605
sVabbrev_punct,adjunct,comp,conjunct,ne,root,
p1968
I1000
sVabbrev_punct,adjunct,adjunct_qt,app,conjunct,ne,root,
p1969
I1990
sVadjunct,comp,comp_fin,obj,punct,root,subj,
p1970
I648
sVadjunct,adjunct_compar,app,comp,conjunct,mwe,punct,root,subj,
p1971
I1388
sVadjunct,adjunct_compar,comp_fin,conjunct,root,
p1972
I1540
sVadjunct,adjunct_rc,conjunct,neg,obj,root,
p1973
I375
sVabbrev_punct,adjunct,comp,conjunct,pd,root,
p1974
I965
sVcomp,comp_fin,comp_inf,obj_th,root,
p1975
I2091
sVadjunct,adjunct_rc,app,comp,comp_fin,conjunct,obj,root,subj,
p1976
I61
sVadjunct,adjunct_rc,comp,mwe,obj,root,subj,
p1977
I2248
sVadjunct,comp,comp_fin,conjunct,neg,root,subj,
p1978
I1113
sVcomp,comp_ag,comp_fin,obj,pd,root,
p1979
I2173
sVadjunct,conjunct,obj,root,subj,
p1980
I140
sVadjunct,conjunct,ne,obj,root,subj,
p1981
I997
sVadjunct,adjunct_rc,comp,comp_inf,conjunct,root,
p1982
I297
sVadjunct,comp,conjunct,obj_th,punct,root,
p1983
I801
sVroot,subj,
p1984
I0
sVadjunct,comp,comp_fin,comp_inf,mwe,obj_th,root,
p1985
I2261
sVadjunct,adjunct_rc,cond,conjunct,obj,root,
p1986
I2256
sVadjunct,adjunct_qt,conjunct,obj,pd,root,
p1987
I2316
sVadjunct,comp,ne,obj,root,
p1988
I434
sVadjunct,app,comp,comp_fin,obj,pd,root,
p1989
I71
sVadjunct,adjunct_compar,comp,root,subj,
p1990
I1370
sVadjunct,conjunct,ne,pd,root,
p1991
I495
sVadjunct_compar,comp_fin,comp_inf,conjunct,root,
p1992
I896
sVadjunct_qt,conjunct,refl,root,
p1993
I1792
sVadjunct,comp_fin,comp_inf,obj_th,root,
p1994
I852
sVadjunct,adjunct_compar,comp,ne,root,
p1995
I1589
sVpunct,
p1996
I1048
sVcomp_inf,conjunct,obj_th,root,
p1997
I640
sVadjunct,comp,comp_fin,conjunct,obj,root,
p1998
I372
sVadjunct,adjunct_rc,ne,obj_th,root,subj,
p1999
I2297
sVabbrev_punct,adjunct_qt,adjunct_rc,root,subj,
p2000
I2098
sVadjunct,adjunct_rc,comp,obj,punct,root,subj,
p2001
I1883
sVabbrev_punct,adjunct,adjunct_rc,app,comp,comp_fin,conjunct,obj,root,subj,
p2002
I62
sVadjunct_qt,app,conjunct,ne,root,
p2003
I1249
sVadjunct,comp_fin,mwe,obj,obj_th,root,
p2004
I1641
sVadjunct,comp,comp_inf,ne,obj,root,
p2005
I2307
sVcomp,obj,root,subj,
p2006
I391
sVadjunct,comp_inf,obj,obj_th,root,
p2007
I1284
sVcomp,conjunct,ne,root,
p2008
I685
sVobj,punct,root,
p2009
I595
sVadjunct,comp,comp_fin,ne,root,
p2010
I1524
sVadjunct,adjunct_rc,app,comp,conjunct,root,subj,
p2011
I2258
sVcomp_inf,conjunct,root,subj,
p2012
I191
sVabbrev_punct,comp,conjunct,ne,root,
p2013
I1651
sVadjunct,aux,comp,comp_fin,conjunct,root,
p2014
I1234
sVadjunct,comp_fin,comp_inf,obj,refl,root,subj,
p2015
I2229
sVadjunct,adjunct_qt,comp_fin,mwe,root,
p2016
I97
sVadjunct,comp,comp_fin,obj_th,root,
p2017
I236
sVapp,mwe,root,
p2018
I666
sVadjunct_qt,comp_inf,root,
p2019
I784
sVadjunct,app,pd,punct,root,
p2020
I550
sVadjunct,comp,comp_inf,conjunct,mwe,root,
p2021
I638
sVconjunct,obj,punct,root,
p2022
I308
sVadjunct,conjunct,punct,refl,root,
p2023
I2149
sVabbrev_punct,adjunct,conjunct,obj,root,
p2024
I1041
sVadjunct,ne,punct,root,
p2025
I549
sVadjunct,adjunct_qt,comp,comp_fin,comp_inf,mwe,ne,obj,root,
p2026
I105
sVadjunct,comp_fin,comp_inf,mwe,obj,root,
p2027
I1197
sVadjunct_compar,comp_fin,obj_th,root,
p2028
I1810
sVadjunct,aglt,obj_th,root,
p2029
I1083
sVadjunct,comp,obj_th,root,subj,
p2030
I890
sVadjunct_qt,comp_fin,obj,root,
p2031
I1256
sVadjunct,adjunct_qt,app,punct,root,
p2032
I472
sVapp,comp_fin,ne,root,subj,
p2033
I1707
sVadjunct,comp,conjunct,ne,obj,punct,root,
p2034
I2035
sVadjunct_rc,aglt,comp_fin,conjunct,obj,root,subj,
p2035
I1145
sVabbrev_punct,adjunct,root,
p2036
I271
sVadjunct,obj_th,punct,root,subj,
p2037
I1723
sVapp,obj_th,punct,root,
p2038
I760
sVadjunct,conjunct,mwe,obj_th,root,subj,
p2039
I1656
sVcomp_fin,comp_inf,conjunct,obj,root,
p2040
I321
sVadjunct,adjunct_qt,conjunct,ne,obj,root,subj,
p2041
I2317
sVadjunct,adjunct_rc,comp_fin,conjunct,refl,root,subj,
p2042
I2036
sVadjunct,adjunct_rc,comp_fin,conjunct,obj,root,subj,
p2043
I370
sVaux,conjunct,root,
p2044
I249
sVadjunct,comp,comp_fin,conjunct,pd,punct,root,
p2045
I1225
sVadjunct,comp_inf,obj,refl,root,
p2046
I181
sVadjunct,comp,comp_inf,conjunct,neg,root,
p2047
I1309
sVadjunct_rc,aux,root,
p2048
I1955
sVadjunct,comp,comp_fin,conjunct,ne,root,subj,
p2049
I1236
sVadjunct,comp,conjunct,
p2050
I811
sVadjunct,comp,conjunct,root,
p2051
I16
sVadjunct,adjunct_rc,conjunct,pd,root,subj,
p2052
I791
sVadjunct,comp,comp_fin,obj,pd,root,
p2053
I994
sVadjunct,comp_inf,conjunct,obj_th,refl,root,
p2054
I2111
sVcomp,comp_fin,comp_inf,obj_th,punct,root,
p2055
I2093
sVadjunct,app,comp,comp_fin,conjunct,obj,obj_th,root,subj,
p2056
I81
sVadjunct,comp,conjunct,mwe,
p2057
I1661
sVaux,comp,obj,root,
p2058
I2133
sVadjunct,conjunct,mwe,pd,root,
p2059
I218
sVcomp,comp_inf,conjunct,obj,root,subj,
p2060
I1419
sVadjunct,conjunct,root,
p2061
I25
sVaux,comp_fin,comp_inf,obj,root,
p2062
I948
sVadjunct_compar,comp,conjunct,ne,root,
p2063
I2073
sVadjunct,aux,obj_th,root,subj,
p2064
I2177
sVadjunct,comp,conjunct,pd,root,
p2065
I291
sVadjunct,comp,comp_ag,obj,
p2066
I1666
sVadjunct,comp,comp_inf,pd,root,
p2067
I498
sVadjunct,adjunct_compar,conjunct,ne,root,subj,
p2068
I2119
sVadjunct,adjunct_rc,comp,comp_ag,conjunct,mwe,root,
p2069
I1621
sVadjunct,comp_fin,obj_th,root,
p2070
I237
sVabbrev_punct,adjunct,app,comp,root,
p2071
I2032
sVadjunct,app,root,
p2072
I263
sVcomp,mwe,punct,root,
p2073
I1401
sVadjunct_rc,conjunct,refl,root,subj,
p2074
I2294
sVconjunct,neg,root,
p2075
I400
sVadjunct,adjunct_rc,comp_inf,conjunct,punct,root,subj,
p2076
I1268
sVcomp_fin,conjunct,obj,root,
p2077
I363
sVrefl,root,subj,
p2078
I1319
sVadjunct,adjunct_qt,comp_fin,comp_inf,obj,obj_th,root,
p2079
I2190
sVadjunct,comp_fin,conjunct,pd,root,
p2080
I630
sVadjunct,adjunct_rc,comp,comp_fin,comp_inf,conjunct,obj,pd,root,subj,
p2081
I1856
sVcomp_fin,root,
p2082
I253
sVadjunct,obj,obj_th,root,
p2083
I240
sVitem,root,
p2084
I913
sVcomp_fin,conjunct,obj,root,subj,
p2085
I360
sVadjunct,app,comp,comp_fin,obj,obj_th,punct,root,
p2086
I1383
sVabbrev_punct,adjunct,app,conjunct,root,
p2087
I1562
sVadjunct,app,comp,comp_fin,ne,obj_th,root,subj,
p2088
I1713
sVcomp_fin,conjunct,refl,root,
p2089
I1775
sVadjunct,app,comp_fin,obj_th,root,
p2090
I2310
sVabbrev_punct,conjunct,ne,obj,root,
p2091
I1627
sVne,obj,root,subj,
p2092
I1018
sVadjunct,comp,comp_ag,conjunct,obj_th,root,subj,
p2093
I1894
sVne,root,subj,
p2094
I268
sVadjunct,comp,comp_fin,comp_inf,conjunct,obj,obj_th,root,subj,
p2095
I2271
sVadjunct,comp_fin,root,subj,
p2096
I223
sVadjunct,comp,comp_ag,conjunct,punct,root,
p2097
I1925
sVadjunct,aux,comp_fin,neg,root,
p2098
I2019
sVcomp,conjunct,
p2099
I808
sVadjunct,comp_fin,conjunct,punct,root,subj,
p2100
I1136
sVadjunct,comp_ag,root,subj,
p2101
I544
sVadjunct,comp_inf,conjunct,obj,pd,root,
p2102
I1483
sVabbrev_punct,adjunct,comp,punct,root,
p2103
I1922
sVadjunct,adjunct_rc,pd,punct,root,
p2104
I2116
sVadjunct,comp,comp_fin,conjunct,obj_th,root,subj,
p2105
I1252
sVadjunct,comp,comp_fin,comp_inf,obj_th,punct,root,
p2106
I1854
sVadjunct,app,obj_th,root,
p2107
I761
sVadjunct,comp,comp_fin,refl,root,
p2108
I598
sVaglt,root,
p2109
I101
sVcomp_inf,conjunct,obj,root,
p2110
I136
sVcomp,comp_ag,root,subj,
p2111
I1646
sVabbrev_punct,adjunct,adjunct_qt,root,
p2112
I1612
sVadjunct,adjunct_qt,comp,mwe,obj,root,
p2113
I1909
sVadjunct,adjunct_qt,comp,comp_fin,conjunct,obj,punct,root,subj,
p2114
I2038
sVadjunct,app,comp_fin,root,subj,
p2115
I1808
sVabbrev_punct,adjunct,conjunct,ne,pd,root,
p2116
I1803
sVadjunct,aux,comp_fin,conjunct,root,
p2117
I232
sVadjunct_qt,comp,comp_fin,neg,root,
p2118
I1187
sVadjunct,comp_fin,obj_th,punct,refl,root,subj,
p2119
I1095
sVadjunct,adjunct_compar,comp_fin,conjunct,punct,root,subj,
p2120
I1781
sVadjunct,adjunct_rc,comp,comp_fin,obj,root,
p2121
I451
sVadjunct,comp,pd,
p2122
I1664
sVcomp_inf,pd,root,
p2123
I731
sVadjunct,comp,item,root,
p2124
I1593
sVadjunct,pd,root,
p2125
I38
sVadjunct_rc,comp,root,subj,
p2126
I433
sVadjunct,adjunct_rc,obj,root,
p2127
I387
sVadjunct,comp,comp_fin,conjunct,punct,root,
p2128
I1235
sVadjunct,adjunct_compar,comp,obj,root,
p2129
I2030
sVadjunct,app,comp,comp_fin,root,subj,
p2130
I1218
sVneg,root,subj,
p2131
I1933
sVadjunct,adjunct_qt,comp,comp_fin,mwe,punct,root,
p2132
I99
sVadjunct,adjunct_qt,adjunct_rc,app,conjunct,punct,root,
p2133
I1455
sVadjunct,comp,conjunct,mwe,refl,root,
p2134
I2244
sVadjunct_rc,comp_inf,root,
p2135
I558
sVadjunct,comp,comp_fin,comp_inf,obj,root,
p2136
I599
sVcomp,comp_fin,conjunct,ne,root,
p2137
I2145
sVadjunct,comp,comp_fin,conjunct,mwe,ne,root,subj,
p2138
I2181
sVadjunct_compar,comp_fin,comp_inf,conjunct,punct,root,subj,
p2139
I2167
sVmwe,root,subj,
p2140
I332
sVadjunct,comp_fin,comp_inf,conjunct,neg,obj,root,
p2141
I1427
sVcomp_fin,neg,root,subj,
p2142
I1340
sVadjunct_compar,comp,root,
p2143
I971
sVadjunct_rc,root,subj,
p2144
I431
sVadjunct_rc,comp_fin,obj,pd,punct,root,
p2145
I1213
sVrefl,root,
p2146
I45
sVadjunct,mwe,punct,root,subj,
p2147
I833
sVadjunct,aglt,comp_inf,conjunct,root,
p2148
I1283
sVadjunct,comp_fin,conjunct,neg,root,
p2149
I234
sVadjunct,adjunct_rc,app,comp,comp_fin,conjunct,mwe,obj,root,subj,
p2150
I66
sVadjunct_rc,comp,comp_fin,root,subj,
p2151
I1629
sVadjunct_rc,conjunct,pd,root,
p2152
I625
sVapp,comp,obj,root,
p2153
I1647
sVadjunct,comp,conjunct,refl,root,
p2154
I847
sVadjunct,adjunct_qt,comp,ne,root,
p2155
I594
sVadjunct,aux,comp,comp_fin,pd,root,
p2156
I1875
sVadjunct_rc,app,conjunct,obj,root,subj,
p2157
I2313
sVadjunct_rc,comp_fin,obj,obj_th,pd,root,
p2158
I1210
sVadjunct,mwe,obj_th,punct,root,
p2159
I1653
sVadjunct,comp,comp_ag,comp_fin,comp_inf,conjunct,obj,root,
p2160
I1615
sVadjunct,comp,comp_fin,conjunct,refl,root,subj,
p2161
I1237
sVadjunct,comp_inf,pd,refl,root,
p2162
I497
sVadjunct,comp,conjunct,obj,obj_th,punct,root,
p2163
I1029
sVadjunct,aux,comp,comp_fin,obj_th,root,subj,
p2164
I1152
sVadjunct,comp,conjunct,mwe,obj,pd,root,
p2165
I861
sVadjunct,adjunct_rc,comp,comp_inf,conjunct,pd,root,
p2166
I2217
sVcomp_inf,refl,root,
p2167
I709
sVadjunct,comp,comp_fin,punct,root,subj,
p2168
I1130
sVadjunct,comp,conjunct,refl,root,subj,
p2169
I704
sVaux,comp,conjunct,mwe,obj,obj_th,root,
p2170
I2203
sVadjunct_rc,app,obj,root,subj,
p2171
I1706
sVadjunct,comp,punct,root,subj,
p2172
I586
sVadjunct,comp,comp_fin,comp_inf,conjunct,obj,obj_th,root,
p2173
I944
sVcomp,comp_fin,obj,root,subj,
p2174
I649
sVadjunct_qt,comp_inf,conjunct,obj_th,root,
p2175
I1843
sVadjunct,app,comp_fin,comp_inf,obj,obj_th,root,subj,
p2176
I1568
sVadjunct,adjunct_rc,mwe,obj,root,subj,
p2177
I2250
sVcomp_fin,neg,root,
p2178
I1230
sVadjunct,comp_inf,pd,root,
p2179
I499
sVadjunct,comp,comp_ag,ne,root,
p2180
I1002
sVadjunct,comp,conjunct,obj,root,subj,
p2181
I82
sVadjunct,aux,comp,comp_fin,mwe,obj_th,root,subj,
p2182
I1153
sVadjunct_rc,obj_th,root,
p2183
I1649
sVadjunct_rc,conjunct,obj_th,punct,root,
p2184
I2265
sVaux,pd,root,
p2185
I747
sVadjunct,adjunct_compar,app,comp,comp_fin,conjunct,root,subj,
p2186
I1783
sVadjunct,comp,obj,pd,root,subj,
p2187
I1535
sVadjunct,comp_fin,obj_th,punct,root,subj,
p2188
I1094
sVadjunct,comp_fin,comp_inf,root,subj,
p2189
I568
sVadjunct,adjunct_rc,comp,conjunct,obj,obj_th,root,
p2190
I1698
sVadjunct,adjunct_qt,aglt,root,
p2191
I1949
sVadjunct_rc,comp,comp_inf,obj,root,
p2192
I2027
sVcomp,comp_inf,conjunct,obj,punct,root,
p2193
I1852
sVadjunct_rc,refl,root,subj,
p2194
I432
sVcomp,comp_fin,comp_inf,conjunct,obj_th,root,
p2195
I1160
sVadjunct,comp,obj_th,pd,root,
p2196
I1942
sVabbrev_punct,adjunct,obj,root,
p2197
I938
sVadjunct,adjunct_compar,comp,mwe,root,subj,
p2198
I1393
sVadjunct,adjunct_rc,comp_inf,root,subj,
p2199
I1271
sVadjunct,aglt,comp,conjunct,root,
p2200
I303
sVadjunct,adjunct_compar,comp,comp_inf,conjunct,punct,root,
p2201
I901
sVadjunct,comp_fin,pd,root,subj,
p2202
I1982
sVcomp,comp_fin,conjunct,refl,root,
p2203
I563
sVadjunct,comp_fin,comp_inf,conjunct,obj_th,root,
p2204
I1122
sVapp,comp,conjunct,ne,root,
p2205
I1246
sVadjunct,aux,comp,neg,root,
p2206
I1493
sVadjunct_qt,comp,root,
p2207
I562
sVadjunct,adjunct_rc,comp,comp_inf,root,subj,
p2208
I1221
sVadjunct,aux,comp,comp_fin,conjunct,root,subj,
p2209
I1202
sVadjunct,comp_fin,comp_inf,conjunct,obj,refl,root,
p2210
I152
sVadjunct,aux,conjunct,root,
p2211
I269
sVabbrev_punct,adjunct,comp,conjunct,obj,root,
p2212
I1366
sVadjunct,comp_fin,comp_inf,refl,root,subj,
p2213
I1195
sVadjunct,obj,pre_coord,root,
p2214
I2057
sVadjunct,comp,comp_fin,conjunct,obj,pd,root,
p2215
I1227
sVapp,comp,comp_ag,root,
p2216
I1607
sVadjunct,adjunct_compar,comp,comp_fin,comp_inf,conjunct,root,
p2217
I895
sVcomp,obj,pd,root,
p2218
I1318
sVabbrev_punct,adjunct,conjunct,ne,root,subj,
p2219
I2110
sVadjunct,comp,comp_fin,comp_inf,conjunct,mwe,obj,root,
p2220
I150
sVadjunct,app,comp,conjunct,punct,root,subj,
p2221
I772
sVadjunct,aux,ne,root,
p2222
I1003
sVadjunct,adjunct_rc,app,conjunct,obj,root,
p2223
I743
sVadjunct,adjunct_rc,comp,mwe,obj,punct,root,subj,
p2224
I1410
sVadjunct,comp,comp_ag,comp_fin,conjunct,root,subj,
p2225
I1845
sVadjunct,comp,comp_fin,comp_inf,conjunct,mwe,obj,obj_th,root,
p2226
I941
sVadjunct_qt,refl,root,
p2227
I561
sVadjunct,comp_fin,conjunct,obj_th,root,subj,
p2228
I1125
sVadjunct_rc,comp,punct,root,subj,
p2229
I961
sVadjunct,adjunct_rc,aux,comp,root,
p2230
I2077
sVadjunct_qt,conjunct,obj_th,pd,refl,root,
p2231
I2194
sVaux,comp_fin,root,
p2232
I1155
sVadjunct,comp,mwe,root,subj,
p2233
I314
sVadjunct,adjunct_rc,comp,mwe,punct,root,subj,
p2234
I1585
sVadjunct,adjunct_rc,aux,comp,conjunct,root,subj,
p2235
I2246
sVadjunct,comp,comp_fin,conjunct,mwe,obj,root,subj,
p2236
I1350
sVabbrev_punct,comp,mwe,root,
p2237
I1516
sVapp,comp,comp_ag,conjunct,root,
p2238
I2003
sVadjunct_rc,app,conjunct,root,subj,
p2239
I798
sVadjunct,comp,comp_inf,conjunct,obj,obj_th,root,
p2240
I1288
sVadjunct,comp,comp_inf,conjunct,obj_th,root,subj,
p2241
I706
sVadjunct,adjunct_rc,comp_inf,conjunct,obj,
p2242
I1864
sVcomp,comp_fin,conjunct,obj,root,subj,
p2243
I164
sVadjunct,adjunct_qt,comp,conjunct,obj_th,pd,root,
p2244
I2184
sVadjunct,adjunct_rc,comp,neg,root,subj,
p2245
I1330
sVadjunct,adjunct_rc,comp,comp_fin,obj,pd,root,
p2246
I1208
sVadjunct,adjunct_qt,comp_fin,punct,root,subj,
p2247
I222
sVadjunct_compar,comp_fin,ne,root,
p2248
I1963
sVcomp_inf,conjunct,pd,root,
p2249
I172
sVadjunct,pd,punct,root,
p2250
I339
sVadjunct,app,comp,obj,root,
p2251
I78
sVadjunct,adjunct_qt,adjunct_rc,app,obj,root,
p2252
I1459
sVadjunct,comp,conjunct,ne,obj,pd,root,
p2253
I1381
sVadjunct_rc,comp,comp_fin,punct,root,subj,
p2254
I1628
sVadjunct,comp_fin,comp_inf,conjunct,obj,pd,root,subj,
p2255
I324
sVadjunct,comp,comp_fin,mwe,ne,obj,root,
p2256
I2017
sVadjunct,adjunct_qt,ne,root,
p2257
I611
sVadjunct,comp,comp_inf,conjunct,ne,obj,root,
p2258
I1372
sVadjunct,comp_inf,conjunct,punct,root,
p2259
I490
sVadjunct,mwe,obj,root,subj,
p2260
I412
sVadjunct,adjunct_rc,comp,conjunct,obj,root,
p2261
I376
sVadjunct,comp,comp_ag,obj,punct,root,
p2262
I2006
sVconjunct,ne,root,subj,
p2263
I518
sVadjunct_rc,obj,root,
p2264
I504
sVadjunct_rc,comp_fin,comp_inf,conjunct,root,
p2265
I1161
sVadjunct,adjunct_qt,adjunct_rc,comp,conjunct,obj,root,
p2266
I1996
sVadjunct,comp_fin,comp_inf,obj,root,
p2267
I155
sVadjunct,adjunct_rc,comp,comp_fin,comp_inf,conjunct,obj,root,subj,
p2268
I1086
sVadjunct,conjunct,mwe,obj,root,
p2269
I723
sVcomp,comp_fin,comp_inf,conjunct,obj,pd,root,
p2270
I1223
sVadjunct,comp,comp_ag,obj,root,subj,
p2271
I1600
sVadjunct,app,comp_fin,conjunct,root,subj,
p2272
I1347
sVadjunct,comp_fin,comp_inf,mwe,obj,pd,root,
p2273
I1203
sVadjunct,aux,comp_inf,conjunct,mwe,obj_th,root,
p2274
I1657
sVadjunct,aux,comp,conjunct,neg,root,
p2275
I633
sVapp,comp,conjunct,obj,punct,root,
p2276
I1828
sVadjunct,comp,conjunct,ne,punct,root,subj,
p2277
I571
sVadjunct,adjunct_qt,comp,punct,root,subj,
p2278
I755
sVadjunct,conjunct,ne,obj,obj_th,root,
p2279
I1794
sVapp,comp,mwe,obj,root,
p2280
I330
sVcomp,comp_fin,obj_th,root,subj,
p2281
I1341
sVadjunct_compar,comp,comp_inf,conjunct,obj_th,root,
p2282
I909
sVadjunct,comp_fin,comp_inf,conjunct,root,
p2283
I736
sVadjunct,ne,root,
p2284
I272
sVapp,comp_fin,obj,root,
p2285
I2085
sVabbrev_punct,adjunct,pd,root,
p2286
I340
sVadjunct_rc,conjunct,neg,root,subj,
p2287
I1743
sVadjunct,app,obj_th,punct,root,subj,
p2288
I2174
sVadjunct,comp,obj_th,punct,root,subj,
p2289
I1874
sVadjunct,comp,comp_ag,conjunct,ne,root,
p2290
I353
sVadjunct,app,comp,conjunct,mwe,ne,root,
p2291
I1752
sVadjunct,comp,punct,refl,root,
p2292
I724
sVapp,punct,root,
p2293
I262
sVadjunct,app,comp,conjunct,pd,root,subj,
p2294
I1499
sVadjunct,adjunct_qt,comp,comp_fin,comp_inf,mwe,root,
p2295
I104
sVadjunct_qt,aux,comp_inf,root,
p2296
I783
sVabbrev_punct,adjunct,conjunct,root,
p2297
I26
sVcomp,conjunct,mwe,root,
p2298
I818
sVcomp,comp_fin,refl,root,subj,
p2299
I1731
sVadjunct,adjunct_qt,root,subj,
p2300
I719
sVobj,root,
p2301
I28
sVadjunct,adjunct_qt,comp_fin,comp_inf,obj_th,root,
p2302
I1944
sVadjunct_compar,conjunct,pd,root,
p2303
I2283
sVconjunct,obj,pd,root,
p2304
I864
sVcomp,comp_fin,conjunct,neg,obj,root,
p2305
I1149
sVadjunct,app,comp,comp_ag,conjunct,root,
p2306
I682
sVadjunct,adjunct_qt,adjunct_rc,conjunct,obj_th,root,subj,
p2307
I988
sVadjunct,adjunct_qt,comp_inf,pd,root,
p2308
I256
sVadjunct,comp,comp_ag,conjunct,mwe,ne,root,
p2309
I482
sVadjunct_rc,comp,comp_fin,obj,root,
p2310
I1846
sVadjunct_qt,comp,comp_fin,comp_inf,root,
p2311
I718
sVadjunct,comp_fin,ne,pd,root,
p2312
I1591
sVobj,punct,root,subj,
p2313
I711
sVcomp,conjunct,obj_th,root,
p2314
I216
sVadjunct,adjunct_rc,comp,mwe,ne,obj,root,subj,
p2315
I2249
sVadjunct,app,comp,ne,obj,root,
p2316
I1073
sVcomp,comp_fin,comp_inf,refl,root,
p2317
I2095
sVadjunct,adjunct_compar,adjunct_qt,aux,comp,comp_fin,comp_inf,pd,root,
p2318
I2158
sVadjunct,comp,conjunct,mwe,obj,root,
p2319
I289
sVadjunct,comp,comp_fin,comp_inf,mwe,obj,root,subj,
p2320
I2228
sVadjunct,comp,comp_ag,comp_fin,comp_inf,conjunct,root,subj,
p2321
I2132
sVabbrev_punct,adjunct,app,conjunct,root,subj,
p2322
I527
sVapp,comp,comp_fin,root,
p2323
I851
sVabbrev_punct,adjunct,app,comp,comp_ag,root,
p2324
I2031
sVadjunct,adjunct_compar,comp,comp_fin,root,
p2325
I1131
sVadjunct,comp,comp_ag,root,subj,
p2326
I545
sVadjunct,comp_inf,conjunct,ne,obj,root,
p2327
I831
sVadjunct,comp_fin,comp_inf,conjunct,neg,root,
p2328
I1551
sVadjunct,conjunct,obj,refl,root,
p2329
I127
sVabbrev_punct,adjunct,mwe,root,
p2330
I931
sVadjunct,comp_ag,obj_th,root,subj,
p2331
I1618
sVcomp,comp_fin,conjunct,obj,refl,root,
p2332
I1148
sVaglt,comp_fin,root,
p2333
I357
sVcomp_fin,comp_inf,obj,refl,root,
p2334
I2226
sVapp,comp,comp_fin,conjunct,punct,root,subj,
p2335
I2007
sVadjunct_qt,conjunct,obj,root,subj,
p2336
I1037
sVadjunct,ne,obj,root,
p2337
I320
sVadjunct,obj,pd,root,subj,
p2338
I2134
sVcomp_inf,obj_th,root,subj,
p2339
I1575
sVadjunct,app,conjunct,ne,pd,root,
p2340
I1183
sVadjunct,comp_fin,conjunct,ne,root,subj,
p2341
I699
sVabbrev_punct,adjunct,mwe,root,subj,
p2342
I1980
sVadjunct,app,conjunct,obj,pd,punct,root,
p2343
I1454
sVadjunct,app,comp,mwe,obj,root,
p2344
I1078
sVadjunct,comp,comp_fin,comp_inf,conjunct,mwe,root,
p2345
I727
sVcomp,comp_fin,conjunct,obj,punct,root,
p2346
I1144
sVadjunct,adjunct_qt,aux,obj,root,
p2347
I1722
sVapp,ne,punct,root,
p2348
I1024
sVadjunct_qt,aglt,conjunct,root,
p2349
I1081
sVadjunct,comp,obj,punct,root,
p2350
I505
sVadjunct,adjunct_compar,root,subj,
p2351
I1369
sVadjunct,comp,comp_ag,conjunct,root,
p2352
I355
sVabbrev_punct,comp,obj,root,
p2353
I1301
sVadjunct,comp,comp_inf,obj_th,root,subj,
p2354
I1578
sVadjunct,adjunct_rc,comp,root,
p2355
I450
sVabbrev_punct,adjunct,comp,mwe,root,subj,
p2356
I803
sVconjunct,pre_coord,root,
p2357
I1228
sVadjunct,comp,comp_ag,comp_fin,conjunct,obj,root,subj,
p2358
I1052
sVcomp,comp_fin,comp_inf,obj,root,
p2359
I566
sVcomp,comp_fin,conjunct,pd,punct,root,subj,
p2360
I1068
sVadjunct,neg,root,
p2361
I506
sVadjunct,adjunct_compar,comp,conjunct,obj,refl,root,
p2362
I1975
sVadjunct,comp,conjunct,obj,obj_th,root,
p2363
I1030
sVadjunct,comp_inf,conjunct,obj_th,refl,root,subj,
p2364
I1205
sVadjunct,adjunct_qt,conjunct,root,
p2365
I206
sVadjunct,comp_fin,mwe,root,
p2366
I532
sVadjunct,adjunct_rc,comp,refl,root,
p2367
I1957
sVadjunct,pd,punct,root,subj,
p2368
I673
sVcomp,comp_inf,conjunct,obj,obj_th,root,
p2369
I1770
sVadjunct,adjunct_rc,comp,comp_fin,obj,obj_th,root,subj,
p2370
I1087
sVabbrev_punct,adjunct,app,root,
p2371
I1466
sVadjunct_rc,comp,conjunct,mwe,obj_th,root,
p2372
I1299
sVadjunct,comp,conjunct,obj,pre_coord,root,subj,
p2373
I87
sVadjunct,aux,comp,obj,
p2374
I1668
sVadjunct,comp,comp_fin,comp_inf,mwe,obj,root,
p2375
I1196
sVadjunct_qt,comp,conjunct,obj_th,root,
p2376
I830
sVadjunct,comp,comp_fin,obj,root,subj,
p2377
I647
sVapp,ne,obj_th,root,
p2378
I1171
sVadjunct_rc,comp,comp_fin,comp_inf,conjunct,root,subj,
p2379
I1742
sVadjunct,adjunct_rc,comp,conjunct,obj,pd,root,
p2380
I1928
sVadjunct,comp,comp_ag,punct,root,
p2381
I1053
sVadjunct,app,obj,root,subj,
p2382
I381
sVadjunct_qt,comp,comp_fin,punct,root,subj,
p2383
I2039
sVaux,comp_fin,conjunct,root,
p2384
I125
sVconjunct,obj_th,root,
p2385
I215
sVadjunct,app,conjunct,ne,punct,root,subj,
p2386
I1033
sVadjunct,aux,comp,comp_fin,comp_inf,conjunct,root,subj,
p2387
I1201
sVadjunct,adjunct_qt,comp_fin,conjunct,refl,root,subj,
p2388
I226
sVadjunct,app,comp,conjunct,ne,pd,root,
p2389
I1940
sVadjunct,comp,ne,
p2390
I1050
sVadjunct,comp,cond,conjunct,root,
p2391
I1354
sVadjunct,comp,comp_fin,conjunct,neg,obj,root,
p2392
I1141
sVadjunct_compar,comp,conjunct,root,
p2393
I889
sVaux,comp,comp_fin,root,subj,
p2394
I686
sVadjunct,adjunct_rc,app,comp,ne,root,subj,
p2395
I1020
sVabbrev_punct,adjunct,obj_th,root,
p2396
I1921
sVcomp,conjunct,obj_th,root,subj,
p2397
I1339
sVobj,root,subj,
p2398
I687
sVadjunct,app,comp,comp_fin,ne,root,subj,
p2399
I1711
sVadjunct,adjunct_compar,comp,comp_fin,comp_inf,conjunct,punct,root,
p2400
I1254
sVadjunct,adjunct_rc,conjunct,ne,pd,root,
p2401
I1833
sVadjunct,root,
p2402
I12
sVadjunct,adjunct_rc,aglt,cond,conjunct,root,
p2403
I1934
sVadjunct,aux,comp,conjunct,pd,root,
p2404
I680
sVadjunct,comp,comp_ag,conjunct,ne,obj,root,
p2405
I1889
sVadjunct_qt,pd,root,
p2406
I770
sVadjunct,comp_fin,conjunct,obj,obj_th,root,subj,
p2407
I1101
sVabbrev_punct,conjunct,root,subj,
p2408
I1786
sVadjunct,adjunct_rc,aux,comp,comp_fin,conjunct,root,subj,
p2409
I2070
sVadjunct,app,comp,punct,root,subj,
p2410
I1011
sVadjunct,adjunct_qt,comp,comp_ag,obj_th,root,
p2411
I1683
sVadjunct,comp_fin,comp_inf,pd,root,
p2412
I1809
sVadjunct,conjunct,pre_coord,root,
p2413
I1432
sVadjunct_rc,aux,root,subj,
p2414
I2232
sVabbrev_punct,adjunct,app,comp,conjunct,mwe,root,
p2415
I521
sVcomp_inf,root,subj,
p2416
I556
sVadjunct,app,obj,pd,root,
p2417
I597
sVadjunct,comp_ag,root,
p2418
I591
sVadjunct_qt,comp_inf,conjunct,obj,root,
p2419
I1584
sVadjunct,comp,comp_fin,comp_inf,pd,punct,root,
p2420
I2047
sVabbrev_punct,conjunct,root,
p2421
I1044
sVadjunct,adjunct_rc,comp,conjunct,punct,root,
p2422
I298
sVadjunct,comp_ag,conjunct,pd,root,
p2423
I1954
sVne,obj_th,root,
p2424
I661
sVadjunct_qt,comp,punct,root,
p2425
I721
sVadjunct,app,comp,punct,root,
p2426
I519
sVcomp_ag,pd,root,
p2427
I1797
sVadjunct,adjunct_compar,comp,comp_fin,conjunct,obj_th,pd,root,
p2428
I1624
sVadjunct,adjunct_compar,comp,comp_fin,mwe,obj,root,subj,
p2429
I2082
sVadjunct,adjunct_qt,comp,comp_fin,root,
p2430
I588
sVadjunct,comp,comp_fin,comp_inf,obj,root,subj,
p2431
I1193
sVapp,comp_fin,obj,punct,root,
p2432
I2084
sVadjunct,comp_fin,obj_th,root,subj,
p2433
I239
sVadjunct_rc,comp_inf,obj,root,subj,
p2434
I1436
sVadjunct,app,comp,conjunct,mwe,ne,obj,root,
p2435
I926
sVaux,comp_inf,root,
p2436
I609
sVadjunct,comp,comp_fin,obj_th,root,subj,
p2437
I732
sVadjunct,adjunct_qt,adjunct_rc,conjunct,root,subj,
p2438
I989
sVne,punct,root,
p2439
I266
sVadjunct,comp,comp_inf,conjunct,root,
p2440
I203
sVaux,ne,root,
p2441
I2053
sVapp,ne,obj,root,
p2442
I669
sVadjunct,aux,conjunct,obj,root,
p2443
I1564
sVadjunct,comp,comp_fin,comp_inf,refl,root,
p2444
I1440
sVconjunct,obj,refl,root,
p2445
I1590
sVadjunct,app,comp,comp_fin,obj,obj_th,pd,root,
p2446
I2140
sVadjunct,app,conjunct,pd,punct,root,subj,
p2447
I1500
sVadjunct,comp,obj,subj,
p2448
I1667
sVcomp,conjunct,obj,punct,root,
p2449
I1061
sVadjunct_qt,conjunct,root,
p2450
I117
sVadjunct,adjunct_qt,comp,comp_fin,conjunct,obj_th,root,
p2451
I2137
sVadjunct_rc,comp_inf,obj,obj_th,root,
p2452
I1438
sVadjunct,adjunct_compar,comp,comp_ag,conjunct,ne,root,
p2453
I515
sVapp,cond,obj,root,
p2454
I419
sVaux,comp,comp_fin,conjunct,root,
p2455
I394
sVaux,comp,comp_fin,comp_inf,conjunct,root,
p2456
I728
sVadjunct,adjunct_rc,comp,conjunct,root,
p2457
I300
sVcomp,conjunct,root,subj,
p2458
I626
sVadjunct,adjunct_qt,conjunct,mwe,root,
p2459
I922
sVadjunct,app,comp,comp_fin,comp_inf,ne,obj,root,subj,
p2460
I1714
sVabbrev_punct,root,subj,
p2461
I94
sVadjunct,comp_fin,punct,root,subj,
p2462
I224
sVadjunct,adjunct_rc,punct,root,
p2463
I414
sVadjunct_qt,ne,root,
p2464
I1611
sVadjunct,adjunct_qt,comp,conjunct,mwe,punct,root,subj,
p2465
I1465
sVcomp_fin,comp_inf,conjunct,obj,root,subj,
p2466
I322
sVadjunct,adjunct_qt,comp,comp_fin,conjunct,obj,root,subj,
p2467
I2037
sVadjunct_qt,comp,comp_fin,comp_inf,obj,pd,root,subj,
p2468
I1472
sVadjunct,comp,mwe,obj,punct,root,subj,
p2469
I1412
sVadjunct,comp,comp_fin,mwe,obj,punct,root,subj,
p2470
I2081
sVadjunct_compar,app,comp,punct,root,
p2471
I972
sVadjunct,adjunct_rc,comp,comp_inf,refl,root,subj,
p2472
I1329
sVapp,obj_th,punct,root,subj,
p2473
I2033
sVcomp,comp_fin,cond,root,
p2474
I1355
sVabbrev_punct,ne,root,
p2475
I1051
sVadjunct,adjunct_compar,comp,neg,root,
p2476
I2264
sVadjunct_qt,app,mwe,punct,root,
p2477
I1727
sVadjunct,adjunct_rc,comp,comp_ag,conjunct,mwe,ne,root,
p2478
I1622
sVadjunct,comp,comp_fin,comp_inf,obj,obj_th,
p2479
I1673
sVadjunct_qt,neg,root,
p2480
I785
sVadjunct,comp,pd,root,subj,
p2481
I587
sVadjunct_compar,comp,comp_fin,conjunct,root,
p2482
I1603
sVaglt,cond,root,subj,
p2483
I950
sVabbrev_punct,adjunct,root,subj,
p2484
I7
sVabbrev_punct,adjunct,comp,comp_fin,conjunct,root,subj,
p2485
I1253
sVapp,mwe,ne,root,
p2486
I1517
sVadjunct,adjunct_rc,comp,conjunct,pd,root,subj,
p2487
I838
sVadjunct,comp,comp_ag,comp_inf,root,
p2488
I2262
sVadjunct,conjunct,neg,pd,root,
p2489
I700
sVadjunct,comp_fin,conjunct,obj_th,pd,root,
p2490
I998
sVadjunct,adjunct_qt,pd,root,
p2491
I255
sVcomp_fin,conjunct,mwe,root,
p2492
I398
sVadjunct,adjunct_rc,aglt,comp,obj_th,root,
p2493
I1121
sVapp,conjunct,pre_coord,root,
p2494
I1433
sVadjunct,comp_inf,refl,root,subj,
p2495
I2268
sVcomp,comp_ag,conjunct,mwe,obj_th,root,
p2496
I2199
sVadjunct_rc,app,obj,root,
p2497
I1704
sVadjunct,comp_fin,conjunct,obj,pd,root,
p2498
I1880
sVadjunct_rc,app,conjunct,pd,root,subj,
p2499
I797
sVcomp,comp_inf,root,subj,
p2500
I1278
sVadjunct,comp,comp_ag,root,
p2501
I274
sVadjunct_qt,comp,comp_fin,comp_inf,obj,root,
p2502
I715
sVadjunct,comp,conjunct,mwe,punct,root,
p2503
I547
sVcomp,comp_fin,comp_inf,conjunct,mwe,obj,root,subj,
p2504
I1303
sVadjunct_qt,refl,root,subj,
p2505
I2290
sVadjunct,conjunct,pd,root,
p2506
I217
sVadjunct,comp_fin,mwe,refl,root,
p2507
I768
sVadjunct,mwe,obj,obj_th,root,
p2508
I1654
sVadjunct,comp,comp_inf,obj,obj_th,root,
p2509
I1285
sVadjunct,comp,comp_inf,obj_th,root,
p2510
I1281
sVadjunct,comp,obj,root,
p2511
I319
sVcomp,obj,root,
p2512
I73
sVadjunct,comp_inf,conjunct,mwe,obj,root,
p2513
I871
sVadjunct,comp,comp_fin,comp_inf,conjunct,obj_th,root,
p2514
I1159
sVadjunct,app,conjunct,obj,root,subj,
p2515
I384
sVadjunct,comp_fin,comp_inf,conjunct,punct,root,
p2516
I1398
sVabbrev_punct,adjunct,comp,obj_th,root,subj,
p2517
I1838
sVadjunct,app,comp,comp_fin,conjunct,obj,refl,root,subj,
p2518
I76
sVadjunct,comp,conjunct,obj,punct,root,
p2519
I464
sVadjunct,comp,comp_inf,conjunct,mwe,obj_th,root,
p2520
I1659
sVadjunct,conjunct,imp,root,
p2521
I1999
sVadjunct_qt,comp,comp_inf,obj,root,
p2522
I1689
sVadjunct,adjunct_rc,app,root,subj,
p2523
I1276
sVadjunct_qt,comp,root,subj,
p2524
I1587
sVadjunct,adjunct_compar,conjunct,root,
p2525
I2055
sVapp,obj_th,root,subj,
p2526
I2034
sVadjunct_qt,comp,comp_fin,obj,root,subj,
p2527
I2042
sVadjunct_qt,comp,comp_fin,conjunct,obj_th,punct,root,
p2528
I2138
sVadjunct_qt,comp,comp_inf,punct,root,
p2529
I1475
sVadjunct,app,comp,comp_fin,conjunct,ne,obj,obj_th,root,subj,
p2530
I75
sVadjunct,comp,comp_fin,pd,punct,root,
p2531
I1117
sVadjunct,app,comp,conjunct,ne,obj,root,subj,
p2532
I1953
sVadjunct,adjunct_compar,app,comp,conjunct,mwe,root,subj,
p2533
I1389
sVadjunct,adjunct_compar,comp,pd,root,subj,
p2534
I1523
sVcomp,comp_fin,comp_inf,conjunct,pd,root,
p2535
I1224
sVadjunct,aux,comp,comp_inf,root,
p2536
I836
sVadjunct,adjunct_rc,comp,conjunct,obj,refl,root,
p2537
I1042
sVaux,comp_fin,conjunct,root,subj,
p2538
I1348
sVcomp,comp_ag,comp_fin,root,
p2539
I2001
sVadjunct,adjunct_compar,adjunct_qt,comp,comp_fin,comp_inf,pd,root,
p2540
I2156
sVadjunct_qt,conjunct,obj_th,root,
p2541
I228
sVcomp_inf,conjunct,neg,obj,root,
p2542
I1491
sVadjunct_compar,comp_fin,punct,root,
p2543
I1962
sVadjunct,adjunct_compar,comp,comp_fin,comp_inf,conjunct,root,subj,
p2544
I2168
sVadjunct_qt,app,root,
p2545
I1448
sVadjunct,comp,comp_fin,conjunct,ne,obj,root,
p2546
I1800
sVadjunct,app,refl,root,subj,
p2547
I795
sVadjunct,adjunct_qt,app,conjunct,punct,root,
p2548
I1991
sVaglt,comp,root,
p2549
I1079
sVcomp,comp_fin,comp_inf,pd,root,
p2550
I984
sVcomp,comp_fin,refl,root,
p2551
I1605
sVadjunct,comp,obj,punct,refl,root,
p2552
I1411
sVcomp_fin,obj_th,punct,root,subj,
p2553
I1099
sVadjunct_rc,conjunct,root,subj,
p2554
I1335
sVapp,comp,comp_fin,conjunct,ne,root,subj,
p2555
I2008
sVabbrev_punct,comp,ne,root,
p2556
I996
sVadjunct_rc,comp,conjunct,obj_th,pd,root,
p2557
I2221
sVadjunct,comp_fin,comp_inf,conjunct,root,subj,
p2558
I1264
sVaux,comp,comp_fin,root,
p2559
I869
sVadjunct,comp,mwe,pd,root,
p2560
I1315
sVadjunct,adjunct_qt,comp,conjunct,mwe,obj_th,root,
p2561
I827
sVcomp_fin,conjunct,mwe,obj,root,
p2562
I1986
sVadjunct,conjunct,neg,punct,root,
p2563
I2150
sVadjunct,adjunct_qt,comp,obj,punct,root,subj,
p2564
I1596
sVadjunct,cond,obj,root,
p2565
I1992
sVadjunct,comp,ne,obj_th,root,
p2566
I879
sVadjunct,aux,comp,conjunct,punct,root,
p2567
I935
sVadjunct,app,comp,comp_fin,conjunct,root,subj,
p2568
I981
sVcomp,punct,
p2569
I809
sVadjunct,app,comp,comp_fin,root,
p2570
I850
sVadjunct,adjunct_qt,app,comp,root,
p2571
I917
sVadjunct,comp_inf,refl,root,
p2572
I1174
sVadjunct,app,comp,comp_fin,refl,root,
p2573
I1217
sVadjunct,comp_inf,obj_th,root,subj,
p2574
I1577
sVcomp,comp_inf,pd,root,
p2575
I1076
sVabbrev_punct,adjunct,app,comp,conjunct,root,
p2576
I1035
sVadjunct,comp,comp_ag,conjunct,ne,pd,root,
p2577
I1424
sVadjunct_rc,ne,obj,root,subj,
p2578
I2212
sVadjunct_qt,comp,comp_fin,conjunct,obj,root,
p2579
I1636
sVadjunct_qt,conjunct,obj,root,
p2580
I119
sVadjunct,adjunct_rc,app,comp,comp_fin,conjunct,ne,obj,root,subj,
p2581
I63
sVadjunct,adjunct_qt,adjunct_rc,comp,mwe,root,
p2582
I1311
sVadjunct,comp,comp_fin,comp_inf,conjunct,pd,root,
p2583
I1878
sVadjunct,neg,obj,root,
p2584
I1515
sVadjunct,adjunct_rc,app,conjunct,punct,root,subj,
p2585
I1822
sVadjunct,adjunct_rc,root,
p2586
I415
sVapp,comp,conjunct,ne,punct,root,
p2587
I1245
sVcomp_fin,conjunct,punct,root,
p2588
I120
sVadjunct,app,comp,obj,punct,root,
p2589
I79
sVadjunct,adjunct_compar,comp,obj,pd,root,
p2590
I2225
sVcomp,conjunct,obj,root,subj,
p2591
I670
sVabbrev_punct,app,conjunct,root,subj,
p2592
I1938
sVcomp_inf,conjunct,obj,obj_th,root,
p2593
I1415
sVadjunct,adjunct_qt,adjunct_rc,comp_fin,root,subj,
p2594
I1322
sVadjunct,aux,comp_inf,root,
p2595
I1983
sVcomp_fin,punct,refl,root,
p2596
I1097
sVadjunct,ne,root,subj,
p2597
I9
sVadjunct,comp_fin,comp_inf,obj_th,punct,root,subj,
p2598
I1096
sVadjunct,adjunct_rc,app,comp,comp_inf,conjunct,obj,root,
p2599
I741
sVabbrev_punct,ne,obj,root,
p2600
I2209
sVadjunct,adjunct_compar,comp,comp_fin,conjunct,refl,root,
p2601
I2020
sVadjunct,comp,comp_fin,obj,punct,root,
p2602
I1134
sVadjunct_qt,pd,punct,root,
p2603
I2115
sVcomp_fin,comp_inf,obj,root,subj,
p2604
I1914
sVcond,root,subj,
p2605
I949
sVadjunct,comp,ne,obj,root,subj,
p2606
I577
sVadjunct_rc,comp,comp_fin,comp_inf,conjunct,pd,punct,root,subj,
p2607
I2273
sVadjunct,adjunct_rc,comp,comp_fin,comp_inf,root,subj,
p2608
I2106
sVcomp,comp_ag,conjunct,obj,root,
p2609
I2230
sVcomp,comp_fin,conjunct,obj,root,
p2610
I540
sVadjunct,adjunct_compar,comp_fin,conjunct,root,subj,
p2611
I1782
sVadjunct,aglt,pd,root,
p2612
I1417
sVadjunct,app,ne,root,subj,
p2613
I805
sVadjunct,ne,pd,root,
p2614
I429
sVcomp,conjunct,root,
p2615
I32
sVcomp,mwe,obj,pd,punct,root,
p2616
I1904
sVadjunct,adjunct_rc,conjunct,ne,pd,root,subj,
p2617
I1768
sVabbrev_punct,adjunct,ne,root,subj,
p2618
I517
sVadjunct_qt,comp,conjunct,obj,obj_th,root,
p2619
I227
sVadjunct_qt,comp_fin,comp_inf,obj_th,root,
p2620
I1945
sVadjunct_rc,refl,root,
p2621
I1402
sVadjunct,comp,comp_fin,comp_inf,
p2622
I1678
sVabbrev_punct,adjunct,comp,comp_ag,ne,root,subj,
p2623
I2143
sVadjunct,comp_inf,conjunct,obj,obj_th,root,
p2624
I873
sVabbrev_punct,adjunct,comp,root,
p2625
I436
sVadjunct_rc,comp,conjunct,root,subj,
p2626
I1514
sVadjunct,comp_inf,conjunct,obj_th,root,
p2627
I870
sVadjunct,conjunct,mwe,obj_th,root,
p2628
I1642
sVadjunct,comp_fin,conjunct,obj,root,subj,
p2629
I635
sVapp,mwe,root,subj,
p2630
I2088
sVabbrev_punct,adjunct,comp,comp_fin,
p2631
I814
sVadjunct,comp,mwe,obj,pd,punct,root,
p2632
I1903
sVadjunct,refl,root,
p2633
I494
sVcomp_inf,obj,obj_th,root,
p2634
I1488
sVadjunct,adjunct_rc,comp,comp_fin,root,
p2635
I448
sVadjunct,obj,refl,root,
p2636
I1090
sVadjunct,conjunct,obj,obj_th,root,subj,
p2637
I1762
sVadjunct,adjunct_rc,comp,conjunct,obj_th,root,subj,
p2638
I1510
sVadjunct,adjunct_qt,comp,comp_fin,obj,refl,root,subj,
p2639
I978
sVadjunct,comp,comp_fin,obj,root,
p2640
I51
sVadjunct,conjunct,obj_th,pd,root,
p2641
I701
sVadjunct,adjunct_rc,comp_fin,conjunct,obj,pd,root,
p2642
I367
sVadjunct,comp_fin,ne,obj,root,
p2643
I2061
sVadjunct_rc,comp_fin,conjunct,obj,root,subj,
p2644
I843
sVadjunct,comp,comp_inf,pd,punct,root,
p2645
I2155
sVadjunct,app,comp,mwe,root,
p2646
I643
sVadjunct,app,obj,punct,root,
p2647
I1277
sVadjunct_compar,comp,comp_fin,comp_inf,root,
p2648
I1959
sVcond,conjunct,root,
p2649
I1314
sVitem,mwe,root,
p2650
I914
sVadjunct,adjunct_qt,adjunct_rc,pd,root,
p2651
I1505
sVadjunct,comp_fin,neg,root,
p2652
I918
sVadjunct,adjunct_qt,comp,
p2653
I1676
sVadjunct,comp,conjunct,ne,punct,root,
p2654
I999
sVadjunct,adjunct_qt,comp,punct,root,
p2655
I753
sVcomp,comp_fin,conjunct,mwe,root,
p2656
I955
sVcomp,comp_fin,obj,refl,root,
p2657
I645
sVadjunct_qt,adjunct_rc,obj,root,subj,
p2658
I1321
sVadjunct,comp_inf,conjunct,obj_th,root,subj,
p2659
I1206
sVaux,comp,comp_fin,obj,root,
p2660
I1385
sVadjunct_rc,conjunct,pd,root,subj,
p2661
I622
sVabbrev_punct,adjunct,comp,conjunct,root,
p2662
I516
sVadjunct,adjunct_qt,app,comp,conjunct,punct,root,
p2663
I822
sVadjunct,comp,comp_fin,comp_inf,conjunct,obj_th,punct,root,
p2664
I1885
sVadjunct,adjunct_qt,adjunct_rc,comp,obj,root,
p2665
I1721
sVadjunct,adjunct_qt,obj,root,subj,
p2666
I1718
sVcomp,comp_fin,conjunct,mwe,ne,root,subj,
p2667
I953
sVadjunct,adjunct_qt,adjunct_rc,comp,conjunct,root,subj,
p2668
I993
sVcomp,conjunct,punct,root,subj,
p2669
I1912
sVadjunct,comp,comp_inf,conjunct,refl,root,
p2670
I641
sVaux,obj,root,
p2671
I712
sVadjunct,comp_inf,root,subj,
p2672
I293
sVadjunct,comp_inf,obj,punct,root,subj,
p2673
I2233
sVadjunct_compar,comp,comp_inf,conjunct,root,subj,
p2674
I908
sVadjunct,adjunct_rc,comp,conjunct,pd,punct,root,
p2675
I837
sVadjunct_qt,conjunct,pd,root,subj,
p2676
I2114
sVadjunct,app,conjunct,ne,obj,root,
p2677
I1075
sVadjunct,comp,comp_inf,mwe,obj,pd,root,
p2678
I458
sVadjunct,adjunct_qt,conjunct,root,subj,
p2679
I486
sVadjunct,punct,root,
p2680
I11
sVadjunct_compar,comp_fin,comp_inf,root,
p2681
I1960
sVadjunct,conjunct,ne,neg,root,subj,
p2682
I2301
sVadjunct,comp,comp_fin,comp_inf,conjunct,obj,pd,root,
p2683
I1135
sVaglt,conjunct,root,
p2684
I290
sVadjunct_rc,conjunct,root,
p2685
I1737
sVadjunct_qt,adjunct_rc,comp_fin,root,subj,
p2686
I1324
sVcomp,comp_fin,obj,obj_th,root,
p2687
I317
sVadjunct,adjunct_qt,app,root,
p2688
I474
sVaux,comp_inf,conjunct,root,
p2689
I834
sVadjunct_qt,comp,comp_inf,conjunct,root,
p2690
I1842
sVadjunct,comp_fin,conjunct,refl,root,subj,
p2691
I1886
sVabbrev_punct,adjunct,ne,pd,root,
p2692
I337
sVadjunct,app,comp,comp_fin,mwe,obj,root,subj,
p2693
I80
sVadjunct,adjunct_qt,conjunct,obj,obj_th,pd,root,
p2694
I2189
sVabbrev_punct,conjunct,ne,root,subj,
p2695
I2211
sVadjunct_rc,app,punct,root,subj,
p2696
I1403
sVadjunct_qt,obj_th,root,
p2697
I675
sVadjunct,adjunct_rc,comp,comp_ag,conjunct,root,
p2698
I1620
sVadjunct,adjunct_qt,conjunct,mwe,root,subj,
p2699
I825
sVadjunct_qt,conjunct,obj_th,pd,root,
p2700
I2186
sVadjunct,conjunct,obj,obj_th,punct,root,
p2701
I1082
sVadjunct_rc,conjunct,mwe,ne,root,subj,
p2702
I1293
sVabbrev_punct,adjunct,comp,obj,root,
p2703
I578
sVadjunct_qt,comp,comp_fin,conjunct,punct,root,
p2704
I2022
sVadjunct_rc,comp,comp_inf,conjunct,obj,root,subj,
p2705
I958
sVcomp,conjunct,obj,obj_th,root,
p2706
I940
sVadjunct,aglt,comp,comp_fin,comp_inf,root,
p2707
I1151
sVapp,obj_th,root,
p2708
I762
sVadjunct,adjunct_compar,comp,root,
p2709
I849
sVabbrev_punct,adjunct,app,comp,comp_fin,ne,root,subj,
p2710
I1712
sVcomp,comp_inf,conjunct,mwe,root,
p2711
I1477
sVadjunct,obj,root,
p2712
I29
sVadjunct_qt,aux,conjunct,root,
p2713
I205
sVadjunct,app,obj,obj_th,punct,root,
p2714
I241
sVadjunct_qt,item,root,
p2715
I1979
sVabbrev_punct,adjunct,comp,comp_fin,ne,root,
p2716
I1779
sVadjunct,adjunct_rc,comp_fin,root,
p2717
I2015
sVadjunct,comp_ag,comp_fin,comp_inf,conjunct,root,subj,
p2718
I2131
sVadjunct_qt,comp_fin,refl,root,
p2719
I927
sVadjunct,adjunct_qt,conjunct,obj_th,root,
p2720
I1316
sVobj,refl,root,
p2721
I1430
sVadjunct_rc,comp,conjunct,obj,root,subj,
p2722
I1442
sVadjunct,aglt,comp_inf,conjunct,obj,root,
p2723
I1733
sVadjunct,adjunct_qt,comp_fin,root,
p2724
I777
sVadjunct,adjunct_compar,comp,conjunct,root,subj,
p2725
I1289
sVadjunct,comp,comp_fin,comp_inf,obj,punct,root,
p2726
I1343
sVcomp,mwe,root,
p2727
I796
sVadjunct,adjunct_qt,comp,conjunct,root,
p2728
I207
sVcomp,comp_inf,ne,obj,root,
p2729
I1308
sVadjunct_compar,adjunct_qt,comp,comp_fin,comp_inf,obj,pd,root,subj,
p2730
I1471
sVadjunct,aux,comp_inf,conjunct,root,
p2731
I676
sVadjunct,conjunct,mwe,root,
p2732
I393
sVadjunct,app,comp,conjunct,obj_th,punct,root,subj,
p2733
I1167
sVadjunct,comp,obj,obj_th,punct,root,
p2734
I1546
sVadjunct,comp_fin,conjunct,obj,obj_th,refl,root,
p2735
I1429
sVadjunct,adjunct_rc,ne,pd,root,
p2736
I1824
sVabbrev_punct,app,root,
p2737
I475
sVadjunct_compar,comp_fin,comp_inf,conjunct,root,subj,
p2738
I2171
sVcomp,comp_fin,conjunct,punct,root,subj,
p2739
I2135
sVcomp_fin,comp_inf,conjunct,obj_th,root,
p2740
I2172
sVadjunct,adjunct_rc,comp,cond,obj,root,subj,
p2741
I1882
sVadjunct,comp_inf,conjunct,obj,root,subj,
p2742
I841
sVcomp_fin,comp_inf,conjunct,root,
p2743
I277
sVabbrev_punct,adjunct,comp,conjunct,obj,root,subj,
p2744
I1182
sVadjunct,comp,comp_fin,mwe,obj,root,
p2745
I530
sVadjunct,adjunct_qt,adjunct_rc,obj,punct,root,
p2746
I1720
sVadjunct,comp,ne,pd,punct,root,
p2747
I691
sVadjunct,adjunct_qt,conjunct,mwe,obj,root,subj,
p2748
I2289
sVadjunct,mwe,root,
p2749
I348
sVadjunct,adjunct_qt,punct,root,
p2750
I479
sVadjunct,comp,conjunct,mwe,punct,root,subj,
p2751
I1386
sVadjunct_qt,conjunct,obj,obj_th,root,
p2752
I230
sVadjunct,adjunct_compar,app,comp,root,
p2753
I973
sVadjunct_qt,conjunct,ne,root,
p2754
I508
sVconjunct,ne,punct,root,
p2755
I1755
sVadjunct,adjunct_compar,comp,conjunct,mwe,punct,root,
p2756
I2078
sVcomp,comp_fin,comp_inf,conjunct,root,
p2757
I185
sVadjunct,adjunct_rc,app,comp,conjunct,pd,punct,root,
p2758
I659
sVconjunct,neg,root,subj,
p2759
I1772
sVadjunct_rc,aux,conjunct,obj_th,root,
p2760
I2236
sVadjunct,adjunct_rc,comp,comp_inf,conjunct,obj_th,root,
p2761
I295
sVadjunct_compar,conjunct,item,root,subj,
p2762
I2121
sVadjunct,comp,comp_ag,conjunct,obj_th,punct,root,
p2763
I1893
sVadjunct,comp_fin,conjunct,obj,punct,root,
p2764
I1143
sVadjunct,comp,comp_fin,
p2765
I813
sVadjunct,comp_inf,obj,obj_th,punct,root,
p2766
I1486
sVabbrev_punct,adjunct,comp,comp_fin,comp_inf,conjunct,obj,root,
p2767
I1617
sVadjunct,app,conjunct,pd,punct,root,
p2768
I1179
sVadjunct_rc,comp_fin,mwe,pd,punct,root,
p2769
I406
sVadjunct,app,comp_inf,ne,obj,root,
p2770
I1170
sVadjunct,comp,comp_fin,comp_inf,obj_th,root,
p2771
I853
sVadjunct_compar,aglt,comp_fin,root,
p2772
I1554
sVmwe,punct,root,
p2773
I1279
sVadjunct,app,comp,comp_ag,conjunct,obj,root,subj,
p2774
I386
sVadjunct,comp_inf,obj,root,
p2775
I182
sVadjunct,app,comp,comp_ag,punct,root,
p2776
I1830
sVadjunct,adjunct_rc,obj,root,subj,
p2777
I764
sVadjunct,comp,mwe,obj,root,subj,
p2778
I313
sVadjunct,comp,comp_fin,comp_inf,pd,root,subj,
p2779
I2046
sVadjunct,app,comp,conjunct,mwe,root,subj,
p2780
I466
sVadjunct,app,punct,root,
p2781
I408
sVadjunct,comp_inf,conjunct,mwe,root,
p2782
I637
sVadjunct,adjunct_rc,conjunct,root,subj,
p2783
I1180
sVabbrev_punct,adjunct,comp,ne,pd,root,
p2784
I1328
sVapp,comp_fin,root,subj,
p2785
I1560
sVapp,conjunct,obj,punct,root,
p2786
I967
sVadjunct,adjunct_qt,adjunct_rc,app,punct,root,
p2787
I1458
sVcomp,conjunct,neg,root,
p2788
I1405
sVadjunct_qt,punct,root,subj,
p2789
I1598
sVadjunct,app,comp,conjunct,obj,punct,root,subj,
p2790
I1390
sVcomp_fin,conjunct,obj,obj_th,root,
p2791
I362
sVadjunct,comp_fin,cond,root,
p2792
I774
sVadjunct,ne,obj,pd,root,
p2793
I657
sVadjunct,adjunct_qt,comp_fin,mwe,punct,root,
p2794
I96
sVadjunct,comp_fin,pd,punct,root,
p2795
I2293
sVadjunct,adjunct_qt,adjunct_rc,aux,conjunct,root,subj,
p2796
I987
sVadjunct,comp,mwe,punct,root,subj,
p2797
I1400
sVadjunct,app,comp_ag,root,
p2798
I1243
sVadjunct_rc,comp_fin,conjunct,root,
p2799
I1058
sVadjunct,adjunct_rc,comp_fin,obj,obj_th,pd,root,
p2800
I1209
sVadjunct,comp,comp_fin,mwe,punct,root,
p2801
I860
sVroot,
p2802
I2
sVadjunct,adjunct_compar,adjunct_qt,comp_fin,comp_inf,conjunct,punct,root,
p2803
I1543
sVadjunct,comp,comp_inf,obj,root,
p2804
I188
sVadjunct,adjunct_qt,conjunct,pd,root,subj,
p2805
I1189
sVcomp_fin,pd,root,
p2806
I251
sVadjunct_rc,comp,comp_fin,conjunct,obj,root,subj,
p2807
I844
sVadjunct,comp_fin,conjunct,ne,root,
p2808
I2314
sVabbrev_punct,app,conjunct,ne,root,
p2809
I1801
sVcomp_inf,punct,root,
p2810
I608
sVadjunct,app,conjunct,ne,punct,root,
p2811
I1333
sVadjunct,app,comp,comp_fin,obj,punct,root,subj,
p2812
I77
sVadjunct,adjunct_rc,app,punct,root,subj,
p2813
I1275
sVadjunct,adjunct_compar,punct,root,
p2814
I1643
sVadjunct,conjunct,subj,
p2815
I1870
sVadjunct,adjunct_rc,pd,root,
p2816
I932
sVadjunct,app,conjunct,ne,root,
p2817
I771
sVadjunct,obj,punct,root,
p2818
I273
sVadjunct,comp,comp_fin,comp_inf,root,subj,
p2819
I1194
sVadjunct,aglt,root,
p2820
I703
sVadjunct_qt,comp_fin,root,subj,
p2821
I928
sVconjunct,punct,root,
p2822
I122
sVadjunct,app,comp_fin,ne,obj,root,
p2823
I2087
sVadjunct,app,comp,comp_fin,punct,root,
p2824
I1216
sVadjunct_compar,comp_inf,root,
p2825
I1958
sVcomp_fin,conjunct,pd,root,
p2826
I631
sVadjunct,comp_inf,obj,root,subj,
p2827
I1352
sVadjunct,neg,obj_th,root,
p2828
I245
sVcomp,comp_inf,conjunct,punct,root,
p2829
I183
sVadjunct,adjunct_compar,punct,root,subj,
p2830
I1951
sVadjunct,comp,comp_ag,obj_th,root,
p2831
I350
sVabbrev_punct,adjunct,comp,ne,root,
p2832
I1064
sVadjunct,conjunct,ne,obj,pd,root,
p2833
I2282
sVadjunct_compar,comp,comp_fin,ne,root,
p2834
I1964
sVadjunct,adjunct_rc,comp,conjunct,refl,root,
p2835
I301
sVcomp,comp_fin,comp_inf,conjunct,neg,root,
p2836
I1468
sVadjunct,comp,mwe,obj_th,root,
p2837
I1848
sVapp,obj,root,
p2838
I421
sVadjunct,app,comp,comp_fin,conjunct,obj,root,subj,
p2839
I72
sVadjunct,adjunct_qt,app,mwe,root,
p2840
I1729
sVadjunct_compar,obj,root,
p2841
I2028
sVadjunct,app,comp,comp_fin,conjunct,obj,punct,root,subj,
p2842
I74
sVapp,comp,comp_ag,ne,root,
p2843
I1608
sVcomp,refl,root,
p2844
I644
sVadjunct,comp_fin,comp_inf,obj,obj_th,punct,root,
p2845
I1569
sVadjunct_rc,conjunct,neg,pd,root,
p2846
I1767
sVadjunct,app,conjunct,obj,pd,root,
p2847
I596
sVadjunct,comp,comp_fin,conjunct,ne,pd,root,
p2848
I1926
sVcomp,conjunct,mwe,ne,root,
p2849
I920
sVadjunct_qt,comp_fin,mwe,refl,root,
p2850
I113
sVadjunct,app,comp,comp_fin,conjunct,obj,punct,root,
p2851
I1441
sVcomp,obj_th,refl,root,
p2852
I1644
sVaux,comp_fin,root,subj,
p2853
I1361
sVadjunct,app,comp,pd,root,
p2854
I35
sVadjunct,adjunct_qt,comp,conjunct,obj_th,root,
p2855
I829
sVadjunct,aux,comp,comp_fin,conjunct,neg,root,
p2856
I1233
sVconjunct,pd,refl,root,
p2857
I580
sVcomp_inf,conjunct,punct,root,
p2858
I133
sVadjunct,app,comp,conjunct,mwe,ne,obj,punct,root,
p2859
I925
sVadjunct,app,conjunct,root,subj,
p2860
I440
sVpd,root,subj,
p2861
I654
sVadjunct,comp_fin,obj,root,subj,
p2862
I1063
sVadjunct,adjunct_qt,adjunct_rc,comp,root,subj,
p2863
I991
sVadjunct,comp,conjunct,pd,punct,root,
p2864
I551
sVadjunct_qt,comp,pd,root,
p2865
I1449
sVadjunct,comp,conjunct,root,subj,
p2866
I92
sVadjunct_rc,comp,comp_inf,conjunct,root,subj,
p2867
I132
sVadjunct,comp_fin,conjunct,punct,root,
p2868
I278
sVabbrev_punct,adjunct,conjunct,pd,root,
p2869
I336
sVcomp,comp_fin,conjunct,ne,obj,root,
p2870
I2305
sVapp,comp,comp_ag,punct,root,
p2871
I1606
sVadjunct,comp,comp_ag,mwe,root,
p2872
I481
sVadjunct_rc,app,cond,conjunct,obj,root,
p2873
I738
sVadjunct,comp_fin,conjunct,obj_th,punct,root,
p2874
I1124
sVcomp_fin,conjunct,root,subj,
p2875
I121
sVadjunct,comp_fin,pd,root,
p2876
I250
sVcomp_fin,pd,refl,root,
p2877
I1212
sVadjunct,aux,comp,comp_fin,comp_inf,obj,root,
p2878
I2276
sVadjunct_compar,aux,comp_fin,comp_inf,conjunct,neg,root,
p2879
I2163
sVadjunct,comp,comp_fin,conjunct,refl,root,
p2880
I404
sVadjunct,comp,comp_ag,conjunct,obj,root,
p2881
I1004
sVabbrev_punct,ne,pd,root,
p2882
I2076
sVadjunct_rc,comp,comp_fin,conjunct,neg,root,subj,
p2883
I2162
sVadjunct_compar,comp,comp_inf,conjunct,refl,root,
p2884
I906
sVadjunct,comp,comp_inf,punct,root,
p2885
I725
sVadjunct,app,punct,root,subj,
p2886
I439
sVadjunct,comp,comp_inf,root,subj,
p2887
I610
sVcomp,comp_ag,comp_inf,conjunct,root,
p2888
I1696
sVadjunct_rc,comp,conjunct,pd,root,
p2889
I1765
sVadjunct,comp,comp_fin,comp_inf,conjunct,obj,root,subj,
p2890
I194
sVobj_th,root,subj,
p2891
I891
sVadjunct,aux,comp_fin,comp_inf,conjunct,root,
p2892
I1749
sVadjunct_qt,aglt,root,
p2893
I1948
sVadjunct,comp,pd,root,
p2894
I36
sVadjunct,aux,comp,comp_fin,conjunct,obj,root,
p2895
I462
sVadjunct_qt,comp,mwe,obj,root,
p2896
I1908
sVadjunct,adjunct_rc,conjunct,pd,punct,root,subj,
p2897
I792
sVadjunct,adjunct_compar,comp_fin,comp_inf,conjunct,root,
p2898
I1539
sVadjunct,app,comp,obj,root,subj,
p2899
I382
sVapp,conjunct,ne,obj,root,
p2900
I542
sVadjunct,comp,comp_ag,comp_fin,conjunct,obj,root,
p2901
I2306
sVadjunct,comp,comp_inf,pd,refl,root,
p2902
I2153
sVabbrev_punct,adjunct_qt,conjunct,ne,root,
p2903
I509
sVcomp_inf,mwe,root,
p2904
I1420
sVabbrev_punct,adjunct,conjunct,obj,root,subj,
p2905
I1371
sVabbrev_punct,app,comp_fin,ne,root,subj,
p2906
I1708
sVadjunct_compar,app,comp,conjunct,root,
p2907
I2129
sVcomp_fin,mwe,obj,root,
p2908
I1987
sVadjunct_compar,comp_fin,root,
p2909
I1555
sVadjunct,app,comp,conjunct,mwe,obj_th,root,subj,
p2910
I1166
sVadjunct_qt,aux,conjunct,obj,root,
p2911
I311
sVconjunct,ne,obj,root,
p2912
I975
sVadjunct,comp_inf,mwe,obj,root,
p2913
I1702
sVabbrev_punct,adjunct,conjunct,ne,obj,obj_th,root,
p2914
I1793
sVadjunct,adjunct_rc,ne,obj,root,
p2915
I456
sVconjunct,obj_th,root,subj,
p2916
I1199
sVadjunct_qt,comp,comp_ag,root,
p2917
I1976
sVadjunct,comp_fin,pre_coord,root,subj,
p2918
I1137
sVadjunct,comp,comp_fin,ne,root,subj,
p2919
I1362
sVadjunct_compar,comp,comp_fin,punct,root,
p2920
I173
sVadjunct,adjunct_compar,comp,pd,root,
p2921
I1114
sVadjunct,app,comp,root,
p2922
I264
sVcomp_fin,root,subj,
p2923
I252
sVabbrev_punct,adjunct_qt,root,
p2924
I1613
sVadjunct,adjunct_qt,conjunct,pd,root,
p2925
I1190
sVadjunct,adjunct_rc,conjunct,neg,root,
p2926
I1899
sVadjunct_qt,comp_fin,comp_inf,punct,root,
p2927
I1943
sVadjunct,adjunct_rc,comp_fin,comp_inf,conjunct,pd,root,
p2928
I1162
sVadjunct,comp_fin,comp_inf,punct,root,
p2929
I157
sVcomp_inf,obj,refl,root,
p2930
I1487
sVconjunct,root,
p2931
I19
sVcomp,comp_fin,conjunct,mwe,root,subj,
p2932
I954
sVcomp_inf,conjunct,root,
p2933
I130
sVabbrev_punct,adjunct,comp,comp_fin,conjunct,obj,root,subj,
p2934
I2142
sVadjunct,comp_fin,comp_inf,obj,refl,root,
p2935
I946
sVadjunct_qt,root,subj,
p2936
I209
sVadjunct_qt,comp,comp_fin,conjunct,root,subj,
p2937
I2045
sVadjunct,comp,comp_fin,conjunct,pd,refl,root,
p2938
I1226
sVadjunct,app,comp,comp_inf,punct,root,
p2939
I48
sVadjunct_rc,comp,conjunct,obj,root,
p2940
I1444
sVadjunct,adjunct_qt,adjunct_rc,comp_fin,conjunct,obj,pd,root,
p2941
I600
sVaux,conjunct,obj,root,
p2942
I2272
sVadjunct,adjunct_rc,comp,mwe,ne,obj,punct,root,subj,
p2943
I1409
sVadjunct,comp_fin,comp_inf,conjunct,mwe,obj,obj_th,root,
p2944
I945
sVadjunct,adjunct_qt,refl,root,
p2945
I874
sVadjunct,comp,comp_inf,conjunct,obj,pd,root,subj,
p2946
I84
sVadjunct_rc,comp,comp_fin,conjunct,root,subj,
p2947
I1739
sVadjunct,adjunct_compar,comp,comp_ag,root,
p2948
I1804
sVadjunct_rc,conjunct,pd,punct,root,
p2949
I621
sVadjunct_qt,comp,comp_fin,root,subj,
p2950
I1492
sVcomp_fin,obj,punct,root,
p2951
I2054
sVadjunct,comp,comp_fin,comp_inf,mwe,root,
p2952
I696
sVapp,comp,conjunct,root,subj,
p2953
I690
sVadjunct,item,root,
p2954
I2018
sVadjunct,ne,obj_th,root,
p2955
I1563
sVadjunct,comp,obj,pre_coord,root,
p2956
I2058
sVadjunct_qt,comp,mwe,obj,punct,root,
p2957
I1906
sVadjunct_qt,comp,conjunct,root,subj,
p2958
I2292
sVadjunct_compar,comp,comp_inf,conjunct,pd,root,
p2959
I1378
sVadjunct,comp,comp_ag,mwe,ne,root,
p2960
I2308
sVadjunct,comp,conjunct,ne,refl,root,subj,
p2961
I572
sVadjunct,app,comp,comp_fin,conjunct,mwe,root,subj,
p2962
I2179
sVadjunct,comp,comp_ag,comp_fin,comp_inf,root,
p2963
I1840
sVadjunct,aglt,comp_fin,cond,root,
p2964
I1556
sVadjunct,comp,comp_ag,pd,root,
p2965
I1422
sVadjunct,conjunct,ne,pd,root,subj,
p2966
I1802
sVadjunct_rc,pd,refl,root,
p2967
I1766
sVabbrev_punct,mwe,root,subj,
p2968
I1785
sVadjunct_rc,comp,root,
p2969
I1507
sVadjunct_qt,adjunct_rc,root,
p2970
I619
sVadjunct,comp,comp_ag,pd,root,subj,
p2971
I964
sVadjunct,comp,ne,root,subj,
p2972
I554
sVcomp_fin,comp_inf,conjunct,mwe,obj,root,subj,
p2973
I1302
sVadjunct,adjunct_compar,comp,conjunct,mwe,root,subj,
p2974
I1387
sVadjunct,conjunct,mwe,obj,pd,pre_coord,root,
p2975
I1932
sVadjunct_qt,adjunct_rc,punct,root,subj,
p2976
I1320
sVabbrev_punct,comp,comp_inf,root,
p2977
I2243
sVobj_th,punct,root,
p2978
I280
sVadjunct,app,comp,conjunct,pd,root,
p2979
I658
sVcomp,ne,obj,root,
p2980
I1300
sVadjunct,conjunct,neg,root,subj,
p2981
I698
sVadjunct,adjunct_rc,comp_inf,conjunct,obj,pd,root,
p2982
I1929
sVadjunct,adjunct_rc,comp,comp_inf,obj,root,subj,
p2983
I1881
sVadjunct_rc,app,obj,punct,root,
p2984
I1705
sVabbrev_punct,adjunct,obj,root,subj,
p2985
I2195
sVaux,punct,root,
p2986
I1010
sVadjunct,comp_fin,comp_inf,mwe,root,subj,
p2987
I1701
sVadjunct,comp,root,
p2988
I13
sVadjunct_qt,comp_inf,conjunct,root,
p2989
I1450
sVmwe,obj_th,root,
p2990
I1757
sVadjunct,adjunct_compar,conjunct,punct,root,subj,
p2991
I2123
sVadjunct,app,conjunct,punct,root,
p2992
I352
sVadjunct,comp_fin,conjunct,mwe,obj,root,
p2993
I1985
sVadjunct,adjunct_qt,aux,comp,conjunct,obj,root,subj,
p2994
I1978
sVabbrev_punct,adjunct,comp,comp_fin,conjunct,mwe,root,subj,
p2995
I168
sVadjunct,comp_fin,punct,root,
p2996
I359
sVadjunct_qt,comp_fin,mwe,root,
p2997
I115
sVabbrev_punct,adjunct,comp,comp_ag,root,subj,
p2998
I2051
sVadjunct,adjunct_qt,comp,obj_th,root,subj,
p2999
I2214
sVmwe,obj,punct,root,
p3000
I413
sVadjunct,comp_fin,comp_inf,conjunct,obj,pd,root,
p3001
I161
sVadjunct,aux,root,
p3002
I270
sVadjunct_compar,adjunct_qt,comp,comp_fin,comp_inf,obj,pd,punct,root,subj,
p3003
I1470
sVadjunct_compar,comp,comp_fin,root,
p3004
I174
sVcomp,
p3005
I807
sVadjunct,conjunct,obj,pd,root,
p3006
I863
sVabbrev_punct,mwe,obj,root,
p3007
I995
sVadjunct,app,ne,obj,root,
p3008
I802
sVadjunct,adjunct_compar,adjunct_qt,comp,conjunct,root,
p3009
I1485
sVadjunct_rc,punct,root,
p3010
I779
sVabbrev_punct,adjunct,adjunct_qt,comp,conjunct,root,
p3011
I754
sVpd,punct,root,
p3012
I862
sVadjunct_qt,comp,comp_inf,root,
p3013
I1127
sVadjunct,comp_ag,ne,root,
p3014
I1001
sVadjunct,app,conjunct,obj,punct,root,
p3015
I1074
sVadjunct,conjunct,punct,root,subj,
p3016
I288
sVabbrev_punct,comp,comp_fin,root,subj,
p3017
I2101
sVadjunct,adjunct_compar,comp,conjunct,obj,root,
p3018
I1974
sVadjunct_qt,aux,comp_inf,refl,root,
p3019
I782
sVadjunct,comp,comp_fin,obj_th,punct,root,subj,
p3020
I733
sVadjunct,comp,conjunct,mwe,pd,punct,root,
p3021
I867
sVadjunct,adjunct_rc,conjunct,obj,pd,root,
p3022
I623
sVabbrev_punct,adjunct,app,comp,ne,root,
p3023
I1027
sVadjunct,adjunct_compar,obj,pd,root,
p3024
I2224
sVadjunct,adjunct_compar,comp,comp_fin,conjunct,mwe,ne,obj,root,subj,
p3025
I2080
sVadjunct,comp,comp_ag,conjunct,mwe,obj_th,root,
p3026
I2200
sVadjunct,adjunct_rc,comp,comp_fin,comp_inf,obj,root,subj,
p3027
I1085
sVcomp,comp_fin,comp_inf,obj,refl,root,
p3028
I858
sVadjunct,app,comp_inf,pd,punct,root,
p3029
I750
sVadjunct,adjunct_rc,comp,comp_fin,punct,root,subj,
p3030
I2107
sVapp,comp,comp_fin,ne,root,subj,
p3031
I1709
sVcomp_ag,root,
p3032
I281
sVadjunct,adjunct_qt,conjunct,punct,root,subj,
p3033
I487
sVadjunct,adjunct_qt,comp,comp_ag,comp_fin,mwe,root,
p3034
I198
sVadjunct,comp_fin,conjunct,obj,refl,root,
p3035
I1229
sVadjunct,adjunct_qt,comp,conjunct,ne,root,
p3036
I488
sVcomp,comp_fin,root,subj,
p3037
I179
sVcomp,obj,punct,root,
p3038
I1342
sVcomp,conjunct,obj,obj_th,punct,root,
p3039
I1031
sVadjunct,adjunct_rc,comp_fin,obj,root,
p3040
I2013
sVadjunct,comp_ag,conjunct,punct,root,
p3041
I1924
sVadjunct,adjunct_qt,comp_fin,punct,root,
p3042
I589
sVadjunct,adjunct_rc,comp_fin,conjunct,punct,root,subj,
p3043
I2223
sVadjunct,obj,pd,root,
p3044
I380
sVadjunct,adjunct_compar,comp,conjunct,root,
p3045
I510
sVcomp,comp_fin,subj,
p3046
I817
sVcomp_ag,obj,root,
p3047
I1670
sVcomp,comp_fin,conjunct,obj_th,refl,root,
p3048
I1157
sVadjunct_rc,comp,comp_inf,conjunct,root,
p3049
I134
sVadjunct,adjunct_compar,adjunct_qt,comp,comp_fin,conjunct,root,subj,
p3050
I1692
sVadjunct_rc,comp,comp_fin,conjunct,punct,root,subj,
p3051
I1741
sVadjunct_rc,comp,comp_fin,neg,root,subj,
p3052
I1630
sVadjunct,comp_inf,ne,pd,root,
p3053
I749
sVadjunct,comp_fin,comp_inf,conjunct,obj,punct,root,subj,
p3054
I491
sVabbrev_punct,adjunct,comp,comp_fin,conjunct,ne,obj_th,root,
p3055
I1626
sVcomp,conjunct,mwe,ne,obj,root,
p3056
I1892
sVne,pd,root,subj,
p3057
I2253
sVadjunct,comp,comp_fin,mwe,obj,punct,root,
p3058
I1694
sVadjunct,aux,conjunct,punct,root,
p3059
I1923
sVadjunct,comp,comp_fin,mwe,obj,root,subj,
p3060
I1537
sVadjunct,adjunct_rc,comp,comp_fin,root,subj,
p3061
I2105
sVadjunct,aux,comp,conjunct,root,
p3062
I634
sVadjunct,adjunct_qt,comp,conjunct,mwe,root,subj,
p3063
I2288
sVadjunct,adjunct_qt,aux,comp,comp_fin,mwe,root,
p3064
I201
sVadjunct,app,comp,conjunct,obj_th,root,subj,
p3065
I1168
sVadjunct,comp,comp_inf,conjunct,mwe,obj,root,
p3066
I639
sVadjunct,adjunct_qt,comp,comp_inf,root,
p3067
I1128
sVadjunct,adjunct_rc,refl,root,
p3068
I1684
sVadjunct_rc,app,conjunct,obj,root,
p3069
I742
sVadjunct,comp,conjunct,pd,
p3070
I1663
sVadjunct,comp,comp_fin,obj,obj_th,root,
p3071
I316
sVadjunct,comp,comp_fin,comp_inf,conjunct,punct,root,
p3072
I1139
sVadjunct,adjunct_rc,comp,pd,root,subj,
p3073
I1816
sVadjunct,app,comp,comp_ag,root,
p3074
I1244
sVconjunct,ne,pd,root,
p3075
I334
sVadjunct_compar,comp_inf,conjunct,pd,root,
p3076
I1376
sVadjunct,comp,obj,punct,
p3077
I1669
sVadjunct,app,root,subj,
p3078
I4
sVcomp,obj_th,punct,root,
p3079
I734
sVapp,comp,conjunct,obj,root,
p3080
I745
sVadjunct,comp_fin,conjunct,pd,punct,root,
p3081
I1877
sVadjunct,comp,ne,pd,root,
p3082
I338
sVadjunct,comp,mwe,obj,obj_th,root,
p3083
I1652
sVaux,comp,conjunct,mwe,obj_th,root,
p3084
I2204
sVadjunct_rc,comp,cond,root,subj,
p3085
I960
sVadjunct_qt,comp_fin,root,
p3086
I929
sVadjunct,aux,comp,punct,root,
p3087
I1530
sVadjunct,comp,comp_fin,mwe,pre_coord,root,
p3088
I2279
sVadjunct,comp,comp_ag,ne,root,subj,
p3089
I1163
sVadjunct,comp,comp_fin,conjunct,obj_th,root,
p3090
I366
sVcomp,mwe,
p3091
I1519
sVconjunct,punct,refl,root,
p3092
I1748
sVcomp,comp_fin,neg,root,
p3093
I56
sVadjunct_rc,comp,punct,root,
p3094
I1747
sVadjunct_rc,comp,pd,root,
p3095
I1825
sVabbrev_punct,adjunct,comp,conjunct,mwe,root,subj,
p3096
I1776
sVadjunct,punct,root,subj,
p3097
I1
sVne,pd,root,
p3098
I697
sVadjunct,comp,conjunct,ne,root,subj,
p3099
I342
sVadjunct,adjunct_qt,comp,root,subj,
p3100
I720
sVadjunct,comp_ag,conjunct,root,
p3101
I354
sVadjunct,app,ne,pd,root,
p3102
I672
sVadjunct,ne,obj,obj_th,root,
p3103
I437
sVadjunct,adjunct_qt,root,
p3104
I208
sVadjunct,adjunct_rc,comp,comp_fin,obj,root,subj,
p3105
I1084
sVcomp,comp_fin,conjunct,obj,obj_th,root,
p3106
I1799
sVcomp,comp_fin,obj,punct,root,
p3107
I2004
sVapp,pd,root,
p3108
I428
sVcomp_fin,refl,root,subj,
p3109
I1965
sVadjunct,comp,comp_fin,conjunct,mwe,root,
p3110
I403
sVadjunct,adjunct_qt,comp,conjunct,ne,punct,root,
p3111
I1463
sVadjunct,comp,comp_fin,comp_inf,conjunct,obj,pd,root,subj,
p3112
I325
sVadjunct,adjunct_compar,comp_fin,obj_th,root,
p3113
I1813
sVadjunct,app,obj,punct,root,subj,
p3114
I379
sVadjunct,conjunct,refl,root,subj,
p3115
I722
sVadjunct,adjunct_qt,comp_fin,obj_th,punct,root,
p3116
I2192
sVadjunct,adjunct_compar,comp,comp_inf,conjunct,root,subj,
p3117
I907
sVadjunct,comp,conjunct,neg,obj,root,
p3118
I1043
sVadjunct,comp_fin,conjunct,refl,root,
p3119
I275
sVadjunct,adjunct_qt,conjunct,obj_th,punct,root,
p3120
I1789
sVcomp,conjunct,mwe,punct,root,subj,
p3121
I1913
sVcomp_fin,conjunct,ne,root,subj,
p3122
I2182
sVadjunct_compar,comp,pd,root,
p3123
I1490
sVadjunct,comp,comp_fin,conjunct,obj,obj_th,root,subj,
p3124
I1102
sVadjunct,comp,comp_fin,cond,conjunct,root,
p3125
I2090
sVadjunct_compar,aux,comp_fin,comp_inf,conjunct,root,
p3126
I2164
sVadjunct,comp,comp_fin,subj,
p3127
I816
sVadjunct,comp,mwe,ne,root,
p3128
I546
sVadjunct,adjunct_compar,comp,mwe,root,
p3129
I1805
sVadjunct,adjunct_rc,app,obj,punct,root,
p3130
I453
sVadjunct_rc,comp,comp_fin,comp_inf,conjunct,pd,punct,refl,root,subj,
p3131
I2275
sVconjunct,neg,obj,root,
p3132
I1557
sVcomp,comp_fin,mwe,root,
p3133
I1023
sVadjunct,mwe,obj,root,
p3134
I888
sVcomp,comp_ag,comp_fin,conjunct,root,
p3135
I1363
sVcomp_fin,comp_inf,root,subj,
p3136
I1306
sVadjunct,aux,comp,comp_fin,comp_inf,
p3137
I1677
sVadjunct,comp,comp_fin,obj_th,punct,root,
p3138
I539
sVadjunct,app,comp,comp_fin,conjunct,obj_th,root,subj,
p3139
I982
sVadjunct,app,conjunct,pd,root,
p3140
I1009
sVadjunct,comp,conjunct,mwe,obj_th,root,
p3141
I1263
sVadjunct,comp,comp_ag,comp_fin,pd,root,
p3142
I1111
sVadjunct,adjunct_rc,comp,conjunct,obj_th,pd,root,
p3143
I2222
sVadjunct,adjunct_rc,obj_th,root,
p3144
I454
sVcomp_fin,mwe,root,subj,
p3145
I1988
sVabbrev_punct,adjunct_qt,conjunct,mwe,obj_th,root,
p3146
I828
sVadjunct,comp,comp_fin,comp_inf,root,
p3147
I153
sVadjunct,adjunct_rc,comp,comp_inf,root,
p3148
I1219
sVadjunct,comp_fin,obj,obj_th,root,
p3149
I1640
sVadjunct,app,conjunct,mwe,ne,root,
p3150
I1753
sVadjunct,adjunct_qt,comp_fin,conjunct,root,
p3151
I1774
sVadjunct,aux,comp,conjunct,mwe,obj,obj_th,root,
p3152
I2205
sVadjunct,aux,comp_fin,comp_inf,root,
p3153
I569
sVadjunct,comp_fin,comp_inf,conjunct,obj,obj_th,punct,root,
p3154
I947
sVadjunct,comp,comp_ag,conjunct,root,subj,
p3155
I1231
sVadjunct,comp_fin,refl,root,
p3156
I592
sVadjunct,adjunct_qt,comp,mwe,root,
p3157
I1686
sVadjunct,comp,comp_ag,mwe,ne,obj,root,subj,
p3158
I884
sVadjunct,adjunct_qt,app,conjunct,mwe,root,
p3159
I1725
sVadjunct_qt,comp_inf,obj,root,
p3160
I1325
sVapp,pd,punct,root,
p3161
I1489
sVadjunct,comp,comp_fin,comp_inf,conjunct,obj,root,
p3162
I145
sVadjunct_rc,aux,comp,conjunct,obj,root,
p3163
I1443
sVadjunct,adjunct_compar,conjunct,root,subj,
p3164
I2120
sVadjunct,adjunct_rc,obj,pd,root,
p3165
I2074
sVadjunct,adjunct_qt,adjunct_rc,comp_fin,conjunct,mwe,obj,pd,root,
p3166
I601
sVapp,comp,comp_inf,conjunct,obj,root,
p3167
I1414
sVadjunct_qt,adjunct_rc,comp,comp_fin,root,
p3168
I1188
sVadjunct,comp,comp_fin,comp_inf,conjunct,neg,root,
p3169
I854
sVadjunct,adjunct_rc,comp,comp_inf,conjunct,neg,root,
p3170
I296
sVcomp_fin,comp_inf,punct,root,
p3171
I1353
sVadjunct,adjunct_qt,punct,root,subj,
p3172
I1967
sVadjunct,adjunct_rc,comp,comp_fin,conjunct,obj,root,subj,
p3173
I845
sVadjunct,aux,comp,comp_inf,conjunct,root,subj,
p3174
I705
sVabbrev_punct,adjunct,adjunct_qt,conjunct,root,subj,
p3175
I824
sVadjunct,comp,conjunct,ne,obj,punct,root,subj,
p3176
I1382
sVadjunct,comp,comp_inf,ne,root,
p3177
I936
sVadjunct,app,comp,comp_fin,conjunct,root,
p3178
I1260
sVcomp,comp_inf,root,
p3179
I50
sVne,root,
p3180
I18
sVapp,comp,punct,root,subj,
p3181
I1638
sVapp,root,
p3182
I42
sVadjunct,adjunct_rc,comp,conjunct,obj,root,subj,
p3183
I1513
sVadjunct_rc,pd,root,
p3184
I778
sVmwe,
p3185
I1558
sVadjunct,adjunct_rc,conjunct,obj,root,
p3186
I374
sVadjunct,conjunct,mwe,obj,root,subj,
p3187
I885
sVadjunct,comp,comp_inf,conjunct,obj,root,
p3188
I193
sVadjunct_rc,comp_fin,obj,pd,root,subj,
p3189
I1214
sVadjunct_rc,conjunct,ne,pd,root,subj,
p3190
I1769
sVadjunct,adjunct_rc,conjunct,obj,subj,
p3191
I1860
sVadjunct,comp,comp_fin,comp_inf,neg,root,
p3192
I2323
sVcomp,comp_ag,conjunct,ne,obj,root,
p3193
I1890
sVcomp,comp_ag,conjunct,ne,root,
p3194
I1508
sVadjunct,aglt,obj,root,
p3195
I1089
sVadjunct,app,comp,comp_fin,obj,obj_th,root,
p3196
I1384
sVadjunct,adjunct_qt,mwe,root,
p3197
I1005
sVadjunct,aux,comp,pd,root,
p3198
I1941
sVcomp,comp_fin,comp_inf,conjunct,refl,root,
p3199
I875
sVadjunct_rc,comp_fin,conjunct,punct,root,subj,
p3200
I1744
sVadjunct,app,comp,comp_ag,root,subj,
p3201
I1480
sVcomp_fin,refl,root,
p3202
I356
sVadjunct,adjunct_rc,pd,refl,root,
p3203
I2117
sVadjunct,adjunct_compar,comp,comp_inf,conjunct,obj,pd,root,
p3204
I1375
sVadjunct,adjunct_rc,comp,comp_fin,conjunct,root,
p3205
I1055
sVadjunct_rc,comp,comp_inf,conjunct,punct,root,
p3206
I131
sVcomp,comp_fin,conjunct,pd,root,subj,
p3207
I1071
sVadjunct,aux,conjunct,root,subj,
p3208
I1262
sVcomp_fin,neg,obj,root,subj,
p3209
I2108
sVadjunct,adjunct_rc,conjunct,obj_th,root,subj,
p3210
I1509
sVadjunct,app,comp,conjunct,ne,obj,root,
p3211
I787
sVadjunct,adjunct_rc,comp,obj_th,root,subj,
p3212
I1332
sVadjunct,adjunct_qt,comp,comp_fin,refl,root,
p3213
I2160
sVcomp,comp_fin,conjunct,root,
p3214
I396
sVadjunct,comp,comp_fin,comp_inf,conjunct,ne,obj,root,
p3215
I447
sVadjunct_rc,comp_inf,root,subj,
p3216
I1552
sVadjunct,conjunct,obj,refl,root,subj,
p3217
I1761
sVapp,comp,conjunct,punct,root,
p3218
I1754
sVadjunct,app,conjunct,ne,root,subj,
p3219
I438
sVcomp_fin,comp_inf,mwe,obj,root,
p3220
I1198
sVcomp_inf,punct,root,subj,
p3221
I1576
sVadjunct,comp_fin,mwe,pre_coord,root,subj,
p3222
I1138
sVadjunct,adjunct_qt,comp,comp_fin,conjunct,mwe,root,
p3223
I2136
sVcomp_fin,conjunct,obj_th,root,
p3224
I1819
sVadjunct,ne,obj,root,subj,
p3225
I378
sVapp,mwe,punct,root,
p3226
I1726
sVabbrev_punct,adjunct,conjunct,ne,obj,root,
p3227
I1901
sVadjunct,
p3228
I1869
sVcomp,comp_fin,neg,pd,root,
p3229
I1118
sVadjunct,comp,comp_fin,conjunct,obj,root,subj,
p3230
I165
sVadjunct,adjunct_compar,comp,conjunct,obj,root,subj,
p3231
I1368
sVadjunct,app,refl,root,
p3232
I759
sVadjunct_qt,adjunct_rc,comp_fin,pd,root,
p3233
I604
sVadjunct,comp,conjunct,obj,pd,
p3234
I1665
sVadjunct,adjunct_qt,comp,conjunct,obj,punct,root,subj,
p3235
I312
sVadjunct,adjunct_qt,adjunct_rc,obj,root,
p3236
I618
sVadjunct,comp,conjunct,pd,refl,root,
p3237
I1548
sVadjunct,adjunct_compar,app,conjunct,mwe,root,subj,
p3238
I1395
sVadjunct,comp_fin,conjunct,obj_th,root,
p3239
I235
sVabbrev_punct,root,
p3240
I1365
sVadjunct,comp,comp_inf,mwe,obj,root,
p3241
I457
sVadjunct_rc,ne,root,subj,
p3242
I1181
sVadjunct,comp,comp_fin,cond,conjunct,obj,root,subj,
p3243
I2270
sVadjunct_qt,conjunct,obj,obj_th,punct,root,
p3244
I229
sVadjunct,comp,conjunct,punct,root,subj,
p3245
I89
sVadjunct,conjunct,root,subj,
p3246
I248
sVadjunct,app,comp,comp_inf,ne,root,
p3247
I47
sVadjunct,root,subj,
p3248
I3
sVadjunct,comp,conjunct,obj,punct,root,subj,
p3249
I88
sVadjunct,aux,comp,comp_ag,conjunct,mwe,obj,obj_th,root,
p3250
I2202
sVadjunct,app,comp,mwe,punct,root,
p3251
I642
sVadjunct,comp,comp_ag,mwe,obj,root,subj,
p3252
I628
sVadjunct,adjunct_rc,ne,root,subj,
p3253
I2124
sVadjunct,adjunct_rc,aux,comp_fin,comp_inf,conjunct,obj,root,subj,
p3254
I160
sVadjunct,comp,ne,punct,root,
p3255
I1478
sVadjunct,comp_fin,comp_inf,mwe,root,
p3256
I694
sVconjunct,pd,root,
p3257
I333
sVadjunct,adjunct_qt,pd,root,subj,
p3258
I254
sVapp,comp_fin,ne,obj,root,
p3259
I2086
sVadjunct,comp,comp_ag,comp_inf,conjunct,root,
p3260
I1697
sVadjunct,conjunct,obj_th,refl,root,
p3261
I1207
sVabbrev_punct,adjunct,comp,comp_fin,root,
p3262
I1778
sVadjunct,comp_fin,comp_inf,conjunct,obj,root,subj,
p3263
I144
sVadjunct,comp,comp_inf,conjunct,obj,pd,root,
p3264
I1484
sVcomp,comp_inf,conjunct,obj,root,
p3265
I307
sVadjunct,comp_inf,punct,root,
p3266
I292
sVadjunct,app,comp_inf,pd,root,
p3267
I751
sVadjunct,adjunct_rc,app,ne,obj_th,punct,root,subj,
p3268
I2299
sVadjunct,comp_inf,neg,obj,root,
p3269
I180
sVadjunct,neg,root,subj,
p3270
I832
sVadjunct_compar,pd,root,
p3271
I1521
sVadjunct,comp,comp_inf,obj,punct,root,
p3272
I726
sVadjunct,comp,comp_fin,conjunct,mwe,punct,root,
p3273
I531
sVadjunct_rc,conjunct,pd,refl,root,
p3274
I1764
sVcomp_fin,comp_inf,conjunct,obj_th,root,subj,
p3275
I2068
sVadjunct_rc,pd,root,subj,
p3276
I2021
sVadjunct,adjunct_compar,comp_fin,comp_inf,conjunct,refl,root,
p3277
I1541
sVadjunct_qt,conjunct,ne,root,subj,
p3278
I820
sVadjunct,comp_fin,comp_inf,mwe,obj,root,subj,
p3279
I2227
sVadjunct,adjunct_rc,comp_fin,conjunct,obj,punct,root,
p3280
I358
sVadjunct,comp_inf,conjunct,refl,root,
p3281
I1282
sVconjunct,pd,punct,root,
p3282
I583
sVcomp,conjunct,punct,root,
p3283
I397
sVcomp_ag,root,subj,
p3284
I1645
sVadjunct,adjunct_qt,mwe,punct,root,
p3285
I2049
sVadjunct,adjunct_rc,comp,obj,punct,root,
p3286
I1796
sVadjunct_qt,comp_fin,comp_inf,root,
p3287
I1946
sVadjunct,app,comp,mwe,obj,root,subj,
p3288
I1178
sVcomp,comp_fin,conjunct,refl,root,subj,
p3289
I1758
sVadjunct,comp,comp_fin,mwe,root,subj,
p3290
I646
sVadjunct,comp,conjunct,neg,pd,root,
p3291
I1549
sVadjunct,comp,comp_fin,conjunct,punct,root,subj,
p3292
I585
sVadjunct,app,comp,comp_fin,obj,obj_th,root,subj,
p3293
I2141
sVconjunct,mwe,root,subj,
p3294
I662
sVadjunct,comp,comp_inf,mwe,refl,root,
p3295
I2269
sVadjunct,adjunct_qt,comp,comp_fin,conjunct,punct,root,subj,
p3296
I1693
sVadjunct_qt,app,mwe,root,
p3297
I1728
sVcomp_inf,conjunct,obj,refl,root,
p3298
I1771
sVadjunct,adjunct_compar,comp,comp_fin,comp_inf,conjunct,obj,root,
p3299
I911
sVadjunct,comp_fin,comp_inf,conjunct,obj,obj_th,root,
p3300
I943
sVadjunct,conjunct,punct,
p3301
I1871
sVadjunct,comp,punct,root,
p3302
I283
sVadjunct_qt,adjunct_rc,punct,root,
p3303
I616
sVadjunct,adjunct_qt,comp,comp_fin,obj,root,subj,
p3304
I976
sVadjunct,conjunct,punct,root,
p3305
I24
sVadjunct,comp_fin,conjunct,neg,obj_th,root,
p3306
I365
sVadjunct,adjunct_qt,comp,mwe,obj_th,root,
p3307
I2215
sVadjunct,comp,obj,refl,root,
p3308
I1154
sVadjunct,adjunct_compar,adjunct_qt,comp,conjunct,ne,root,
p3309
I1827
sVadjunct,comp,comp_ag,obj,root,
p3310
I579
sVabbrev_punct,adjunct,app,comp,pd,root,
p3311
I660
sVadjunct,comp_inf,conjunct,neg,root,
p3312
I2066
sVadjunct,app,conjunct,obj,root,
p3313
I636
sVadjunct,adjunct_rc,comp_inf,obj,obj_th,root,
p3314
I1437
sVadjunct,adjunct_rc,ne,punct,root,subj,
p3315
I2300
sVconjunct,punct,root,subj,
p3316
I582
sVadjunct,adjunct_qt,app,comp,comp_fin,obj,root,subj,
p3317
I977
sVadjunct,comp,comp_inf,ne,obj,obj_th,root,
p3318
I1286
sVadjunct_qt,conjunct,punct,root,subj,
p3319
I2291
sVadjunct,comp,comp_ag,mwe,root,subj,
p3320
I629
sVabbrev_punct,adjunct,adjunct_qt,comp,root,
p3321
I756
sVadjunct,comp,comp_fin,obj,obj_th,punct,root,
p3322
I541
sVadjunct,comp,comp_fin,comp_inf,obj,punct,root,subj,
p3323
I2064
sVadjunct,comp,conjunct,mwe,obj,obj_th,root,
p3324
I2206
sVadjunct,adjunct_qt,adjunct_rc,app,root,
p3325
I1456
sVadjunct,adjunct_compar,mwe,root,
p3326
I969
sVadjunct,adjunct_qt,conjunct,obj_th,root,subj,
p3327
I1790
sVcomp,comp_fin,pd,root,
p3328
I565
sVadjunct,adjunct_rc,comp,comp_fin,conjunct,obj,root,
p3329
I2014
sVadjunct_qt,obj,root,
p3330
I279
sVpunct,root,
p3331
I14
sVadjunct,comp_fin,conjunct,mwe,root,subj,
p3332
I1349
sVabbrev_punct,app,mwe,root,
p3333
I1730
sVadjunct,comp,conjunct,mwe,pd,root,
p3334
I220
sVabbrev_punct,adjunct,conjunct,mwe,root,
p3335
I1594
sVadjunct,aux,comp_fin,comp_inf,conjunct,obj,obj_th,root,
p3336
I942
sVadjunct,comp,comp_ag,obj_th,root,subj,
p3337
I1619
sVadjunct,comp,comp_fin,conjunct,root,subj,
p3338
I169
sVadjunct_compar,punct,root,
p3339
I1290
sVadjunct,adjunct_rc,comp,root,subj,
p3340
I737
sVapp,conjunct,obj,root,
p3341
I543
sVadjunct,cond,conjunct,root,
p3342
I1062
sVadjunct,adjunct_compar,comp,mwe,obj,root,
p3343
I1806
sVadjunct_qt,comp_inf,obj_th,root,
p3344
I1687
sVadjunct_rc,comp,comp_inf,root,subj,
p3345
I957
sVconjunct,item,root,subj,
p3346
I1968
sVadjunct,adjunct_rc,comp,pd,punct,root,
p3347
I2075
sVadjunct_rc,obj,root,subj,
p3348
I765
sVadjunct,adjunct_rc,conjunct,punct,root,subj,
p3349
I2071
sVaglt,aux,root,
p3350
I1950
sVcomp_fin,obj_th,root,subj,
p3351
I748
sVadjunct,adjunct_qt,aux,conjunct,root,
p3352
I1533
sVadjunct,adjunct_compar,app,conjunct,mwe,punct,root,subj,
p3353
I1394
sVadjunct_compar,adjunct_qt,comp,root,
p3354
I1969
sVcomp,conjunct,ne,obj,root,
p3355
I1242
sVadjunct,comp_inf,conjunct,neg,obj,root,
p3356
I401
sVadjunct,comp_fin,comp_inf,obj,punct,root,
p3357
I151
sVadjunct_rc,app,conjunct,obj,punct,root,
p3358
I2312
sVadjunct_qt,adjunct_rc,obj,root,
p3359
I617
sVadjunct,adjunct_compar,adjunct_qt,comp_fin,comp_inf,conjunct,root,
p3360
I1544
sVadjunct,aux,comp,obj,root,
p3361
I1380
sVadjunct,adjunct_compar,comp,comp_inf,conjunct,obj_th,root,
p3362
I902
sVcomp_fin,conjunct,obj,refl,root,
p3363
I842
sVadjunct,adjunct_qt,comp_fin,conjunct,root,subj,
p3364
I225
sVadjunct_qt,adjunct_rc,comp_fin,obj,pd,root,
p3365
I606
sVadjunct,comp,comp_ag,conjunct,ne,root,subj,
p3366
I1241
sVadjunct,adjunct_rc,cond,conjunct,root,
p3367
I1937
sVadjunct,comp,comp_fin,obj_th,pd,root,
p3368
I1780
sVadjunct_rc,conjunct,mwe,
p3369
I1559
sVadjunct_qt,conjunct,pd,root,
p3370
I2113
sVadjunct,comp,comp_ag,conjunct,pd,root,
p3371
I1423
sVadjunct_rc,conjunct,obj,root,
p3372
I1736
sVadjunct,conjunct,mwe,punct,root,
p3373
I2216
sVadjunct,adjunct_qt,comp,comp_ag,root,
p3374
I1682
sVadjunct,comp_ag,comp_fin,pd,root,
p3375
I1110
sVadjunct,adjunct_qt,comp,ne,pd,root,
p3376
I1467
sVcomp,comp_inf,obj,root,
p3377
I328
sVcomp_inf,obj,root,
p3378
I189
sVadjunct,comp,comp_inf,obj_th,punct,root,
p3379
I1855
sVcomp_ag,conjunct,ne,obj,root,
p3380
I1888
sVadjunct,comp,item,punct,root,
p3381
I1592
sVadjunct,ne,obj_th,root,subj,
p3382
I2146
sVadjunct,comp_inf,obj,pd,root,
p3383
I1360
sVadjunct,adjunct_qt,conjunct,obj_th,pd,root,
p3384
I2185
sVadjunct,comp_inf,conjunct,mwe,obj_th,root,
p3385
I1658
sVadjunct_qt,aux,neg,root,
p3386
I789
sVcomp,conjunct,refl,root,
p3387
I1406
sVcomp_fin,punct,root,subj,
p3388
I407
sVadjunct,comp_inf,conjunct,root,
p3389
I60
sVcomp_inf,conjunct,obj,root,subj,
p3390
I1418
sVadjunct,adjunct_qt,conjunct,mwe,obj_th,root,
p3391
I1317
sVadjunct,comp_fin,conjunct,obj,obj_th,root,
p3392
I1123
sVadjunct_qt,mwe,root,
p3393
I112
sVadjunct_rc,mwe,obj,root,subj,
p3394
I766
sVadjunct,adjunct_qt,comp,conjunct,obj,root,subj,
p3395
I306
sVadjunct_qt,aux,root,
p3396
I790
sVadjunct_compar,comp,comp_fin,comp_inf,conjunct,obj_th,root,
p3397
I1604
sVadjunct_rc,conjunct,obj_th,pd,root,
p3398
I793
sVadjunct,comp,comp_fin,comp_inf,obj,refl,root,
p3399
I2277
sVadjunct,adjunct_rc,comp,pd,root,
p3400
I776
sVadjunct,comp,comp_inf,conjunct,obj,pd,punct,root,
p3401
I1495
sVadjunct,adjunct_qt,comp,comp_fin,punct,root,
p3402
I199
sVadjunct,adjunct_qt,app,comp,comp_fin,mwe,root,subj,
p3403
I109
sVadjunct,adjunct_qt,comp_fin,root,subj,
p3404
I219
sVadjunct,comp,comp_fin,comp_inf,conjunct,obj_th,root,subj,
p3405
I1112
sVadjunct,app,comp,comp_fin,comp_inf,obj,obj_th,punct,root,subj,
p3406
I1571
sVadjunct,comp,obj_th,punct,root,
p3407
I247
sVadjunct,comp_inf,mwe,root,
p3408
I343
sVcomp,conjunct,mwe,root,subj,
p3409
I663
sVabbrev_punct,adjunct,adjunct_rc,comp,comp_fin,ne,obj,root,
p3410
I1847
sVadjunct_rc,conjunct,obj,obj_th,root,
p3411
I2237
sVadjunct,comp_fin,comp_inf,conjunct,mwe,obj,root,
p3412
I149
sVadjunct_compar,comp,obj_th,root,
p3413
I780
sVadjunct,conjunct,neg,
p3414
I1866
sVcomp_fin,comp_inf,conjunct,root,subj,
p3415
I2069
sVadjunct,adjunct_compar,comp,punct,root,
p3416
I1476
sVadjunct_rc,comp_fin,conjunct,obj,punct,root,subj,
p3417
I846
sVadjunct,app,comp,comp_fin,conjunct,punct,root,subj,
p3418
I1759
sVabbrev_punct,adjunct,adjunct_qt,conjunct,root,
p3419
I1502
sVabbrev_punct,adjunct,comp,conjunct,ne,root,subj,
p3420
I523
sVpd,punct,root,subj,
p3421
I1531
sVadjunct,app,comp,comp_fin,comp_inf,ne,root,subj,
p3422
I1715
sVadjunct,comp,comp_inf,conjunct,obj_th,punct,root,
p3423
I1357
sVadjunct,app,comp,conjunct,obj,punct,root,
p3424
I1072
sVadjunct,adjunct_compar,comp,comp_inf,conjunct,root,
p3425
I904
sVadjunct,conjunct,obj,pre_coord,punct,root,subj,
p3426
I345
sVadjunct,app,comp,ne,root,
p3427
I410
sVadjunct,adjunct_qt,comp,refl,root,
p3428
I2161
sVadjunct_qt,comp,comp_fin,comp_inf,pd,root,subj,
p3429
I1474
sVabbrev_punct,adjunct,adjunct_compar,comp,comp_ag,conjunct,root,
p3430
I514
sVadjunct,conjunct,obj,obj_th,root,
p3431
I794
sVadjunct_qt,app,ne,root,
p3432
I1610
sVadjunct,app,comp,ne,pd,root,
p3433
I33
sVabbrev_punct,adjunct,comp,conjunct,mwe,root,
p3434
I1265
sVadjunct,obj_th,root,subj,
p3435
I881
sVapp,conjunct,ne,root,subj,
p3436
I469
sVadjunct,adjunct_rc,comp,comp_inf,conjunct,obj,root,subj,
p3437
I959
sVadjunct,comp_ag,pd,root,subj,
p3438
I962
sVaux,comp_fin,conjunct,obj,root,
p3439
I1142
sVadjunct,app,comp,comp_fin,conjunct,mwe,ne,root,subj,
p3440
I2178
sVadjunct,aux,comp,comp_fin,root,
p3441
I679
sVadjunct,comp,comp_fin,pd,root,
p3442
I979
sVapp,conjunct,ne,root,
p3443
I689
sVadjunct,app,comp,comp_ag,ne,root,
p3444
I1831
sVadjunct,adjunct_compar,comp,conjunct,punct,root,
p3445
I511
sVadjunct,comp,comp_fin,neg,root,
p3446
I52
sVadjunct,adjunct_qt,comp,comp_fin,comp_inf,obj,root,
p3447
I717
sVadjunct,comp,
p3448
I1046
sVadjunct,comp,comp_inf,mwe,obj,refl,root,
p3449
I1703
sVadjunct_qt,app,conjunct,punct,root,
p3450
I1247
sVadjunct,aux,comp,comp_inf,conjunct,obj,pd,root,
p3451
I1496
sVadjunct,adjunct_rc,comp,ne,root,subj,
p3452
I1267
sVcomp_fin,obj_th,root,
p3453
I1126
sVadjunct,comp,mwe,root,
p3454
I265
sVadjunct,adjunct_qt,app,conjunct,root,
p3455
I1579
sVadjunct,comp,ne,refl,root,
p3456
I1919
sVadjunct,adjunct_compar,root,
p3457
I848
sVabbrev_punct,adjunct,app,comp,obj,root,
p3458
I2048
sVadjunct,adjunct_compar,comp,conjunct,mwe,root,
p3459
I512
sVcomp,comp_inf,obj,punct,root,
p3460
I856
sVadjunct,app,conjunct,mwe,punct,root,subj,
p3461
I1396
sVadjunct,adjunct_rc,conjunct,obj,root,subj,
p3462
I373
sVadjunct_qt,comp,comp_fin,conjunct,root,
p3463
I1635
sVadjunct,comp_fin,comp_inf,refl,root,
p3464
I695
sVadjunct,comp,comp_ag,comp_fin,conjunct,ne,root,
p3465
I2304
sVapp,comp,conjunct,obj_th,punct,root,
p3466
I213
sVadjunct,comp_inf,conjunct,obj,root,
p3467
I59
sVadjunct,comp,conjunct,mwe,obj,root,subj,
p3468
I1902
sVabbrev_punct,adjunct,conjunct,obj_th,root,
p3469
I916
sVcomp,comp_fin,conjunct,obj,refl,root,subj,
p3470
I2287
sVadjunct,adjunct_rc,comp_inf,obj,punct,root,
p3471
I1498
sVadjunct,comp,comp_inf,conjunct,obj,obj_th,pd,root,
p3472
I1494
sVadjunct_qt,comp,punct,
p3473
I1662
sVadjunct,adjunct_rc,aux,obj,root,
p3474
I1040
sVadjunct,adjunct_rc,comp_inf,obj,root,
p3475
I1497
sVadjunct,comp_fin,ne,root,
p3476
I692
sVadjunct,adjunct_qt,app,comp,ne,root,
p3477
I1204
sVadjunct_qt,adjunct_rc,comp_fin,conjunct,obj,pd,root,
p3478
I603
sVadjunct,app,conjunct,ne,obj,pd,root,
p3479
I1453
sVcomp_inf,obj,punct,root,
p3480
I326
sVadjunct_rc,app,comp_inf,conjunct,obj,root,
p3481
I739
sVadjunct,adjunct_rc,comp,conjunct,mwe,obj_th,root,
p3482
I1291
sVadjunct,comp,comp_ag,conjunct,obj,obj_th,root,
p3483
I1895
sVcomp,comp_fin,comp_inf,conjunct,pd,root,subj,
p3484
I2320
sVadjunct,obj,obj_th,root,subj,
p3485
I1014
sVadjunct,comp_inf,conjunct,pd,root,
p3486
I1092
sVcomp,comp_fin,punct,root,
p3487
I177
sVcomp_fin,obj,pd,root,
p3488
I538
sVconjunct,ne,root,
p3489
I20
sVadjunct,comp,obj,pd,root,
p3490
I484
sVadjunct,pre_coord,root,
p3491
I2210
sVadjunct_compar,comp_inf,punct,root,
p3492
I910
sVadjunct,comp_inf,cond,conjunct,root,
p3493
I1876
sVmwe,obj,root,
p3494
I593
sVadjunct_qt,comp_inf,conjunct,refl,root,
p3495
I1844
sVadjunct,comp,comp_fin,conjunct,obj_th,pd,root,
p3496
I1623
sVcomp,conjunct,refl,root,subj,
p3497
I2127
sVadjunct,comp,comp_inf,mwe,root,subj,
p3498
I460
sVapp,comp,conjunct,root,
p3499
I1251
sVapp,comp,ne,root,
p3500
I409
sVadjunct,comp_fin,comp_inf,conjunct,obj,punct,root,
p3501
I143
sVadjunct,conjunct,obj_th,root,subj,
p3502
I620
sVadjunct_compar,app,comp,conjunct,punct,root,
p3503
I2239
sVcomp,comp_ag,root,
p3504
I282
sVadjunct,comp,comp_ag,ne,obj,root,
p3505
I2005
sVadjunct,app,comp,conjunct,obj,pd,root,
p3506
I652
sVadjunct_qt,adjunct_rc,comp,root,subj,
p3507
I2099
sVadjunct_rc,comp,conjunct,mwe,root,subj,
p3508
I1294
sVconjunct,pd,root,subj,
p3509
I1777
sVadjunct_qt,adjunct_rc,pd,root,
p3510
I1506
sVadjunct,aglt,comp,root,
p3511
I840
sVadjunct_qt,comp,comp_fin,conjunct,obj,root,subj,
p3512
I2044
sVadjunct_rc,app,conjunct,punct,root,subj,
p3513
I800
sVadjunct,comp_fin,neg,root,subj,
p3514
I1814
sVaglt,cond,conjunct,root,
p3515
I1344
sVcomp_fin,punct,root,
p3516
I276
sVadjunct,adjunct_rc,comp,conjunct,pd,root,
p3517
I839
sVadjunct_qt,adjunct_rc,comp,obj,root,
p3518
I1995
sVadjunct,comp,conjunct,punct,root,
p3519
I202
sVadjunct,aglt,comp,comp_fin,comp_inf,obj_th,root,
p3520
I1853
sVpre_coord,root,subj,
p3521
I1258
sVadjunct,adjunct_qt,conjunct,ne,root,
p3522
I612
sVadjunct,adjunct_rc,app,comp,comp_fin,conjunct,neg,obj,root,subj,
p3523
I65
sVadjunct,comp,mwe,obj,pd,root,
p3524
I1536
sVadjunct_qt,comp,conjunct,obj,root,
p3525
I304
sVadjunct,app,mwe,punct,root,subj,
p3526
I1573
sVadjunct,app,comp,conjunct,root,subj,
p3527
I773
sVcomp_fin,conjunct,neg,root,subj,
p3528
I1105
sVadjunct,app,comp_fin,obj,root,
p3529
I2196
sVitem,punct,root,
p3530
I1973
sVadjunct,adjunct_rc,comp,comp_fin,conjunct,punct,root,subj,
p3531
I1717
sVapp,comp,comp_fin,punct,root,subj,
p3532
I2102
sVadjunct_rc,pd,punct,root,
p3533
I1763
sVadjunct,adjunct_rc,root,subj,
p3534
I425
sVadjunct,adjunct_compar,comp,comp_inf,conjunct,obj,root,
p3535
I900
sVaglt,cond,root,
p3536
I148
sVadjunct,app,ne,refl,root,
p3537
I868
sVabbrev_punct,ne,root,subj,
p3538
I671
sVcomp,mwe,root,subj,
p3539
I1109
sVabbrev_punct,adjunct,comp,
p3540
I1047
sVadjunct_qt,comp_fin,conjunct,root,
p3541
I1773
sVadjunct,adjunct_rc,app,comp,comp_fin,conjunct,obj,refl,root,subj,
p3542
I69
sVadjunct,app,comp,conjunct,obj,root,
p3543
I435
sVcomp,comp_fin,conjunct,root,subj,
p3544
I166
sVadjunct,app,conjunct,ne,obj_th,root,
p3545
I1918
sVadjunct,app,comp_inf,obj,root,
p3546
I1169
sVadjunct,adjunct_qt,comp,comp_fin,conjunct,refl,root,
p3547
I1637
sVapp,comp,comp_fin,root,subj,
p3548
I2040
sVadjunct,comp,comp_fin,comp_inf,conjunct,root,subj,
p3549
I184
sVabbrev_punct,adjunct,comp,conjunct,obj,pre_coord,root,subj,
p3550
I95
sVadjunct,adjunct_qt,comp,comp_fin,comp_inf,obj,obj_th,root,
p3551
I2191
sVadjunct_compar,comp,comp_fin,comp_inf,conjunct,root,
p3552
I894
sVadjunct_rc,comp,obj,punct,root,
p3553
I2023
sVcomp_fin,conjunct,pd,punct,root,
p3554
I2266
sVadjunct,comp,comp_fin,comp_inf,obj_th,
p3555
I1680
sVadjunct,adjunct_rc,comp_inf,conjunct,root,
p3556
I1936
sVadjunct,comp_fin,conjunct,obj,root,
p3557
I361
sVadjunct_compar,conjunct,root,
p3558
I892
sVadjunct,comp,mwe,obj,root,
p3559
I886
sVmwe,ne,root,
p3560
I1518
sVadjunct,comp_ag,pd,root,
p3561
I1421
sVabbrev_punct,adjunct,comp,root,subj,
p3562
I1482
sVadjunct,adjunct_rc,app,comp,conjunct,pd,root,
p3563
I650
sVcomp,conjunct,obj_th,punct,root,
p3564
I1156
sVcomp_fin,obj,root,
p3565
I533
sVadjunct_rc,comp,comp_inf,conjunct,obj,root,
p3566
I2025
sVabbrev_punct,adjunct,adjunct_compar,comp,conjunct,obj,root,subj,
p3567
I1367
sVadjunct,adjunct_compar,comp,comp_fin,conjunct,mwe,obj,refl,root,subj,
p3568
I2083
sVadjunct,adjunct_qt,comp,conjunct,mwe,root,
p3569
I826
sVadjunct,adjunct_rc,comp,comp_inf,conjunct,obj,root,
p3570
I2026
sVadjunct,app,comp,comp_fin,comp_inf,conjunct,root,subj,
p3571
I983
sVadjunct,adjunct_rc,aux,comp,conjunct,neg,root,subj,
p3572
I2247
sVadjunct,adjunct_qt,app,ne,root,
p3573
I473
sVadjunct,comp,comp_fin,conjunct,mwe,ne,root,
p3574
I536
sVadjunct,comp,comp_fin,conjunct,root,
p3575
I233
sVadjunct,comp,conjunct,obj,pd,root,
p3576
I483
sVadjunct,app,obj,obj_th,root,
p3577
I243
sVadjunct_qt,app,punct,root,
p3578
I1447
sVadjunct,adjunct_qt,comp,conjunct,root,subj,
p3579
I485
sVadjunct,adjunct_qt,app,conjunct,ne,root,
p3580
I1609
sVadjunct,app,conjunct,obj_th,root,
p3581
I1580
sVmwe,root,
p3582
I286
sVadjunct,adjunct_qt,obj,refl,root,subj,
p3583
I1719
sVadjunct,comp,obj,
p3584
I1660
sVcomp,pd,punct,root,
p3585
I1119
sVadjunct,adjunct_rc,app,ne,obj_th,root,subj,
p3586
I2298
sVcomp,comp_inf,obj_th,root,
p3587
I1574
sVadjunct,comp_ag,comp_inf,obj,root,
p3588
I1581
sVadjunct,conjunct,neg,obj,root,
p3589
I463
sVadjunct_compar,app,comp,root,
p3590
I974
sVcomp_fin,comp_inf,conjunct,punct,root,
p3591
I735
sVaux,comp,conjunct,root,
p3592
I1446
sVadjunct,adjunct_rc,ne,obj,root,subj,
p3593
I2251
sVadjunct,comp,comp_ag,conjunct,mwe,root,
p3594
I480
sVadjunct,adjunct_qt,app,root,subj,
p3595
I1966
sVadjunct_compar,conjunct,root,subj,
p3596
I2118
sVadjunct,app,comp,conjunct,obj,pd,punct,root,
p3597
I656
sVadjunct,adjunct_compar,app,comp,conjunct,root,
p3598
I2240
sVadjunct,adjunct_qt,comp,comp_fin,obj,punct,root,subj,
p3599
I1326
sVadjunct,comp_inf,pd,root,subj,
p3600
I1359
sVcomp_inf,conjunct,obj,punct,root,
p3601
I135
sVadjunct,app,ne,obj_th,root,
p3602
I921
sVadjunct_qt,ne,obj_th,root,
p3603
I1834
sVadjunct,comp,comp_fin,comp_inf,conjunct,obj,obj_th,refl,
p3604
I1674
sVadjunct,comp,comp_fin,conjunct,mwe,root,subj,
p3605
I167
sVadjunct,adjunct_compar,adjunct_qt,comp,conjunct,ne,punct,root,
p3606
I1826
sVadjunct,obj_th,punct,root,
p3607
I238
sVadjunct,adjunct_compar,comp,obj_th,root,
p3608
I781
sVcomp,comp_fin,ne,root,subj,
p3609
I1176
sVadjunct,app,comp_ag,conjunct,obj,root,subj,
p3610
I388
sVadjunct,comp,comp_fin,comp_inf,conjunct,pd,root,subj,
p3611
I2321
sVadjunct,comp,conjunct,mwe,pd,root,subj,
p3612
I667
sVadjunct_compar,adjunct_qt,comp,root,subj,
p3613
I1787
sVcomp,comp_fin,root,
p3614
I58
sVcomp,comp_inf,conjunct,ne,root,
p3615
I1588
sVabbrev_punct,adjunct,app,comp,conjunct,obj,pd,root,
p3616
I655
sVadjunct,app,conjunct,refl,root,
p3617
I980
sVadjunct,adjunct_qt,comp,comp_inf,conjunct,obj,root,
p3618
I1911
sVadjunct,obj,obj_th,punct,root,subj,
p3619
I1013
sVadjunct,comp,comp_inf,mwe,pd,root,
p3620
I1077
sVadjunct,adjunct_rc,obj_th,punct,root,
p3621
I2009
sVadjunct,adjunct_rc,pd,root,subj,
p3622
I426
sVadjunct,adjunct_rc,comp,conjunct,mwe,obj,obj_th,root,
p3623
I1297
sVadjunct,comp,conjunct,pd,root,subj,
p3624
I708
sVadjunct,aux,obj_th,root,
p3625
I1920
sVadjunct,app,comp,conjunct,ne,root,
p3626
I442
sVadjunct,adjunct_qt,comp,comp_fin,conjunct,root,
p3627
I200
sVadjunct,adjunct_rc,comp,comp_fin,conjunct,ne,obj,root,subj,
p3628
I1147
sVcomp_fin,conjunct,refl,root,subj,
p3629
I1103
sVadjunct,aglt,comp,comp_inf,conjunct,root,
p3630
I2147
sVadjunct_qt,comp,comp_fin,comp_inf,pd,punct,root,subj,
p3631
I1473
sVadjunct,app,comp,comp_ag,conjunct,ne,root,
p3632
I683
sVadjunct_compar,comp,comp_inf,conjunct,obj,root,
p3633
I899
sVadjunct_qt,root,
p3634
I111
sVadjunct,comp_ag,obj,root,
p3635
I933
sVadjunct,app,comp_fin,comp_inf,ne,obj,obj_th,root,subj,
p3636
I1567
sVcomp,comp_fin,comp_inf,punct,root,
p3637
I2092
sVadjunct,comp,mwe,refl,root,
p3638
I1334
sVadjunct,aglt,conjunct,root,
p3639
I1091
sVcomp,comp_fin,comp_inf,conjunct,obj,root,
p3640
I402
sVadjunct,app,comp,comp_fin,comp_inf,obj,obj_th,root,subj,
p3641
I1572
sVadjunct,adjunct_rc,conjunct,obj_th,root,
p3642
I2267
sVadjunct,adjunct_rc,app,ne,root,subj,
p3643
I1019
sVadjunct,comp,comp_inf,conjunct,obj,root,subj,
p3644
I85
sVcomp,comp_fin,conjunct,obj_th,punct,root,
p3645
I2062
sVadjunct,adjunct_rc,comp,comp_fin,conjunct,obj,pd,root,
p3646
I364
sVadjunct,conjunct,obj_th,punct,root,
p3647
I678
sVadjunct,adjunct_qt,adjunct_rc,app,root,subj,
p3648
I1460
sVcomp_ag,conjunct,obj_th,root,
p3649
I1897
sVadjunct_rc,comp,comp_fin,comp_inf,conjunct,obj_th,root,subj,
p3650
I1740
sVadjunct,comp_fin,conjunct,obj_th,refl,root,subj,
p3651
I1428
sVne,obj,root,
p3652
I502
sVadjunct,conjunct,obj_th,root,
p3653
I327
sVadjunct_rc,comp_fin,obj,pd,root,
p3654
I1211
sVadjunct,comp,comp_fin,conjunct,mwe,obj,root,
p3655
I535
sVadjunct,obj,root,subj,
p3656
I377
sVadjunct,comp,ne,obj_th,root,subj,
p3657
I1839
sVapp,comp,comp_fin,obj,root,subj,
p3658
I2103
sVcomp,comp_fin,conjunct,punct,root,
p3659
I877
sVadjunct,app,comp,conjunct,obj,root,subj,
p3660
I389
sVadjunct,comp,conjunct,ne,obj_th,root,
p3661
I1989
sVadjunct,adjunct_qt,comp,obj_th,root,
p3662
I210
sVadjunct,comp_fin,obj,pd,root,
p3663
I537
sVcomp,comp_fin,conjunct,obj_th,root,
p3664
I395
sVaux,neg,root,
p3665
I493
sVadjunct,adjunct_compar,comp,conjunct,pd,root,
p3666
I2241
sVadjunct,obj,obj_th,punct,root,
p3667
I1012
sVadjunct,obj_th,root,
p3668
I244
sVcomp,comp_fin,punct,root,subj,
p3669
I1059
sVadjunct,adjunct_rc,conjunct,obj,punct,
p3670
I1863
sVadjunct,adjunct_rc,mwe,punct,root,
p3671
I859
sVadjunct,adjunct_rc,comp,conjunct,punct,root,subj,
p3672
I2072
sVcomp_inf,conjunct,refl,root,
p3673
I129
sVadjunct,app,comp,comp_fin,obj_th,root,
p3674
I2311
sVadjunct,app,comp,obj_th,root,subj,
p3675
I1837
sVadjunct,adjunct_rc,comp,comp_inf,conjunct,pd,punct,root,
p3676
I2219
sVcomp,conjunct,obj_th,pd,root,
p3677
I2220
sVadjunct,adjunct_rc,app,comp,comp_fin,conjunct,obj,punct,root,subj,
p3678
I64
sVadjunct,comp_fin,comp_inf,conjunct,obj,root,
p3679
I146
sVadjunct,conjunct,ne,root,
p3680
I27
sVadjunct_compar,comp_fin,obj,obj_th,root,
p3681
I1812
sVadjunct,app,comp_fin,conjunct,obj,root,
p3682
I2109
sVconjunct,mwe,ne,obj,root,
p3683
I1891
sVadjunct_rc,comp,conjunct,obj,punct,root,
p3684
I1445
sVadjunct,app,mwe,punct,root,
p3685
I930
sVadjunct,comp_ag,conjunct,root,subj,
p3686
I1232
sVadjunct,adjunct_qt,comp,conjunct,ne,root,subj,
p3687
I489
sVadjunct_qt,aglt,comp,comp_fin,root,
p3688
I985
sVadjunct_rc,comp,comp_fin,conjunct,root,
p3689
I1054
sVadjunct,adjunct_rc,comp,comp_inf,refl,root,
p3690
I1222
sVadjunct_rc,conjunct,ne,root,subj,
p3691
I1336
sVadjunct,comp_inf,conjunct,obj,refl,root,
p3692
I872
sVadjunct_compar,app,comp,conjunct,ne,root,
p3693
I2128
sVadjunct,adjunct_rc,comp,conjunct,obj_th,root,
p3694
I1699
sVadjunct,comp,comp_fin,root,
p3695
I54
sVadjunct,adjunct_compar,comp_fin,comp_inf,conjunct,punct,root,subj,
p3696
I2170
sVadjunct,adjunct_rc,comp,mwe,root,
p3697
I1310
sVabbrev_punct,comp,root,
p3698
I806
sVadjunct_qt,comp_fin,mwe,root,subj,
p3699
I114
sVadjunct,adjunct_rc,comp,comp_inf,conjunct,neg,pd,root,
p3700
I2218
sVadjunct,app,comp,mwe,ne,root,
p3701
I788
sVadjunct,conjunct,obj,pd,punct,root,
p3702
I2280
sVadjunct,adjunct_compar,comp,comp_fin,conjunct,punct,root,
p3703
I2151
sVadjunct_rc,conjunct,mwe,obj_th,root,
p3704
I1296
sVadjunct,adjunct_compar,comp_fin,obj,obj_th,root,
p3705
I1811
sVabbrev_punct,obj,root,
p3706
I418
sVcomp,punct,root,subj,
p3707
I524
sVadjunct,conjunct,obj,punct,root,
p3708
I261
sVpd,root,
p3709
I197
sVadjunct,app,comp,conjunct,mwe,ne,root,subj,
p3710
I467
sVcomp,comp_fin,comp_inf,obj,root,subj,
p3711
I857
sVadjunct,app,comp,comp_fin,ne,obj,root,
p3712
I1872
sVadjunct,adjunct_rc,comp,obj,root,subj,
p3713
I1032
sVadjunct,comp,comp_fin,conjunct,obj,obj_th,root,
p3714
I713
sVadjunct,app,ne,punct,root,
p3715
I681
sVconjunct,obj,root,subj,
p3716
I141
sVcomp,comp_fin,comp_inf,root,
p3717
I567
sVadjunct,app,mwe,root,
p3718
I763
sVadjunct,adjunct_qt,comp_fin,obj,root,
p3719
I1255
sVadjunct,comp_fin,conjunct,mwe,root,
p3720
I399
sVabbrev_punct,adjunct,obj,obj_th,root,subj,
p3721
I1015
sVapp,ne,obj,root,subj,
p3722
I423
sVabbrev_punct,adjunct,conjunct,ne,root,
p3723
I1240
sVadjunct,comp_fin,comp_inf,root,
p3724
I158
sVadjunct,adjunct_rc,comp,obj_th,root,
p3725
I1120
sVadjunct,cond,root,
p3726
I1993
sVcomp,conjunct,obj,root,
p3727
I309
sVcomp,conjunct,mwe,pd,root,
p3728
I866
sVcomp,comp_fin,comp_inf,conjunct,mwe,root,
p3729
I729
sVadjunct,adjunct_qt,comp,comp_fin,cond,mwe,root,
p3730
I110
sVadjunct,adjunct_qt,comp,comp_fin,root,subj,
p3731
I2041
sVcomp,comp_ag,obj,root,
p3732
I1750
sVadjunct,aux,root,subj,
p3733
I1887
sVadjunct,comp,conjunct,obj,pre_coord,punct,root,subj,
p3734
I86
sVadjunct,adjunct_qt,adjunct_rc,comp,comp_fin,pd,root,
p3735
I607
sVapp,comp,comp_inf,conjunct,obj,punct,root,
p3736
I1413
sVadjunct,adjunct_rc,obj,punct,root,
p3737
I385
sVcomp,comp_inf,conjunct,refl,root,
p3738
I1997
sVadjunct,comp,comp_fin,conjunct,mwe,obj,punct,root,subj,
p3739
I1351
sVadjunct,adjunct_rc,conjunct,obj,
p3740
I1865
sVadjunct,adjunct_rc,comp,conjunct,root,subj,
p3741
I299
sVadjunct,adjunct_qt,comp,comp_fin,comp_inf,conjunct,obj,obj_th,root,
p3742
I1850
sVabbrev_punct,adjunct,adjunct_qt,comp,root,subj,
p3743
I757
sVadjunct,comp_fin,obj,punct,root,
p3744
I1939
sVabbrev_punct,adjunct,ne,obj_th,root,
p3745
I1337
sVabbrev_punct,adjunct,comp,obj,root,subj,
p3746
I966
sVadjunct,comp,comp_fin,conjunct,ne,obj,root,subj,
p3747
I2252
sVadjunct,adjunct_qt,conjunct,obj,root,subj,
p3748
I2318
sVadjunct,app,comp,pd,punct,root,
p3749
I37
sVapp,comp,punct,root,
p3750
I1338
sVadjunct,adjunct_qt,comp,conjunct,punct,root,subj,
p3751
I758
sVadjunct,conjunct,ne,obj,root,
p3752
I525
sVadjunct,conjunct,pd,punct,root,
p3753
I335
sVadjunct,app,comp,mwe,root,subj,
p3754
I258
sVconjunct,ne,obj_th,root,
p3755
I1431
sVadjunct,adjunct_qt,comp_fin,obj_th,root,
p3756
I2193
sVadjunct,comp_inf,ne,obj,root,
p3757
I668
sVapp,punct,root,subj,
p3758
I8
sVadjunct,adjunct_qt,app,comp,conjunct,ne,root,
p3759
I1175
sVadjunct_qt,comp_fin,mwe,pd,root,
p3760
I106
sVadjunct,adjunct_rc,conjunct,obj,refl,subj,
p3761
I1862
sVadjunct,aux,comp,comp_fin,neg,root,
p3762
I1614
sVcomp,conjunct,mwe,obj,obj_th,root,
p3763
I2207
sVadjunct,comp,comp_ag,comp_inf,obj,root,
p3764
I1582
sVadjunct,adjunct_qt,comp,conjunct,mwe,ne,root,
p3765
I1006
sVadjunct_rc,comp,obj,root,subj,
p3766
I767
sVadjunct,comp_fin,ne,root,subj,
p3767
I1185
sVadjunct,comp_fin,comp_inf,obj,obj_th,root,subj,
p3768
I1566
sVadjunct,adjunct_rc,comp,conjunct,obj,punct,root,
p3769
I390
sVcomp,comp_fin,obj,root,
p3770
I57
sVadjunct,adjunct_rc,comp,comp_fin,mwe,root,
p3771
I449
sVcomp,comp_inf,conjunct,root,
p3772
I170
sVadjunct,comp,comp_fin,conjunct,obj,refl,root,subj,
p3773
I1133
sVadjunct,comp,conjunct,ne,pd,root,
p3774
I819
sVadjunct,adjunct_qt,comp,pd,root,
p3775
I257
sVadjunct,app,comp,conjunct,root,
p3776
I23
sVadjunct_qt,comp_inf,conjunct,pd,root,
p3777
I1451
sVadjunct,comp,comp_fin,punct,root,
p3778
I55
sVadjunct,comp,comp_fin,comp_inf,conjunct,refl,root,
p3779
I2089
sVcomp_fin,comp_inf,pd,root,
p3780
I1452
sVadjunct,comp,comp_ag,comp_fin,comp_inf,obj,root,
p3781
I632
sVadjunct,adjunct_rc,conjunct,obj,punct,subj,
p3782
I1861
sVadjunct,comp,ne,root,
p3783
I267
sVcomp,comp_fin,obj,pd,root,
p3784
I1116
sVadjunct,comp,comp_inf,refl,root,
p3785
I176
sVcomp,root,
p3786
I30
ssVannotation
p3787
(dp3788
Vnam_liv_person#head%nam_pro#head%
p3789
I97
sVnam_pro#head%nam_loc#head%
p3790
I199
sVnam_fac%nam_liv_person#head%
p3791
I123
sVnam_liv_plant#head%
p3792
I154
sVnam_liv_person%action%
p3793
I174
sVnam_fac%nam_liv_god%
p3794
I145
sVt3_duration%nam_eve%
p3795
I165
sVnam_pro%nam_org#head%
p3796
I105
sVnam_pro#head%action#head%
p3797
I192
sVnam_liv_person%nam_oth%
p3798
I113
sVt3_range#head%t3_date#head%
p3799
I65
sVnam_liv_god%
p3800
I96
sVnam_liv_animal#head%
p3801
I34
sVnam_liv_person#head%nam_pro%
p3802
I161
sVnam_liv_person%nam_org%
p3803
I16
sVnam_loc#head%nam_org#head%
p3804
I54
sVnam_eve%nam_org%
p3805
I171
sVnam_liv_person#head%
p3806
I7
sVnam_fac%nam_liv_person%
p3807
I124
sVnam_org%nam_adj%
p3808
I135
sVnam_adj#head%nam_pro%
p3809
I91
sVnam_eve%nam_org#head%
p3810
I36
sVnam_eve%nam_adj%
p3811
I136
sVi_action#head%
p3812
I23
sVaction#head%nam_org%
p3813
I159
sVnam_pro%
p3814
I21
sVnam_liv_person#head%nam_eve%
p3815
I129
sVnam_org%nam_pro#head%
p3816
I87
sVnam_liv_person#head%nam_org%
p3817
I15
sVnam_adj#head%nam_org%
p3818
I13
sVnam_pro%t3_date#head%
p3819
I69
sVnam_loc%nam_fac%
p3820
I189
sVt3_duration#head%
p3821
I26
sVnam_loc%nam_liv_person%
p3822
I170
sVnam_eve%t3_date%
p3823
I140
sVnam_oth_currency%
p3824
I160
sVt3_time#head%
p3825
I31
sVnam_org%
p3826
I12
sVnam_org%nam_adj#head%
p3827
I51
sVnam_eve#head%nam_loc#head%nam_org#head%
p3828
I172
sVnam_num_house#head%
p3829
I99
sVaction%
p3830
I101
sVnam_liv_habitant#head%
p3831
I156
sVreporting#head%
p3832
I24
sVnam_loc#head%nam_eve%
p3833
I40
sVnam_loc%action#head%
p3834
I182
sVt3_date#head%
p3835
I11
sVnam_adj%nam_pro%
p3836
I132
sVnam_eve%action#head%
p3837
I186
sVnam_fac%nam_pro%nam_adj#head%
p3838
I125
sVnam_eve%t3_date#head%
p3839
I71
sVnam_loc#head%nam_org%
p3840
I45
sVnam_adj#head%nam_pro#head%
p3841
I133
sVnam_loc%nam_org#head%
p3842
I176
sVnam_fac#head%nam_org%
p3843
I141
sVnam_eve%
p3844
I18
sVnam_oth_tech#head%
p3845
I86
sVnam_org%t3_date#head%
p3846
I206
sVnam_pro#head%nam_fac%
p3847
I122
sVi_action#head%nam_org%
p3848
I190
sVi_state%
p3849
I162
sS'n/a'
p3850
I1
sVnam_liv_person%nam_pro%
p3851
I203
sVnam_eve#head%action#head%
p3852
I72
sVnam_pro%nam_org%
p3853
I104
sVstate#head%nam_pro%
p3854
I184
sVnam_fac#head%nam_adj#head%
p3855
I168
sVnam_liv_person#head%nam_fac#head%
p3856
I79
sVt3_duration#head%nam_eve%
p3857
I166
sVnam_fac%nam_org#head%
p3858
I188
sVperception#head%
p3859
I29
sVnam_fac%
p3860
I32
sVnam_fac%nam_liv_person#head%nam_pro%
p3861
I196
sVnam_pro%action#head%
p3862
I147
sVnam_eve%nam_liv_person%nam_oth%
p3863
I111
sVnam_pro#head%nam_org#head%
p3864
I67
sVnam_liv_person#head%nam_eve#head%
p3865
I130
sVnam_fac%nam_eve#head%
p3866
I106
sVnam_eve#head%nam_adj#head%
p3867
I137
sVnam_eve#head%nam_oth%
p3868
I110
sVnam_fac#head%
p3869
I33
sVnam_fac#head%nam_pro%
p3870
I202
sVnam_eve%nam_liv_person#head%nam_oth%
p3871
I112
sVnam_pro#head%nam_liv_person#head%
p3872
I102
sVt3_range%t3_date#head%
p3873
I143
sVnam_oth_license#head%
p3874
I42
sVnam_liv_person#head%nam_loc#head%
p3875
I64
sVnam_oth#head%
p3876
I44
sVnam_loc%nam_pro%
p3877
I148
sVnam_oth_www%
p3878
I151
sVnam_org#head%nam_eve%
p3879
I57
sVnam_oth_address_street#head%
p3880
I95
sVnam_liv_person#head%nam_fac%
p3881
I61
sVnam_adj#head%
p3882
I2
sVnam_eve%t3_duration%
p3883
I164
sVnam_pro#head%nam_oth_license#head%
p3884
I158
sVnam_pro%nam_liv_person%
p3885
I103
sVnam_oth_address_street%nam_fac#head%
p3886
I94
sVnam_org%nam_loc#head%
p3887
I47
sVnam_loc%nam_eve%
p3888
I178
sVi_state#head%
p3889
I25
sVt3_date%t3_range%
p3890
I62
sVnam_adj%
p3891
I83
sVnam_org#head%nam_fac%
p3892
I131
sVnam_org%nam_liv_person#head%
p3893
I187
sVaspectual#head%
p3894
I22
sVnam_eve%nam_fac%
p3895
I115
sVnam_pro%nam_adj%
p3896
I138
sVnam_adj#head%nam_fac%
p3897
I149
sVnam_pro%nam_adj#head%
p3898
I127
sVaction#head%nam_eve#head%
p3899
I41
sVnam_oth%nam_adj#head%
p3900
I109
sVnam_fac#head%nam_liv_person#head%
p3901
I100
sVnam_loc%nam_adj#head%
p3902
I77
sVnam_oth%
p3903
I43
sVt3_date#head%t3_range%
p3904
I5
sVnam_loc#head%nam_pro%
p3905
I92
sVaction#head%nam_pro#head%
p3906
I155
sVt3_duration#head%t3_range#head%
p3907
I82
sVnam_loc%nam_liv_person#head%
p3908
I169
sVnam_liv_person#head%nam_oth%
p3909
I114
sVt3_time#head%t3_range#head%
p3910
I183
sVnam_oth_currency#head%
p3911
I56
sVnam_loc#head%nam_pro#head%
p3912
I68
sVnam_loc#head%nam_fac%
p3913
I78
sVt3_date#head%nam_loc%
p3914
I119
sVnam_fac%nam_eve%nam_liv_person#head%
p3915
I108
sVaction#head%nam_pro%
p3916
I27
sVnam_org#head%
p3917
I8
sVnam_liv_person#head%nam_loc%
p3918
I63
sVnam_pro%nam_liv_habitant%
p3919
I89
sVnam_liv_person#head%action#head%
p3920
I175
sVnam_liv_god#head%nam_pro#head%
p3921
I117
sVnam_org#head%nam_adj#head%
p3922
I201
sVnam_org%nam_pro%
p3923
I88
sVnam_eve#head%
p3924
I17
sVlight_predicate#head%
p3925
I30
sVnam_pro#head%
p3926
I20
sVnam_pro#head%nam_liv_god#head%
p3927
I173
sVnam_oth_license%
p3928
I157
sVnam_org%nam_fac%
p3929
I58
sVt3_duration%
p3930
I28
sVnam_eve%nam_liv_person#head%
p3931
I50
sVnam_fac%nam_loc#head%
p3932
I80
sVnam_org%nam_loc%
p3933
I75
sVnam_fac%nam_eve%nam_liv_person%
p3934
I107
sVnam_loc%
p3935
I4
sVnam_org#head%nam_pro%
p3936
I185
sVnam_eve%nam_fac%nam_adj#head%
p3937
I128
sVaction#head%
p3938
I9
sVnam_eve#head%nam_fac%
p3939
I116
sVnam_oth_www#head%
p3940
I152
sVnam_liv_person#head%nam_org#head%
p3941
I98
sVt3_range%
p3942
I46
sVnam_fac%nam_org#head%nam_pro#head%
p3943
I194
sVaction#head%nam_eve%
p3944
I19
sVnam_fac%nam_adj#head%
p3945
I153
sVt3_range#head%
p3946
I38
sVt3_duration%t3_range%
p3947
I180
sVt3_date%
p3948
I10
sVnam_oth_tech%
p3949
I85
sVnam_adj#head%nam_fac#head%
p3950
I167
sVnam_eve%nam_liv_person%
p3951
I48
sVnam_fac%nam_liv_god#head%
p3952
I144
sVnam_loc%t3_date#head%
p3953
I118
sVnam_org%nam_liv_person%
p3954
I14
sVt3_time#head%nam_pro%
p3955
I198
sVt3_time%
p3956
I66
sVnam_eve%nam_loc#head%
p3957
I49
sVt3_set%
p3958
I134
sVt3_date#head%t3_range#head%
p3959
I139
sVnam_eve%t3_duration#head%
p3960
I76
sVnam_fac%nam_pro#head%
p3961
I121
sVnam_liv_person%
p3962
I6
sVnam_adj#head%nam_eve%
p3963
I177
sVt3_date#head%nam_pro%
p3964
I52
sVnam_liv_person%nam_fac%
p3965
I60
sVnam_pro%nam_loc%
p3966
I179
sVnam_fac%nam_pro%
p3967
I195
sVnam_pro%nam_liv_person#head%
p3968
I163
sVnam_loc%nam_org%
p3969
I74
sVstate#head%
p3970
I3
sVnam_fac#head%nam_pro#head%
p3971
I197
sVnam_adj#head%nam_loc%
p3972
I53
sVstate%
p3973
I193
sVnam_org#head%nam_fac#head%
p3974
I59
sVnam_loc#head%nam_eve#head%
p3975
I205
sVnam_liv_character#head%
p3976
I35
sVnam_oth_address_street%
p3977
I93
sVt3_set#head%
p3978
I37
sVnam_eve%nam_adj#head%
p3979
I150
sVnam_org#head%nam_loc#head%
p3980
I55
sVnam_oth_ip#head%
p3981
I200
sVt3_duration#head%t3_range%
p3982
I181
sVnam_loc#head%nam_liv_person%
p3983
I204
sVt3_date%nam_pro%
p3984
I146
sVnam_pro%nam_loc#head%
p3985
I84
sVnam_loc#head%
p3986
I0
sVnam_pro%nam_liv_habitant#head%
p3987
I90
sVnam_loc#head%nam_fac#head%
p3988
I81
sVnam_org%action#head%
p3989
I191
sVnam_eve%nam_adj#head%nam_fac%
p3990
I126
sVt3_time%t3_range%
p3991
I142
sVnam_org#head%nam_pro#head%
p3992
I73
sVnam_liv_god#head%
p3993
I70
sVt3_date#head%nam_eve%
p3994
I39
sVnam_pro%nam_fac%nam_adj#head%
p3995
I120
ssVdependency_path_from
p3996
(dp3997
ss.