(dp0
S'labels_index'
p1
(dp2
Vloc
p3
I3
sVben
p4
I2
sS'n/a'
p5
I0
sVag
p6
I1
ssS'indexed_features'
p7
(dp8
Vtoken_type
p9
(dp10
S'to'
p11
I2
sS'from'
p12
I1
sS'n/a'
p13
I0
ssS'dependency_path_short'
p14
(dp15
S''
p16
I9
sVcomp_fin-pd-pre_coord-mwe
p17
I1049
sVmwe-comp-punct
p18
I766
sVobj-conjunct-adjunct-obj-adjunct-punct
p19
I809
sVroot-adjunct
p20
I769
sVcomp_fin-obj-adjunct-comp
p21
I834
sVadjunct-conjunct-adjunct
p22
I171
sVobj-comp_fin-adjunct-punct
p23
I1169
sVobj_th-obj
p24
I123
sVconjunct-obj-adjunct
p25
I247
sVadjunct-root-comp
p26
I1037
sVaux-neg
p27
I211
sVpd-adjunct_compar
p28
I1200
sVadjunct-app-adjunct-conjunct-adjunct
p29
I1009
sVadjunct-comp-adjunct_rc-comp
p30
I587
sVcomp_fin-obj-adjunct-obj-conjunct-adjunct
p31
I853
sVconjunct-comp_fin-comp-adjunct
p32
I1190
sVadjunct-subj
p33
I125
sVcomp-comp_fin-comp_inf-adjunct-comp
p34
I747
sVcomp-comp_fin-adjunct-comp_fin-adjunct-comp_fin-adjunct-comp
p35
I336
sVconjunct-comp_inf-comp
p36
I423
sVadjunct_qt-comp
p37
I261
sVcomp_inf-obj-adjunct_rc-comp_inf-obj_th-adjunct
p38
I689
sVadjunct_qt-conjunct-adjunct-comp
p39
I395
sVobj_th-comp-adjunct
p40
I770
sVapp-adjunct-conjunct-adjunct_qt-adjunct-conjunct-punct
p41
I1014
sVadjunct-conjunct-pd-adjunct-comp
p42
I881
sVcomp-ne
p43
I155
sVconjunct-obj-adjunct-comp-conjunct-adjunct
p44
I449
sVcomp-conjunct-adjunct
p45
I194
sVmwe
p46
I58
sVadjunct-subj-adjunct-subj-comp
p47
I686
sVadjunct-subj-adjunct
p48
I218
sVaux
p49
I98
sVsubj-comp-comp_fin-conjunct-obj
p50
I70
sVobj-pd
p51
I607
sVadjunct-comp-adjunct-pd
p52
I712
sVconjunct-comp_fin-adjunct-punct
p53
I1194
sVadjunct-obj_th-app
p54
I797
sVconjunct-adjunct-comp-adjunct-conjunct
p55
I320
sVadjunct-comp-ne-adjunct
p56
I283
sVadjunct_qt-punct
p57
I267
sVadjunct-subj-conjunct-subj-adjunct_rc-adjunct
p58
I1288
sVsubj-adjunct-comp-adjunct-comp-conjunct
p59
I679
sVadjunct-comp-comp_fin-subj-comp
p60
I1126
sVobj_th-adjunct-comp_ag
p61
I122
sVcomp-adjunct-pd-adjunct
p62
I708
sVadjunct-comp-comp_fin-comp_inf-adjunct
p63
I750
sVmwe-adjunct-mwe-adjunct-mwe-adjunct_compar
p64
I609
sVmwe-comp-adjunct-comp-adjunct_rc-adjunct
p65
I572
sVadjunct-comp-comp_fin-refl
p66
I1127
sVroot-adjunct-comp-punct
p67
I784
sVadjunct-comp_inf-adjunct-mwe-comp
p68
I1223
sVcomp_inf-adjunct-comp
p69
I757
sVobj-conjunct-adjunct-obj-adjunct-ne
p70
I813
sVcomp_inf-adjunct-comp_fin
p71
I1137
sVcomp_ag-comp-adjunct-comp-adjunct
p72
I826
sVcomp-adjunct-conjunct-ne
p73
I820
sVadjunct-obj_th-adjunct
p74
I530
sVcomp-subj-adjunct-conjunct-adjunct
p75
I874
sVobj-conjunct-obj
p76
I92
sVadjunct-conjunct-pd-adjunct
p77
I884
sVne-abbrev_punct
p78
I13
sVadjunct-pd-comp
p79
I168
sVadjunct-conjunct-comp_fin-conjunct-comp-conjunct
p80
I1182
sVapp-ne-app
p81
I986
sVconjunct-adjunct-comp-adjunct-punct
p82
I1150
sVadjunct-conjunct-comp-obj
p83
I640
sVcomp-app-ne
p84
I825
sVcomp_fin-subj-comp
p85
I910
sVcomp-adjunct_compar
p86
I304
sVobj-adjunct_rc-punct
p87
I693
sVitem
p88
I248
sVconjunct-comp-conjunct
p89
I1183
sVconjunct-pd
p90
I252
sVcomp-subj-app-adjunct
p91
I867
sVcomp-subj-app-punct
p92
I887
sVsubj-adjunct-comp-adjunct-conjunct
p93
I458
sVcomp-conjunct-app
p94
I496
sVcomp-adjunct-abbrev_punct
p95
I842
sVadjunct-conjunct-obj-adjunct
p96
I421
sVconjunct-adjunct-comp
p97
I69
sVsubj-adjunct-subj-conjunct-adjunct
p98
I1145
sVsubj-adjunct-subj-conjunct-comp-adjunct
p99
I1265
sVadjunct-comp-adjunct_rc-adjunct_qt-adjunct-comp-adjunct
p100
I559
sVadjunct-pd
p101
I242
sVcomp-adjunct_rc-adjunct_qt-adjunct-comp-adjunct
p102
I560
sVconjunct-comp_inf-comp-punct
p103
I1297
sVconjunct-subj-adjunct-obj-conjunct
p104
I1308
sVapp-ne-app-adjunct-abbrev_punct
p105
I998
sVconjunct-cond
p106
I66
sVapp-ne-adjunct-conjunct-ne
p107
I988
sVmwe-comp-adjunct-mwe
p108
I765
sVcomp_fin-subj-adjunct-comp
p109
I151
sVadjunct-app-adjunct-conjunct-adjunct_qt-adjunct-conjunct
p110
I1018
sVne-app-adjunct-punct
p111
I983
sVpunct-subj
p112
I240
sVconjunct-adjunct_qt-punct
p113
I1001
sVcomp-adjunct-conjunct-adjunct-comp
p114
I668
sVconjunct-pd-adjunct-comp-punct
p115
I323
sVconjunct-comp_fin-aux
p116
I356
sVcomp_fin-adjunct-subj-comp
p117
I1167
sVadjunct-app-punct
p118
I434
sVapp-adjunct-mwe-comp
p119
I84
sVcomp_inf-obj-conjunct-comp
p120
I778
sVcomp-comp_fin-comp_inf-obj-adjunct
p121
I752
sVcomp-adjunct-comp-adjunct_rc-adjunct_qt-adjunct-comp
p122
I574
sVneg
p123
I136
sVadjunct-comp-comp_fin-conjunct-comp-obj_th-adjunct-comp
p124
I226
sVadjunct-conjunct-obj-comp
p125
I384
sVcomp_inf-obj_th-adjunct-subj
p126
I918
sVadjunct_qt-conjunct
p127
I353
sVcomp-adjunct_compar-comp-adjunct
p128
I790
sVobj-adjunct-obj_th-obj
p129
I126
sVpd-adjunct-obj-adjunct
p130
I455
sVapp-adjunct-abbrev_punct
p131
I1000
sVobj-adjunct-obj
p132
I426
sVcomp_ag
p133
I119
sVadjunct-subj-conjunct-subj-adjunct_rc-comp-comp_fin-adjunct-comp
p134
I1285
sVcomp-comp_fin-conjunct-obj
p135
I21
sVapp-adjunct-conjunct
p136
I992
sVadjunct-conjunct-adjunct-comp_fin-adjunct
p137
I1122
sVadjunct-mwe-adjunct
p138
I617
sVconjunct-aux
p139
I215
sVpd-conjunct-adjunct-comp
p140
I207
sVadjunct-refl
p141
I960
sVpd-adjunct-punct
p142
I446
sVcomp_inf-pd-adjunct-obj
p143
I629
sVcomp-conjunct-mwe
p144
I368
sVcomp-adjunct-ne
p145
I187
sVconjunct-ne
p146
I177
sVconjunct-obj-ne
p147
I1129
sVadjunct-comp_ag-comp-adjunct
p148
I120
sVpunct
p149
I4
sVconjunct-comp_inf-comp-conjunct-adjunct
p150
I378
sVcomp-comp_fin-conjunct-adjunct-mwe
p151
I63
sVadjunct-conjunct-punct
p152
I192
sVadjunct_qt-conjunct-adjunct-mwe-comp
p153
I397
sVcomp-comp_fin-comp_inf-obj_th-adjunct-obj-adjunct-conjunct-adjunct-mwe
p154
I923
sVcomp-comp_fin-conjunct-comp
p155
I332
sVcomp-adjunct_rc-adjunct_qt-adjunct-comp-adjunct-comp-adjunct-comp
p156
I557
sVcomp_fin-adjunct-subj
p157
I1159
sVcomp-adjunct_rc
p158
I582
sVobj_th-app
p159
I798
sVcomp_inf-comp-adjunct-comp
p160
I411
sVadjunct_qt-adjunct-comp-conjunct-app
p161
I498
sVcomp-adjunct_rc-adjunct_qt-adjunct
p162
I547
sVconjunct-adjunct-subj-adjunct-comp-adjunct
p163
I214
sVobj-adjunct-conjunct-obj-adjunct
p164
I901
sVcomp_inf-adjunct-comp_fin-adjunct
p165
I1138
sVconjunct-subj-app-adjunct-comp-adjunct-obj_th-adjunct-root-subj-punct
p166
I489
sVconjunct-obj_th-punct
p167
I40
sVsubj-adjunct-refl
p168
I959
sVadjunct-comp-adjunct-conjunct-app-punct
p169
I667
sVadjunct-comp_fin-comp_ag-punct
p170
I514
sVadjunct-comp-adjunct-obj-adjunct-comp-adjunct
p171
I1100
sVobj-app-adjunct_rc-obj
p172
I948
sVcomp-comp_fin-comp_inf-comp-adjunct-comp-adjunct
p173
I407
sVconjunct-comp-adjunct
p174
I173
sVpd-adjunct-conjunct
p175
I445
sVroot-neg
p176
I1172
sVconjunct-obj_th-comp-comp_fin-comp_inf
p177
I470
sVmwe-adjunct_rc-punct
p178
I128
sVadjunct-comp-adjunct-conjunct-adjunct
p179
I663
sVcomp_ag-comp
p180
I209
sVobj_th-adjunct-comp-conjunct-adjunct-comp-adjunct
p181
I1212
sVmwe-comp-adjunct-comp-adjunct_rc-subj
p182
I579
sVapp
p183
I12
sVpd-root-conjunct-adjunct_rc-subj
p184
I314
sVmwe-adjunct-mwe-adjunct
p185
I616
sVsubj-conjunct-obj_th
p186
I1268
sVconjunct-adjunct-obj
p187
I644
sVsubj-adjunct-subj-punct
p188
I1079
sVcomp_inf-obj_th-adjunct-obj
p189
I940
sVadjunct-app-adjunct-comp-conjunct-adjunct
p190
I623
sVobj_th-comp-adjunct-punct
p191
I771
sVadjunct-obj-conjunct
p192
I178
sVconjunct-punct
p193
I246
sVsubj-adjunct-conjunct-pd
p194
I871
sVcomp-adjunct-obj-adjunct
p195
I1097
sVcomp_fin-conjunct-subj-adjunct-comp
p196
I1192
sVconjunct-pd-conjunct-adjunct-comp
p197
I208
sVcomp_inf-adjunct-comp_fin-obj
p198
I1139
sVobj-adjunct-ne-adjunct-conjunct
p199
I709
sVconjunct-obj_th-adjunct-comp
p200
I255
sVsubj-ne
p201
I124
sVsubj-conjunct-subj-adjunct_rc-adjunct-conjunct
p202
I1286
sVsubj-app-adjunct
p203
I80
sVadjunct-conjunct-adjunct-subj
p204
I1121
sVcomp_inf
p205
I363
sVne-comp
p206
I424
sVcomp-comp_fin-comp_inf-obj_th-adjunct-obj-adjunct-conjunct-obj-adjunct
p207
I897
sVadjunct-obj-comp
p208
I804
sVcomp-adjunct-comp-ne-adjunct
p209
I282
sVadjunct-comp-punct
p210
I109
sVobj-adjunct-mwe-comp-adjunct-comp-ne
p211
I1237
sVcomp_fin-adjunct-comp_fin-adjunct-punct
p212
I342
sVsubj-adjunct-subj-conjunct-subj-adjunct_rc-punct
p213
I1260
sVmwe-comp-adjunct-comp-adjunct_rc-adjunct_qt-adjunct-comp-adjunct
p214
I562
sVcomp_fin-conjunct-adjunct
p215
I15
sVcomp_fin-pd-conjunct-obj-ne
p216
I1136
sVadjunct_rc-comp-adjunct
p217
I604
sVcomp-subj-app
p218
I886
sVadjunct-comp-obj-adjunct-comp-adjunct
p219
I521
sVadjunct-conjunct-ne
p220
I418
sVsubj-comp-adjunct-comp-adjunct
p221
I508
sVadjunct-comp-mwe
p222
I302
sVpd-conjunct
p223
I205
sVadjunct_rc-punct
p224
I129
sVadjunct-comp_fin
p225
I294
sVcomp-adjunct-comp-adjunct_rc-adjunct_qt-adjunct-comp-adjunct-comp
p226
I552
sVcomp-comp_fin-punct
p227
I35
sVadjunct-app-adjunct-punct
p228
I432
sVcomp-adjunct-conjunct-adjunct-conjunct
p229
I675
sVadjunct-obj-conjunct-adjunct
p230
I837
sVadjunct_qt-adjunct-subj
p231
I500
sVobj-conjunct-pd
p232
I1059
sVobj
p233
I22
sVconjunct-adjunct-comp_inf-obj
p234
I448
sVadjunct-subj-punct
p235
I228
sVcomp-comp_fin-comp_inf-obj_th-adjunct-obj
p236
I936
sVadjunct-ne-adjunct-conjunct
p237
I710
sVadjunct-obj-adjunct-conjunct-adjunct-mwe
p238
I939
sVsubj-adjunct-subj-conjunct-adjunct-mwe-comp-obj
p239
I1146
sVconjunct-obj-adjunct-conjunct-adjunct
p240
I174
sVadjunct_rc-comp_inf-obj-comp_fin
p241
I1114
sVconjunct-comp_fin-comp
p242
I1189
sVpd-mwe-adjunct_rc-punct
p243
I137
sVcomp_fin-conjunct-comp-obj_th-adjunct-comp
p244
I224
sVconjunct-comp_fin-subj
p245
I372
sVcomp_inf-obj-adjunct
p246
I91
sVsubj-adjunct-mwe-adjunct_compar
p247
I661
sVconjunct-adjunct-conjunct-comp
p248
I666
sVconjunct-subj-comp-comp_fin-conjunct-adjunct
p249
I27
sVconjunct-adjunct-comp_ag
p250
I275
sVcomp_inf-comp-conjunct-mwe
p251
I367
sVroot
p252
I308
sVadjunct-subj-comp
p253
I685
sVobj-conjunct-comp-comp_fin-refl
p254
I1069
sVconjunct-obj_th
p255
I165
sVadjunct_compar-comp
p256
I444
sVconjunct-subj-adjunct
p257
I202
sVcomp-adjunct_rc-comp
p258
I588
sVobj-adjunct-comp-comp_fin-subj-adjunct-punct
p259
I1053
sVobj-adjunct-obj-conjunct-adjunct
p260
I855
sVadjunct-conjunct-adjunct-comp_fin-conjunct-adjunct-conjunct
p261
I1119
sVadjunct-ne-conjunct
p262
I412
sVcomp_fin-obj-adjunct
p263
I720
sVconjunct-comp-comp_ag
p264
I637
sVobj-adjunct-punct
p265
I108
sVcomp-adjunct-comp-adjunct_rc-adjunct
p266
I553
sVobj-adjunct-comp-comp_inf-comp-adjunct-abbrev_punct
p267
I846
sVcomp-adjunct-comp_ag
p268
I734
sVsubj-mwe-comp
p269
I649
sVsubj-conjunct-subj-adjunct_rc-comp-comp_fin-adjunct-comp
p270
I1284
sVcomp_fin-comp_inf-comp
p271
I406
sVcomp-adjunct-obj-adjunct-comp
p272
I1091
sVobj-adjunct-comp_ag
p273
I1106
sVcomp_fin-punct
p274
I36
sVcomp_inf-obj-adjunct_rc-punct
p275
I692
sVadjunct-comp-conjunct-adjunct-conjunct-ne
p276
I1211
sVadjunct-comp-ne
p277
I158
sVapp-adjunct-comp-adjunct
p278
I648
sVadjunct_qt-comp_inf-comp
p279
I460
sVcomp_inf-adjunct-comp-adjunct
p280
I759
sVadjunct-root-comp-punct
p281
I1036
sVsubj-adjunct_rc
p282
I832
sVsubj-comp-comp_fin-conjunct-obj_th-punct
p283
I53
sVsubj-app-adjunct-mwe-comp-adjunct
p284
I79
sVapp-ne-app-adjunct-app-adjunct-conjunct-adjunct_qt-punct
p285
I995
sVcomp_fin-pd-adjunct
p286
I681
sVadjunct-obj
p287
I179
sVne-app
p288
I987
sVcomp-adjunct-comp_ag-comp
p289
I736
sVadjunct-comp-conjunct-comp
p290
I195
sVadjunct-comp-adjunct-pd-adjunct
p291
I707
sVadjunct-obj-adjunct-conjunct
p292
I904
sVmwe-comp_fin-pd-mwe-adjunct_rc-punct
p293
I144
sVconjunct-adjunct-conjunct-obj-comp
p294
I635
sVadjunct-comp_fin-subj-adjunct-subj-punct
p295
I1078
sVsubj-adjunct-comp_fin-adjunct
p296
I792
sVobj-conjunct-comp-punct
p297
I1060
sVconjunct-obj
p298
I32
sVapp-ne
p299
I163
sVconjunct-obj_th-comp
p300
I485
sVcomp_fin-adjunct-comp_fin
p301
I325
sVconjunct-subj-comp-comp_fin-conjunct-adjunct-mwe-comp-adjunct
p302
I23
sVadjunct_qt-adjunct-comp
p303
I495
sVroot-adjunct-punct
p304
I772
sVcomp-obj-adjunct-comp-adjunct
p305
I522
sVconjunct-subj
p306
I90
sVadjunct-conjunct-comp
p307
I191
sVobj-adjunct-subj
p308
I714
sVcomp_inf-comp-conjunct-punct
p309
I370
sVadjunct_qt-adjunct-punct
p310
I493
sVadjunct-adjunct_rc-adjunct-punct
p311
I975
sVobj-adjunct-conjunct-adjunct-mwe-comp-obj
p312
I893
sVne-app-adjunct-app-adjunct-conjunct-adjunct_qt-adjunct-conjunct-ne
p313
I1006
sVcomp-comp_fin-adjunct-comp_fin-adjunct-comp_fin-subj
p314
I328
sVadjunct-comp-comp_fin-conjunct-comp
p315
I233
sVmwe-adjunct-punct-mwe
p316
I647
sVadjunct-comp-adjunct-ne
p317
I399
sVmwe-comp-adjunct-comp
p318
I567
sVcomp-conjunct-adjunct-conjunct
p319
I1210
sVconjunct-comp_inf-comp-conjunct-comp_fin-subj-adjunct
p320
I379
sVadjunct-comp_fin-neg
p321
I387
sVapp-ne-app-adjunct-app-adjunct-conjunct-adjunct_qt-adjunct-conjunct-punct
p322
I1012
sVmwe-comp-adjunct
p323
I78
sVobj-adjunct-adjunct_rc
p324
I973
sVadjunct-conjunct-abbrev_punct
p325
I1290
sVcomp-conjunct-comp_fin-subj-adjunct
p326
I377
sVadjunct-conjunct-obj
p327
I924
sVobj-adjunct_compar-comp-adjunct
p328
I1245
sVadjunct-comp-adjunct_rc-adjunct_qt-adjunct-comp-adjunct-comp-adjunct-comp
p329
I556
sVadjunct_rc-adjunct_qt-adjunct-comp-adjunct-comp
p330
I548
sVconjunct-obj_th-conjunct-adjunct-comp-adjunct
p331
I860
sVadjunct-conjunct-refl
p332
I908
sVadjunct-comp-obj
p333
I236
sVcomp-comp_fin-pd
p334
I1133
sVmwe-adjunct_rc-adjunct
p335
I132
sVconjunct-obj-conjunct-obj
p336
I95
sVadjunct-comp-comp_fin-subj
p337
I754
sVconjunct-obj_th-comp-comp_fin-comp_inf-adjunct
p338
I468
sVroot-comp_fin-obj_th-comp
p339
I774
sVcomp_inf-adjunct
p340
I480
sVobj_th-adjunct
p341
I116
sVadjunct-comp-ne-conjunct
p342
I276
sVobj-pd-comp
p343
I606
sVcomp_inf-root-adjunct-comp-adjunct_compar-comp
p344
I783
sVconjunct-comp_fin-subj-adjunct
p345
I376
sVconjunct-subj-app-ne
p346
I162
sVcomp-adjunct-comp_inf-obj
p347
I1230
sVpd-adjunct-comp-obj
p348
I1219
sVsubj-comp
p349
I56
sVconjunct-adjunct-punct
p350
I272
sVadjunct-aglt
p351
I793
sVne-adjunct-conjunct
p352
I711
sVconjunct
p353
I37
sVadjunct_qt
p354
I268
sVadjunct-comp-adjunct_rc-subj
p355
I569
sVadjunct_qt-adjunct
p356
I262
sVmwe-comp-adjunct-comp-adjunct_rc-punct
p357
I583
sVcomp_inf-obj-adjunct-mwe-comp
p358
I1233
sVadjunct_qt-comp_inf-comp-adjunct
p359
I463
sVobj_th-conjunct-adjunct-comp-adjunct-conjunct-adjunct
p360
I858
sVcomp_fin-comp_inf-obj
p361
I487
sVcomp_fin-adjunct-mwe
p362
I768
sVapp-ne-app-adjunct-app
p363
I1029
sVcomp-adjunct-aux
p364
I737
sVadjunct-subj-conjunct-adjunct-mwe-comp-obj
p365
I1147
sVsubj-comp-comp_fin-conjunct-adjunct
p366
I28
sVadjunct-conjunct-comp_fin-conjunct-subj-adjunct
p367
I1179
sVcomp-adjunct-subj-adjunct_rc-obj-adjunct
p368
I730
sVobj_th-adjunct-obj-adjunct-conjunct
p369
I903
sVobj-adjunct_rc-subj
p370
I702
sVobj_th-adjunct-subj-adjunct
p371
I529
sVcomp-adjunct-refl
p372
I1153
sVadjunct-conjunct-comp-adjunct
p373
I188
sVcomp-adjunct-comp_inf-adjunct-mwe
p374
I1228
sVmwe-comp-adjunct-comp-adjunct_rc
p375
I577
sVadjunct-conjunct
p376
I101
sVmwe-comp-obj
p377
I907
sVconjunct-adjunct-comp-comp_fin-conjunct-comp-obj_th-adjunct-comp
p378
I225
sVobj-adjunct-aux
p379
I971
sVobj_th-conjunct-adjunct-comp-adjunct
p380
I861
sVobj_th-adjunct-obj
p381
I941
sVadjunct-pd-adjunct
p382
I243
sVsubj-comp-comp_fin
p383
I20
sVadjunct_qt-subj
p384
I269
sVcomp_fin-conjunct-comp
p385
I331
sVapp-adjunct_rc
p386
I955
sVsubj-adjunct-subj
p387
I301
sVadjunct_rc-adjunct_qt-adjunct-comp-adjunct
p388
I593
sVconjunct-adjunct-subj-adjunct
p389
I220
sVsubj-adjunct-subj-conjunct-subj-adjunct_rc-adjunct-conjunct
p390
I1280
sVapp-adjunct-app
p391
I1031
sVconjunct-comp_inf-obj-adjunct
p392
I86
sVcomp-comp_fin-comp-adjunct
p393
I1300
sVadjunct-comp-adjunct-comp-obj-adjunct
p394
I526
sVsubj-adjunct-aglt
p395
I794
sVconjunct-adjunct-subj
p396
I213
sVconjunct-adjunct-obj-adjunct-obj
p397
I645
sVapp-adjunct_rc-obj
p398
I949
sVadjunct-conjunct-adjunct_qt
p399
I1028
sVsubj-conjunct-subj-adjunct_rc-punct
p400
I1283
sVadjunct-obj-adjunct
p401
I456
sVcomp_ag-comp-app
p402
I828
sVcomp-adjunct-comp-ne
p403
I157
sVadjunct_compar
p404
I303
sVobj_th-adjunct-punct
p405
I317
sVconjunct-comp-punct
p406
I1061
sVadjunct_rc-subj-adjunct
p407
I830
sVsubj-adjunct-conjunct-pd-adjunct
p408
I883
sVsubj-mwe
p409
I715
sVadjunct_qt-adjunct-comp-adjunct-comp-adjunct-comp
p410
I558
sVadjunct-obj-conjunct-ne
p411
I175
sVconjunct-app-punct
p412
I414
sVadjunct-mwe-comp-adjunct-conjunct-punct
p413
I190
sVcomp_fin-obj-adjunct-comp-comp_inf-adjunct
p414
I847
sVsubj-conjunct-subj-adjunct_rc-adjunct-conjunct-comp
p415
I1277
sVcomp-conjunct-comp
p416
I196
sVcomp_fin-adjunct-ne
p417
I1058
sVconjunct-pd-adjunct-comp-adjunct
p418
I877
sVcomp_fin-pd-mwe-adjunct_rc-adjunct
p419
I134
sVconjunct-comp_inf-comp-conjunct-comp_fin-aux
p420
I357
sVconjunct-pd-root
p421
I306
sVconjunct-obj-adjunct-comp
p422
I316
sVobj-adjunct
p423
I85
sVobj-app
p424
I957
sVmwe-adjunct-punct
p425
I614
sVapp-adjunct-app-adjunct-conjunct-adjunct
p426
I1008
sVadjunct-obj-adjunct-conjunct-refl
p427
I914
sVadjunct-comp_inf-adjunct
p428
I978
sVadjunct_qt-comp-adjunct-conjunct-adjunct
p429
I265
sVadjunct_compar-comp-adjunct-mwe
p430
I1077
sVsubj-comp-adjunct-comp
p431
I509
sVcomp-ne-adjunct
p432
I284
sVsubj-adjunct_rc-punct
p433
I729
sVcomp_inf-obj-adjunct_rc
p434
I704
sVcomp_inf-obj-adjunct-mwe-comp-adjunct
p435
I1232
sVadjunct-conjunct-adjunct-conjunct-comp
p436
I665
sVcomp_fin-adjunct-mwe-comp-adjunct
p437
I1242
sVconjunct-subj-punct
p438
I206
sVadjunct-obj-adjunct-conjunct-adjunct-mwe-comp-obj
p439
I892
sVadjunct-comp_fin-adjunct-comp_fin
p440
I343
sVcomp-adjunct-obj
p441
I1099
sVsubj-adjunct-subj-conjunct-subj-adjunct_rc-adjunct-conjunct-comp
p442
I1276
sVcomp-comp_ag-comp
p443
I633
sVcomp-conjunct-subj-adjunct
p444
I631
sVadjunct-comp-abbrev_punct
p445
I452
sVadjunct-conjunct-adjunct-mwe-comp-obj
p446
I894
sVpd-root-conjunct-adjunct_rc-punct
p447
I310
sVsubj-adjunct-conjunct-adjunct
p448
I870
sVadjunct-comp-conjunct
p449
I183
sVsubj-adjunct-comp-abbrev_punct
p450
I1102
sVpunct-subj-adjunct
p451
I237
sVsubj-obj
p452
I428
sVadjunct_compar-mwe-adjunct
p453
I656
sVadjunct-conjunct-adjunct-mwe
p454
I920
sVobj_th-punct
p455
I51
sVcomp-adjunct-conjunct-adjunct-conjunct-comp
p456
I664
sVcomp_fin-obj-adjunct-comp-comp_inf-obj-adjunct-comp_ag-comp
p457
I850
sVsubj-comp-comp_fin-conjunct-adjunct-mwe-comp-adjunct
p458
I24
sVadjunct-subj-adjunct-punct
p459
I687
sVadjunct_qt-comp_fin-subj
p460
I401
sVadjunct-mwe-adjunct-mwe-adjunct_compar
p461
I615
sVsubj-adjunct-comp-adjunct
p462
I217
sVapp-ne-app-adjunct-app-adjunct-conjunct-adjunct_qt-adjunct-conjunct-ne
p463
I1005
sVsubj-adjunct-subj-adjunct
p464
I1085
sVobj-comp-adjunct
p465
I799
sVsubj-adjunct-neg
p466
I1081
sVcomp_fin-conjunct-adjunct-mwe-comp-abbrev_punct
p467
I73
sVadjunct-comp_inf-obj
p468
I451
sVcomp-adjunct-comp-adjunct_rc-subj
p469
I580
sVcomp_inf-obj
p470
I475
sVadjunct-comp_inf-adjunct-mwe
p471
I1229
sVconjunct-subj-app
p472
I164
sVpd-adjunct-comp-punct
p473
I321
sVcomp_inf-comp-adjunct
p474
I464
sVcomp-adjunct-comp_ag-comp-adjunct
p475
I1070
sVcomp-comp_fin-comp_inf-aux
p476
I929
sVadjunct-comp-adjunct-punct
p477
I182
sVconjunct-comp_inf-comp-conjunct-comp_fin-subj
p478
I373
sVcomp_fin-subj
p479
I140
sVadjunct-app-adjunct
p480
I622
sVcomp-ne-adjunct-comp
p481
I287
sVsubj-adjunct-punct
p482
I300
sVadjunct-conjunct-adjunct-comp_fin-conjunct-adjunct_rc-punct
p483
I1113
sVadjunct-mwe-comp-abbrev_punct
p484
I71
sVconjunct-pd-adjunct-punct
p485
I441
sVconjunct-comp_fin-conjunct-comp
p486
I1176
sVcomp-comp_fin-adjunct-comp_fin
p487
I324
sVadjunct-comp-comp_fin-pd-conjunct-aglt
p488
I1131
sVadjunct-comp-app
p489
I819
sVadjunct-obj_th-adjunct-subj
p490
I531
sVadjunct-comp-adjunct-comp-ne-adjunct-comp-ne
p491
I288
sVadjunct-comp_fin-adjunct-comp_fin-subj
p492
I352
sVcomp-adjunct-comp-adjunct_rc
p493
I578
sVadjunct-comp-adjunct_compar-comp
p494
I788
sVobj-conjunct-refl
p495
I1055
sVobj-adjunct-comp_ag-comp-adjunct
p496
I1105
sVsubj-conjunct-adjunct-mwe-comp-obj
p497
I1148
sVcomp-adjunct-aux-neg
p498
I761
sVcomp_fin-adjunct-comp
p499
I339
sVsubj-adjunct-subj-comp
p500
I299
sVcomp_inf-comp-punct
p501
I1303
sVobj_th-adjunct-comp_ag-comp-adjunct
p502
I121
sVobj-adjunct-conjunct
p503
I684
sVadjunct-mwe-comp-adjunct
p504
I26
sVcomp-conjunct-abbrev_punct
p505
I197
sVcomp_inf-obj_th
p506
I696
sVobj-adjunct-app
p507
I1250
sVadjunct-comp-comp_fin
p508
I111
sVconjunct-comp-comp_ag-comp
p509
I634
sVconjunct-subj-adjunct-comp
p510
I394
sVobj_th-adjunct-obj-adjunct-conjunct-refl
p511
I913
sVadjunct-comp-comp_fin-obj
p512
I112
sVcomp-adjunct-comp-adjunct_rc-punct
p513
I584
sVobj-adjunct-comp-comp_fin-comp_inf-adjunct-comp
p514
I745
sVadjunct-pd-comp-adjunct
p515
I389
sVadjunct_qt-conjunct-punct
p516
I396
sVadjunct-adjunct_qt-adjunct
p517
I961
sVadjunct_qt-conjunct-ne
p518
I542
sVcomp_fin-subj-adjunct
p519
I138
sVcomp-conjunct-ne
p520
I502
sVadjunct-conjunct-adjunct-comp_fin-conjunct-adjunct_rc-comp_inf-obj-comp_fin-adjunct-conjunct-adjunct_rc-pd-comp-conjunct-subj-adjunct-conjunct-adjunct-comp_fin-conjunct-obj-app
p521
I1125
sVmwe-comp_fin
p522
I143
sVconjunct-adjunct-obj-adjunct
p523
I643
sVcomp_inf-comp-conjunct-comp_fin-subj-adjunct
p524
I380
sVcomp_inf-obj_th-adjunct-punct
p525
I895
sVapp-adjunct-punct
p526
I621
sVcomp_fin-comp_inf-obj_th-adjunct-obj-adjunct-conjunct-adjunct-mwe-comp-obj
p527
I935
sVcomp_inf-root
p528
I791
sVcomp_fin-comp_inf-obj_th-adjunct-obj
p529
I942
sVcomp_fin-comp_inf-adjunct-comp
p530
I743
sVcomp_fin-subj-adjunct-adjunct_compar
p531
I1043
sVadjunct-mwe-comp
p532
I45
sVcomp-adjunct-comp-adjunct-conjunct-adjunct-comp
p533
I674
sVobj_th-adjunct-comp-adjunct-comp-obj-adjunct
p534
I525
sVcomp-comp_fin-conjunct-obj_th-punct
p535
I41
sVsubj-adjunct-conjunct-app
p536
I943
sVapp-ne-app-punct
p537
I981
sVcomp_fin-conjunct-adjunct-mwe-comp
p538
I44
sVadjunct-subj-conjunct-comp-adjunct
p539
I1266
sVcomp_fin-conjunct-obj
p540
I43
sVpd-comp-adjunct-punct
p541
I390
sVadjunct-comp-adjunct_compar
p542
I305
sVconjunct-comp-adjunct-comp-ne
p543
I1151
sVconjunct-adjunct-subj-punct
p544
I227
sVmwe-comp-adjunct-comp-ne
p545
I1239
sVadjunct_rc-comp_inf-obj_th
p546
I701
sVadjunct-comp-conjunct-adjunct-comp
p547
I1207
sVconjunct-comp
p548
I18
sVapp-adjunct-mwe
p549
I88
sVcomp_fin-comp_inf-aux
p550
I932
sVcomp-comp_fin-comp_inf-comp-adjunct-comp
p551
I410
sVcomp_inf-obj_th-adjunct-obj-adjunct
p552
I927
sVcomp_fin-comp-adjunct
p553
I1301
sVconjunct-obj_th-comp-punct
p554
I482
sVcomp-adjunct-comp-adjunct_rc-adjunct_qt-adjunct-comp-adjunct
p555
I566
sVconjunct-comp_inf-comp-comp_fin-refl
p556
I1295
sVadjunct_qt-subj-ne
p557
I264
sVsubj-conjunct-comp-adjunct
p558
I1269
sVadjunct-conjunct-ne-adjunct
p559
I990
sVcomp-adjunct_rc-subj
p560
I568
sVconjunct-pd-root-conjunct-adjunct_rc-subj
p561
I313
sVobj-conjunct-adjunct-obj
p562
I810
sVpd-adjunct-ne
p563
I413
sVconjunct-comp_inf-comp-comp_fin-comp-adjunct
p564
I1299
sVadjunct_qt-obj-adjunct-subj-adjunct-comp
p565
I965
sVconjunct-pd-conjunct
p566
I204
sVconjunct-ne-adjunct
p567
I991
sVcomp_inf-root-refl
p568
I789
sVadjunct-mwe-comp-adjunct-comp
p569
I723
sVsubj-adjunct-subj-conjunct-subj-adjunct_rc-adjunct
p570
I1267
sVadjunct-comp-comp_fin-conjunct-subj
p571
I230
sVne-adjunct-app-punct
p572
I1293
sVconjunct-subj-adjunct-comp-adjunct
p573
I393
sVcomp-adjunct-punct
p574
I234
sVconjunct-comp_fin
p575
I796
sVconjunct-pd-adjunct-conjunct
p576
I447
sVsubj-conjunct-adjunct
p577
I439
sVconjunct-adjunct-ne
p578
I203
sVadjunct-comp-comp_fin-comp_inf-obj
p579
I751
sVconjunct-obj-adjunct-obj_th
p580
I1312
sVconjunct-comp_inf-comp-comp_fin-comp
p581
I1296
sVadjunct-comp-adjunct_rc-adjunct
p582
I570
sVadjunct_qt-adjunct-comp-conjunct-ne
p583
I503
sVmwe-comp-adjunct-comp-adjunct_rc-adjunct_qt-adjunct-comp
p584
I573
sVpunct-subj-adjunct-pd
p585
I245
sVobj-adjunct-ne
p586
I180
sVsubj-comp-comp_fin-conjunct
p587
I48
sVapp-ne-app-adjunct-app-adjunct-conjunct-adjunct
p588
I1010
sVcomp-comp_fin-obj-adjunct
p589
I719
sVobj-adjunct-comp-comp_fin-comp_inf-adjunct
p590
I749
sVobj_th-conjunct
p591
I293
sVadjunct_compar-comp-adjunct-comp_ag-comp-adjunct
p592
I1074
sVroot-comp_fin-subj
p593
I142
sVcomp_fin-subj-adjunct-subj-adjunct
p594
I1084
sVadjunct-comp-adjunct-comp-adjunct
p595
I271
sVconjunct-obj_th-comp-comp_fin-comp_inf-obj
p596
I476
sVconjunct-comp_inf-comp-conjunct-punct
p597
I369
sVadjunct-subj-adjunct-comp
p598
I974
sVcomp_fin-subj-adjunct-subj-punct
p599
I1087
sVadjunct-comp_ag-comp
p600
I212
sVsubj-app-adjunct-mwe-comp
p601
I87
sVadjunct-pd-comp-obj-adjunct-conjunct
p602
I166
sVsubj-adjunct
p603
I75
sVcomp_inf-root-adjunct-comp-punct
p604
I786
sVcomp_fin-adjunct-comp_fin-adjunct-comp
p605
I338
sVsubj-adjunct-comp_ag-comp-adjunct
p606
I1112
sVmwe-adjunct
p607
I611
sVcomp_fin-adjunct-comp_fin-subj
p608
I330
sVconjunct-subj-ne
p609
I258
sVadjunct
p610
I1
sVcomp_inf-root-adjunct-comp-adjunct_compar
p611
I782
sVsubj-adjunct-conjunct-punct
p612
I1042
sVconjunct-pd-adjunct
p613
I251
sVcomp_ag-punct
p614
I511
sVconjunct-obj-conjunct-adjunct
p615
I96
sVcomp-adjunct-comp-adjunct_rc-adjunct_qt
p616
I599
sVcomp_fin-obj-adjunct-comp-comp_inf-comp-adjunct-abbrev_punct
p617
I841
sVobj_th-adjunct-comp-conjunct
p618
I1203
sVapp-punct
p619
I77
sVcomp_ag-comp-adjunct
p620
I117
sVobj_th-comp-comp_fin-adjunct
p621
I479
sVobj-adjunct-comp-adjunct-mwe
p622
I816
sVcomp_fin-conjunct-comp-conjunct
p623
I1196
sVcomp-adjunct-subj-adjunct
p624
I762
sVadjunct-comp_fin-subj-adjunct-conjunct
p625
I1039
sVconjunct-comp_fin-adjunct-comp
p626
I1178
sVcomp_fin-comp
p627
I706
sVsubj-adjunct-mwe-subj-mwe-app-conjunct-adjunct-punct
p628
I655
sVcomp-ne-comp
p629
I427
sVadjunct-adjunct_rc-adjunct
p630
I967
sVconjunct-adjunct-punct-root-adjunct-app-adjunct-punct
p631
I430
sVmwe-comp
p632
I46
sVmwe-app-conjunct-mwe
p633
I658
sVadjunct-punct
p634
I103
sVadjunct-subj-conjunct-obj_th
p635
I1264
sVadjunct-conjunct-subj-ne
p636
I400
sVobj-adjunct-obj_th-adjunct
p637
I1248
sVroot-refl
p638
I787
sVcomp-adjunct-comp-obj-adjunct
p639
I523
sVsubj-comp-ne-abbrev_punct
p640
I438
sVadjunct_qt-adjunct-comp-adjunct-comp
p641
I551
sVcomp_fin-conjunct-adjunct-conjunct
p642
I1120
sVadjunct-conjunct-comp_fin
p643
I795
sVconjunct-subj-comp-adjunct-comp-adjunct
p644
I510
sVcomp_inf-pd
p645
I625
sVconjunct-subj-comp
p646
I57
sVadjunct-subj-adjunct-comp-adjunct
p647
I216
sVcomp_inf-adjunct-mwe
p648
I1231
sVobj_th-adjunct-obj-adjunct-conjunct-adjunct-mwe
p649
I922
sVconjunct-obj_th-comp-comp_fin-adjunct
p650
I481
sVobj-comp_fin-adjunct-pd
p651
I1168
sVadjunct-aux
p652
I632
sVcomp_fin
p653
I110
sVpd-adjunct-comp-mwe
p654
I1221
sVobj-adjunct-mwe-comp-adjunct
p655
I725
sVcomp-comp_fin-adjunct-comp_fin-adjunct-comp_fin-adjunct-punct
p656
I326
sVadjunct-comp
p657
I6
sVsubj-comp-adjunct
p658
I717
sVadjunct-comp-adjunct-comp
p659
I160
sVadjunct-subj-conjunct-comp
p660
I1254
sVadjunct_rc
p661
I605
sVadjunct-comp-comp_fin-comp_inf-adjunct-comp
p662
I746
sVcomp_fin-conjunct-subj-adjunct
p663
I1185
sVcomp-adjunct-mwe-comp
p664
I1073
sVsubj-adjunct_rc-obj
p665
I735
sVsubj-adjunct-subj-conjunct-comp
p666
I1253
sVcomp-conjunct-adjunct-conjunct-adjunct
p667
I1209
sVcomp-adjunct-comp-adjunct-conjunct-app-punct
p668
I672
sVcomp_fin-comp_inf-adjunct
p669
I467
sVobj-adjunct-comp
p670
I152
sVobj-comp_fin-subj-adjunct-comp
p671
I1157
sVadjunct-comp-adjunct-conjunct
p672
I102
sVconjunct-obj-adjunct-conjunct
p673
I683
sVobj-adjunct_rc-comp_inf-obj_th
p674
I695
sVadjunct-conjunct-obj-adjunct-comp
p675
I422
sVcomp_fin-adjunct-comp_fin-adjunct
p676
I333
sVcomp_fin-comp_inf-obj_th-adjunct-obj-adjunct-conjunct-obj-adjunct
p677
I909
sVadjunct-app-adjunct-comp
p678
I618
sVobj-conjunct-pd-adjunct
p679
I1063
sVobj_th-adjunct-comp-conjunct-adjunct
p680
I1218
sVmwe-comp-adjunct-comp-adjunct_rc-comp-adjunct
p681
I591
sVobj-adjunct-comp_ag-comp-abbrev_punct
p682
I1104
sVadjunct_compar-comp-adjunct
p683
I785
sVconjunct-adjunct-comp-adjunct
p684
I273
sVsubj-adjunct-adjunct_compar
p685
I1044
sVcomp_fin-obj-adjunct-comp-comp_inf-obj
p686
I833
sVadjunct-comp-conjunct-ne
p687
I505
sVadjunct-comp-conjunct-adjunct-conjunct
p688
I1216
sVsubj-app-ne
p689
I161
sVcomp-adjunct_rc-comp-adjunct-comp
p690
I596
sVconjunct-obj-adjunct-comp-adjunct-mwe
p691
I815
sVcomp_fin-adjunct-pd-adjunct
p692
I1165
sVcomp_fin-comp_inf-obj-adjunct
p693
I740
sVadjunct-obj-adjunct-punct
p694
I807
sVapp-ne-app-adjunct-app-adjunct
p695
I1023
sVcomp_fin-refl
p696
I298
sVadjunct-comp_fin-comp_ag-comp-adjunct
p697
I516
sVcomp-comp_fin-comp_inf-obj_th-adjunct-obj-adjunct-conjunct-adjunct-mwe-comp-obj-adjunct
p698
I933
sVadjunct_qt-adjunct-comp-adjunct-comp-adjunct
p699
I506
sVcomp-conjunct-obj_th-conjunct-adjunct-comp-adjunct-conjunct-adjunct
p700
I856
sVadjunct-conjunct-comp_fin-conjunct-comp
p701
I1175
sVadjunct-comp-adjunct-comp-conjunct
p702
I678
sVadjunct-comp_fin-comp
p703
I705
sVadjunct-adjunct_qt-obj-adjunct-adjunct_rc-adjunct-punct
p704
I970
sVadjunct-comp_inf-adjunct-comp
p705
I977
sVadjunct-ne
p706
I154
sVapp-ne-app-adjunct-app-punct
p707
I1022
sVconjunct-adjunct-comp-adjunct-obj-adjunct-comp-adjunct
p708
I1094
sVadjunct-mwe-comp-obj
p709
I906
sVcomp-comp_fin-comp
p710
I1298
sVobj-adjunct-comp-adjunct-comp-adjunct
p711
I713
sVobj_th-comp-comp_fin-comp_inf-obj
p712
I477
sVcomp_inf-obj-adjunct_rc-comp_inf
p713
I697
sVsubj-adjunct-comp-adjunct-comp-adjunct
p714
I1076
sVconjunct-comp_fin-obj-adjunct-comp
p715
I835
sVadjunct-comp_fin-adjunct-comp_fin-adjunct
p716
I348
sVsubj-conjunct
p717
I253
sVadjunct_rc-adjunct_qt-adjunct
p718
I549
sVapp-adjunct-app-punct
p719
I1021
sVcomp_fin-comp_inf-adjunct-comp-adjunct
p720
I758
sVmwe-comp-adjunct-comp-adjunct_rc-adjunct_qt-adjunct
p721
I575
sVcomp-conjunct-obj_th-conjunct-punct
p722
I862
sVsubj-conjunct-subj-adjunct_rc-adjunct
p723
I1289
sVroot-comp_fin
p724
I146
sVadjunct_qt-obj-adjunct-punct
p725
I1048
sVconjunct-adjunct-mwe
p726
I60
sVobj-conjunct-comp
p727
I779
sVne-adjunct-conjunct-ne
p728
I989
sVcomp_fin-conjunct-subj
p729
I223
sVpd-pre_coord-mwe
p730
I1051
sVadjunct_rc-obj
p731
I947
sVcomp-adjunct-conjunct-app-punct
p732
I670
sVcomp-adjunct-mwe
p733
I274
sVadjunct-punct-root-adjunct-app-adjunct-punct
p734
I431
sVadjunct-obj-adjunct-obj
p735
I646
sVconjunct-comp_fin-conjunct-adjunct
p736
I1187
sVconjunct-adjunct-comp-adjunct-obj
p737
I1093
sVobj-adjunct-comp-comp_fin
p738
I741
sVadjunct-adjunct_rc
p739
I972
sVadjunct-conjunct-adjunct-comp
p740
I669
sVadjunct-comp-adjunct-obj_th-adjunct-root-subj-punct
p741
I491
sVadjunct-comp-ne-comp
p742
I425
sVcomp_fin-subj-adjunct-conjunct-punct
p743
I1041
sVconjunct-adjunct-comp-adjunct-obj-adjunct-comp
p744
I1088
sVcomp-comp_fin-adjunct
p745
I105
sVcomp_ag-comp-app-punct
p746
I822
sVobj_th-comp-comp_fin-refl
p747
I484
sVadjunct-comp-adjunct_rc-adjunct_qt-adjunct-comp-adjunct-comp
p748
I550
sVconjunct-comp_fin-conjunct-subj-adjunct-comp
p749
I1191
sVadjunct-subj-conjunct
p750
I1256
sVobj-app-punct
p751
I958
sVcomp-comp_fin-adjunct-comp_fin-adjunct-comp_fin-adjunct
p752
I340
sVadjunct-comp_fin-pd
p753
I292
sVcomp-adjunct-comp-conjunct
p754
I680
sVconjunct-adjunct-mwe-comp
p755
I392
sVne-app-punct
p756
I982
sVsubj-conjunct-adjunct-comp
p757
I1171
sVsubj-punct
p758
I76
sVcomp-comp_fin-obj
p759
I113
sVpd-adjunct-comp-ne
p760
I322
sVapp-adjunct-conjunct-adjunct_qt-adjunct-conjunct-ne
p761
I1007
sVconjunct-obj-adjunct-obj
p762
I1309
sVadjunct-root-comp-adjunct-punct
p763
I1034
sVobj-adjunct-conjunct-adjunct-mwe
p764
I938
sVobj-punct
p765
I504
sVobj-adjunct_rc-comp_inf
p766
I698
sVcomp_inf-adjunct-obj-adjunct
p767
I805
sVcomp_inf-aux
p768
I915
sVcomp_fin-subj-punct
p769
I150
sVadjunct-comp-adjunct-conjunct-adjunct-comp
p770
I677
sVobj-adjunct-comp_inf-obj-conjunct-comp
p771
I780
sVconjunct-pd-adjunct-comp
p772
I873
sVmwe-comp_fin-neg
p773
I147
sVobj-adjunct-app-punct
p774
I1251
sVsubj-app-adjunct-mwe
p775
I97
sVsubj-adjunct_rc-adjunct
p776
I1154
sVobj-adjunct-conjunct-adjunct
p777
I170
sVcomp
p778
I7
sVcomp_ag-comp-adjunct-comp
p779
I821
sVadjunct_rc-adjunct-comp
p780
I1274
sVadjunct-comp_fin-adjunct
p781
I295
sVadjunct-mwe-comp-adjunct-ne
p782
I186
sVcomp_inf-adjunct-obj
p783
I802
sVadjunct_qt-comp-adjunct-conjunct
p784
I263
sVconjunct-obj_th-conjunct-adjunct-comp-adjunct-conjunct-adjunct
p785
I857
sVroot-conjunct-adjunct_rc-punct
p786
I311
sVne-app-adjunct-app-adjunct-conjunct-adjunct_qt
p787
I1027
sVabbrev_punct
p788
I8
sVsubj-adjunct-comp-adjunct-app-adjunct-comp-adjunct
p789
I652
sVobj-conjunct-ne
p790
I176
sVapp-ne-abbrev_punct
p791
I10
sVadjunct-comp_fin-subj-adjunct
p792
I1040
sVcomp-comp_fin-comp_inf-comp-adjunct
p793
I409
sVobj-comp
p794
I382
sVcomp-obj-adjunct
p795
I488
sVconjunct-comp_inf-comp-comp_fin
p796
I1304
sVadjunct-obj_th
p797
I532
sVcomp-conjunct-comp_fin
p798
I362
sVpd-adjunct-comp
p799
I457
sVconjunct-obj_th-conjunct-punct
p800
I863
sVadjunct-obj_th-adjunct-punct
p801
I536
sVobj_th-adjunct-comp-conjunct-adjunct-conjunct-ne
p802
I1215
sVpd-adjunct_compar-comp-adjunct
p803
I1199
sVne-app-adjunct-app
p804
I1030
sVadjunct-conjunct-comp_fin-obj
p805
I1184
sVcomp_fin-subj-adjunct-neg
p806
I1080
sVobj-app-adjunct_rc-punct
p807
I952
sVne-app-adjunct
p808
I984
sVadjunct-comp-conjunct-adjunct
p809
I193
sVadjunct-comp-adjunct_rc-adjunct_qt
p810
I602
sVcomp_inf-obj_th-adjunct-obj-adjunct-conjunct-obj-adjunct
p811
I911
sVapp-ne-app-adjunct-app-adjunct-conjunct-adjunct_qt-adjunct-conjunct
p812
I1019
sVadjunct-app
p813
I290
sVcomp_ag-comp-app-ne
p814
I824
sVconjunct-subj-comp-comp_fin-conjunct-adjunct-mwe
p815
I64
sVadjunct-comp-adjunct-comp-ne-adjunct
p816
I285
sVsubj-comp_ag-comp-adjunct
p817
I890
sVsubj-adjunct-pd
p818
I241
sVobj_th-comp-punct
p819
I469
sVcomp_inf-obj-adjunct-mwe-comp-adjunct-comp
p820
I1235
sVconjunct-obj_th-adjunct-comp-adjunct
p821
I256
sVsubj-adjunct-abbrev_punct
p822
I608
sVconjunct-adjunct-obj-adjunct-comp
p823
I641
sVcomp-comp_inf-comp-adjunct-abbrev_punct
p824
I844
sVadjunct-comp_ag-comp-abbrev_punct
p825
I1107
sVadjunct-subj-mwe
p826
I716
sVadjunct-mwe-abbrev_punct
p827
I419
sVcomp-adjunct-comp-ne-adjunct-comp
p828
I280
sVcomp_fin-conjunct-adjunct-mwe
p829
I61
sVadjunct-comp_inf-obj-conjunct-comp
p830
I777
sVadjunct-subj-conjunct-subj-adjunct_rc-adjunct-conjunct
p831
I1281
sVadjunct_qt-conjunct-adjunct
p832
I354
sVapp-adjunct-app-adjunct-conjunct-adjunct_qt-punct
p833
I997
sVpd-adjunct-comp-abbrev_punct
p834
I453
sVconjunct-obj-adjunct-subj
p835
I1310
sVne-app-adjunct-app-adjunct-conjunct-adjunct_qt-adjunct-conjunct-punct
p836
I1013
sVcomp_fin-pd-conjunct
p837
I1134
sVapp-ne-app-adjunct-punct
p838
I979
sVcomp-comp_fin-comp_inf
p839
I742
sVcomp-comp_fin-adjunct-mwe-comp-adjunct
p840
I1240
sVconjunct-app
p841
I416
sVadjunct-comp-adjunct_rc-adjunct_qt-adjunct
p842
I594
sVapp-ne-app-adjunct-app-adjunct-conjunct-adjunct_qt
p843
I1026
sVadjunct-comp-conjunct-adjunct-conjunct-adjunct
p844
I1217
sVadjunct-comp-conjunct-app
p845
I507
sVapp-adjunct-comp-conjunct-adjunct
p846
I619
sVadjunct-subj-conjunct-subj
p847
I1272
sVcomp_inf-obj-adjunct-mwe
p848
I1234
sVadjunct-comp-comp_fin-adjunct
p849
I107
sVsubj-adjunct-mwe
p850
I260
sVobj-adjunct-comp-comp_fin-subj
p851
I755
sVobj-app-adjunct_rc-subj
p852
I956
sVobj-adjunct-app-ne
p853
I1252
sVcomp_inf-pd-adjunct-punct
p854
I626
sVadjunct-obj_th-adjunct-comp
p855
I527
sVobj-mwe
p856
I383
sVadjunct-conjunct-adjunct-comp_fin-conjunct-adjunct_rc-comp_inf-obj-comp_fin-punct
p857
I1117
sVadjunct-mwe-comp-adjunct-conjunct-comp-adjunct
p858
I185
sVconjunct-subj-comp-comp_fin-conjunct-obj_th-punct
p859
I52
sVcomp-comp_fin-comp_inf-obj_th-adjunct-obj-adjunct
p860
I928
sVobj-adjunct-mwe-comp-adjunct-comp-adjunct
p861
I726
sVadjunct-comp_fin-adjunct-comp_fin-adjunct-punct
p862
I327
sVcomp-comp_ag
p863
I636
sVpd
p864
I131
sVcomp-comp_fin-adjunct-mwe-comp
p865
I1243
sVadjunct-adjunct_qt-comp
p866
I969
sVsubj-adjunct-subj-conjunct-subj
p867
I1271
sVconjunct-adjunct-conjunct
p868
I250
sVsubj-adjunct-obj
p869
I827
sVconjunct-comp_ag-comp-adjunct
p870
I222
sVconjunct-adjunct-obj-adjunct-ne
p871
I811
sVcomp_inf-comp-conjunct-adjunct
p872
I365
sVconjunct-obj_th-comp-comp_fin-refl
p873
I474
sVcomp-adjunct_rc-adjunct_qt-adjunct-comp-adjunct-comp
p874
I546
sVobj-conjunct-adjunct
p875
I89
sVobj-adjunct-comp-comp_inf-adjunct
p876
I849
sVconjunct-comp-adjunct-refl
p877
I1152
sVcomp-app
p878
I818
sVadjunct-app-adjunct-comp-conjunct
p879
I624
sVcomp_fin-adjunct-comp-adjunct
p880
I1181
sVcomp-adjunct
p881
I2
sVadjunct-mwe-subj-mwe-app-conjunct-mwe
p882
I660
sVcomp_fin-adjunct-comp_fin-adjunct-comp_fin
p883
I346
sVsubj-conjunct-subj-adjunct_rc-adjunct-comp
p884
I1273
sVcomp-adjunct-comp
p885
I115
sVsubj-adjunct-subj-conjunct-adjunct-mwe-comp
p886
I1149
sVroot-adjunct-app-punct
p887
I433
sVcomp-adjunct-comp-adjunct-conjunct-adjunct
p888
I671
sVcomp-subj-adjunct
p889
I880
sVadjunct-comp-comp_fin-pd-conjunct-obj-ne
p890
I1128
sVapp-adjunct_rc-subj
p891
I950
sVcomp_inf-comp-adjunct-comp-adjunct
p892
I403
sVadjunct_qt-comp_inf
p893
I461
sVcomp-adjunct-comp-adjunct-comp-adjunct
p894
I763
sVadjunct-subj-obj
p895
I429
sVadjunct-conjunct-adjunct-conjunct-adjunct-punct
p896
I1118
sVadjunct-comp-comp_fin-subj-adjunct-punct
p897
I1054
sVconjunct-obj-comp
p898
I381
sVcomp_fin-conjunct-adjunct-comp
p899
I14
sVadjunct-comp-adjunct_rc-adjunct_qt-adjunct-comp
p900
I563
sVcomp_inf-comp-conjunct-comp_fin-aux
p901
I358
sVadjunct-obj_th-adjunct-comp-adjunct-comp-obj-adjunct-comp
p902
I533
sVcomp_fin-adjunct-comp_fin-adjunct-comp_fin-subj
p903
I329
sVobj-adjunct_compar
p904
I1247
sVconjunct-comp_fin-obj-adjunct-comp-comp_inf-adjunct
p905
I848
sVcomp_fin-comp_ag-comp
p906
I518
sVconjunct-comp_inf-comp-conjunct
p907
I375
sVcomp-comp_fin-refl
p908
I486
sVcomp-conjunct-comp_fin-aux
p909
I359
sVconjunct-obj-adjunct-comp-adjunct
p910
I172
sVobj-adjunct-comp-punct
p911
I744
sVconjunct-obj-conjunct
p912
I93
sVcomp-conjunct
p913
I184
sVcomp_inf-refl
p914
I259
sVconjunct-comp_fin-obj-adjunct-comp-comp_inf-comp-adjunct-abbrev_punct
p915
I845
sVcomp-comp_fin-conjunct-adjunct
p916
I55
sVmwe-comp_fin-subj
p917
I139
sVadjunct-adjunct_qt-obj-adjunct-subj-adjunct
p918
I968
sVconjunct-obj_th-comp-comp_fin
p919
I472
sVcomp_inf-obj_th-adjunct-obj-adjunct-conjunct-obj
p920
I925
sVadjunct-obj_th-obj
p921
I127
sVpd-mwe-adjunct_rc-adjunct
p922
I130
sVconjunct-comp-comp_fin-adjunct
p923
I1068
sVcomp_fin-adjunct-comp_fin-adjunct-comp_fin-adjunct
p924
I347
sVadjunct-comp-adjunct-comp-ne-adjunct-comp
p925
I279
sVpd-root
p926
I307
sVconjunct-adjunct-comp-adjunct-obj-adjunct
p927
I1096
sVcond
p928
I31
sVrefl
p929
I199
sVcomp_fin-comp_inf
p930
I471
sVadjunct-subj-comp-adjunct
p931
I718
sVadjunct-obj-adjunct-conjunct-obj-adjunct
p932
I900
sVne
p933
I11
sVobj_th-comp
p934
I483
sVobj-app-adjunct_rc
p935
I954
sVadjunct_compar-comp-adjunct-mwe-comp
p936
I1071
sVcomp_fin-comp_ag-comp-adjunct
p937
I515
sVconjunct-item
p938
I249
sVcomp-adjunct-comp-adjunct_rc-comp-adjunct
p939
I592
sVadjunct-conjunct-adjunct-comp_fin-conjunct-adjunct_rc-comp_inf-obj-comp_fin-adjunct-conjunct-adjunct_rc-pd-comp-conjunct-subj-adjunct-conjunct-adjunct-comp_fin-conjunct-obj
p940
I1123
sVmwe-adjunct_compar
p941
I613
sVcomp-mwe
p942
I1220
sVconjunct-obj-app
p943
I1124
sVsubj-adjunct_rc-obj-adjunct
p944
I728
sVadjunct-comp_ag
p945
I118
sVadjunct-root
p946
I688
sVobj_th-adjunct-comp
p947
I254
sVcomp_inf-comp
p948
I402
sVcomp-adjunct-subj
p949
I760
sVadjunct-comp-adjunct_rc-comp-adjunct-comp
p950
I595
sVconjunct-comp_fin-obj-adjunct-obj
p951
I838
sVcomp-comp_inf-obj-adjunct-comp_ag-comp
p952
I852
sVconjunct-obj-mwe
p953
I386
sVapp-adjunct
p954
I81
sVcomp_fin-obj_th-comp-adjunct-punct
p955
I776
sVcomp-comp_fin
p956
I19
sVmwe-adjunct-mwe-adjunct_compar
p957
I610
sVcomp-comp_fin-comp_inf-obj_th-adjunct-subj
p958
I919
sVconjunct-refl
p959
I200
sVcomp-subj-adjunct-conjunct
p960
I875
sVsubj-comp-comp_fin-conjunct-subj
p961
I34
sVadjunct-comp-comp_fin-comp_inf-obj-adjunct
p962
I756
sVconjunct-adjunct-comp-punct
p963
I1109
sVsubj-app-punct
p964
I82
sVcomp-comp_fin-comp_inf-obj_th-adjunct-obj-adjunct-conjunct-adjunct-mwe-comp-obj
p965
I896
sVadjunct-comp-adjunct-obj
p966
I1098
sVcomp_ag-comp-abbrev_punct
p967
I1103
sVsubj-adjunct_rc-adjunct-conjunct
p968
I1278
sVcomp_fin-comp_inf-comp-adjunct-comp-adjunct
p969
I408
sVconjunct-subj-comp-comp_fin-conjunct-subj
p970
I33
sVadjunct-conjunct-adjunct-conjunct
p971
I676
sVcomp_inf-comp-conjunct-comp_fin-subj
p972
I374
sVsubj-adjunct_rc-subj-adjunct
p973
I829
sVcomp-comp_fin-aux
p974
I721
sVne-app-adjunct-app-adjunct-conjunct-adjunct_qt-adjunct-conjunct
p975
I1020
sVadjunct-comp-adjunct-comp-obj-adjunct-comp
p976
I535
sVadjunct_rc-subj
p977
I315
sVcomp-comp_fin-conjunct-adjunct-comp-adjunct
p978
I344
sVadjunct-comp_fin-obj
p979
I1140
sVcomp-conjunct-obj_th-conjunct-adjunct-comp-adjunct
p980
I859
sVcomp_inf-obj_th-adjunct-obj-adjunct-conjunct-adjunct-mwe
p981
I921
sVadjunct-adjunct_compar-mwe-adjunct
p982
I662
sVadjunct-app-ne
p983
I417
sVcomp-subj-adjunct-conjunct-pd-adjunct-comp-adjunct
p984
I878
sVobj-comp_fin-adjunct-subj
p985
I1158
sVadjunct-comp-adjunct-abbrev_punct
p986
I1092
sVcomp_fin-adjunct-mwe-comp
p987
I1244
sVsubj-comp-comp_fin-conjunct-adjunct-mwe
p988
I62
sVcomp-adjunct-comp_inf-obj-adjunct
p989
I1225
sVmwe-comp-adjunct-comp-adjunct_rc-adjunct_qt-adjunct-comp-adjunct-comp
p990
I554
sVsubj-adjunct-comp-adjunct-punct
p991
I181
sVcomp_inf-pd-adjunct-obj-adjunct
p992
I630
sVadjunct-obj_th-adjunct-comp-adjunct-comp
p993
I537
sVconjunct-comp-comp_fin-obj_th
p994
I1067
sVcomp-comp_fin-subj-comp-adjunct
p995
I930
sVcomp_fin-conjunct-adjunct-mwe-comp-adjunct
p996
I54
sVsubj-adjunct-conjunct-app-punct
p997
I945
sVcomp-adjunct-comp-adjunct_rc-adjunct_qt-adjunct
p998
I576
sVadjunct-pd-adjunct-comp-adjunct
p999
I544
sVpd-adjunct-obj
p1000
I454
sVcomp_inf-pd-adjunct-subj
p1001
I628
sVadjunct-comp-comp_inf-comp-adjunct-comp-adjunct
p1002
I839
sVcomp-adjunct-subj-adjunct_rc-punct
p1003
I732
sVpd-comp
p1004
I169
sVpd-conjunct-obj-ne
p1005
I1135
sVobj-adjunct-subj-adjunct
p1006
I962
sVobj_th-adjunct-conjunct-adjunct
p1007
I318
sVsubj-adjunct-mwe-subj-mwe-comp
p1008
I653
sVcomp_fin-obj_th-adjunct
p1009
I1045
sVadjunct-app-adjunct-conjunct-adjunct_qt-punct
p1010
I1002
sVconjunct-abbrev_punct
p1011
I198
sVadjunct-conjunct-app-punct
p1012
I415
sVsubj-adjunct-subj-conjunct
p1013
I1257
sVconjunct-aglt
p1014
I1130
sVadjunct-obj_th-adjunct-comp-adjunct
p1015
I538
sVroot-comp_fin-subj-adjunct
p1016
I141
sVsubj-conjunct-subj-adjunct
p1017
I1275
sVcomp-adjunct-comp-adjunct-comp
p1018
I555
sVadjunct-subj-conjunct-adjunct
p1019
I1143
sVadjunct_qt-adjunct-pd-adjunct
p1020
I501
sVconjunct-adjunct_rc-punct
p1021
I312
sVcomp-conjunct-adjunct-comp
p1022
I1208
sVadjunct_rc-obj-adjunct
p1023
I731
sVadjunct-comp_inf
p1024
I443
sVadjunct-comp-comp_inf-comp-adjunct-abbrev_punct
p1025
I843
sVne-app-adjunct-app-adjunct
p1026
I1024
sVcomp-adjunct-comp-adjunct-aux
p1027
I888
sVconjunct-subj-adjunct_rc-adjunct-conjunct
p1028
I1287
sVcomp-adjunct-subj-adjunct_rc-adjunct
p1029
I733
sVsubj-adjunct-adjunct_compar-mwe-adjunct
p1030
I657
sVcomp_fin-conjunct
p1031
I39
sVadjunct-comp-adjunct-comp-ne
p1032
I156
sVcomp-comp_fin-comp_inf-obj_th-adjunct-obj-adjunct-conjunct
p1033
I898
sVadjunct_rc-adjunct
p1034
I133
sVcomp_inf-comp-comp_fin-subj
p1035
I1305
sVadjunct-obj-adjunct-ne
p1036
I812
sVapp-adjunct-app-adjunct-conjunct-adjunct_qt-adjunct-conjunct-ne
p1037
I1003
sVcomp-comp_fin-conjunct-neg
p1038
I232
sVpd-mwe
p1039
I440
sVsubj-adjunct-comp-adjunct-comp
p1040
I1075
sVadjunct-aux-neg
p1041
I210
sVcomp_fin-comp_inf-obj_th-adjunct
p1042
I931
sVconjunct-adjunct-comp-comp_fin-conjunct-neg
p1043
I231
sNI0
sVobj-conjunct-subj-adjunct
p1044
I1056
sVcomp-comp_fin-adjunct-comp_fin-adjunct
p1045
I334
sVcomp-adjunct-conjunct-adjunct
p1046
I266
sVadjunct_rc-comp
p1047
I597
sVsubj-comp-comp_fin-conjunct-adjunct-comp
p1048
I16
sVconjunct-comp-ne
p1049
I1204
sVobj-comp_fin-subj
p1050
I1160
sVaglt
p1051
I459
sVapp-adjunct-mwe-comp-adjunct
p1052
I83
sVadjunct-app-adjunct-mwe
p1053
I289
sVadjunct-conjunct-comp_fin-conjunct-adjunct
p1054
I1186
sVcomp_inf-adjunct-obj-comp-adjunct
p1055
I800
sVcomp_fin-neg
p1056
I135
sVne-app-adjunct-app-adjunct-conjunct-adjunct_qt-punct
p1057
I996
sVpd-adjunct-comp-adjunct
p1058
I545
sVobj_th
p1059
I159
sVsubj-adjunct-mwe-subj-mwe
p1060
I654
sVobj-adjunct-conjunct-refl
p1061
I916
sVadjunct-app-adjunct-comp-adjunct
p1062
I620
sVapp-adjunct_rc-punct
p1063
I951
sVadjunct-comp_fin-adjunct-comp
p1064
I335
sVconjunct-adjunct-comp_inf
p1065
I442
sVsubj-comp-comp_fin-conjunct-cond
p1066
I67
sVobj_th-adjunct-comp-adjunct-comp-obj-adjunct-comp
p1067
I534
sVadjunct-comp_fin-subj
p1068
I291
sVadjunct-subj-conjunct-subj-adjunct
p1069
I1262
sVcomp-comp_fin-comp_inf-obj
p1070
I478
sVobj-adjunct-comp_ag-comp
p1071
I851
sVconjunct-comp_ag
p1072
I219
sVcomp-comp_fin-adjunct-comp_fin-adjunct-comp_fin
p1073
I345
sVobj-comp_fin-adjunct
p1074
I1156
sVobj_th-adjunct-conjunct
p1075
I319
sVobj-adjunct_rc-comp_inf-obj_th-adjunct
p1076
I690
sVconjunct-adjunct-comp-adjunct-comp
p1077
I1038
sVcomp_inf-adjunct-comp_fin-subj
p1078
I1141
sVadjunct_qt-neg
p1079
I462
sVcomp-adjunct_rc-comp-adjunct
p1080
I603
sVconjunct-comp_fin-obj-adjunct-obj-conjunct-adjunct
p1081
I854
sVobj_th-adjunct-obj-adjunct-conjunct-obj
p1082
I926
sVcomp-comp_fin-adjunct-subj
p1083
I1241
sVadjunct_rc-adjunct_qt-adjunct-comp
p1084
I565
sVcomp_fin-adjunct-punct
p1085
I349
sVconjunct-comp-adjunct-obj
p1086
I201
sVadjunct-comp-adjunct-obj-adjunct-comp
p1087
I1090
sVadjunct-mwe
p1088
I59
sVroot-comp_fin-adjunct
p1089
I773
sVcomp-ne-abbrev_punct
p1090
I437
sVcomp_inf-adjunct-punct
p1091
I946
sVadjunct_rc-adjunct-conjunct-comp
p1092
I1282
sVadjunct-comp_fin-aux
p1093
I513
sVmwe-abbrev_punct
p1094
I420
sVcomp-comp_fin-comp_inf-adjunct
p1095
I466
sVadjunct-mwe-comp-punct
p1096
I189
sVcomp_inf-obj_th-adjunct-obj-adjunct-conjunct
p1097
I902
sVconjunct-comp_ag-comp
p1098
I221
sVadjunct-conjunct-app
p1099
I944
sVapp-ne-adjunct-conjunct
p1100
I985
sVconjunct-subj-comp-comp_fin-conjunct
p1101
I47
sVcomp-app-punct
p1102
I823
sVsubj-conjunct-adjunct-mwe
p1103
I1144
sVapp-adjunct-app-adjunct-conjunct-adjunct_qt-adjunct-conjunct-punct
p1104
I1015
sVadjunct-comp_fin-refl
p1105
I297
sVadjunct-comp-adjunct_rc
p1106
I581
sVconjunct-adjunct-mwe-comp-obj
p1107
I905
sVcomp-comp_fin-subj
p1108
I753
sVconjunct-adjunct-obj-adjunct-punct
p1109
I808
sVroot-subj
p1110
I1173
sVadjunct-comp_inf-obj-adjunct
p1111
I1226
sVconjunct-subj-adjunct_rc-punct
p1112
I1259
sVsubj-adjunct-comp-adjunct-comp-ne
p1113
I650
sVobj-conjunct-adjunct-punct
p1114
I806
sVsubj-adjunct-mwe-adjunct
p1115
I651
sVcomp_fin-conjunct-obj_th-punct
p1116
I42
sVcomp_inf-obj-adjunct_rc-subj
p1117
I703
sVconjunct-obj_th-adjunct
p1118
I257
sVadjunct_compar-punct
p1119
I1072
sVadjunct-comp_fin-punct
p1120
I296
sVcomp-punct
p1121
I50
sVroot-comp_fin-adjunct-mwe
p1122
I767
sVobj-adjunct-comp-comp_fin-comp_inf-obj
p1123
I748
sVobj-adjunct-mwe-comp-adjunct-comp
p1124
I724
sVadjunct-pd-adjunct-comp
p1125
I543
sVroot-comp-punct
p1126
I1035
sVcomp_fin-aux
p1127
I355
sVcomp_inf-obj_th-adjunct-obj-adjunct-conjunct-refl
p1128
I912
sVconjunct-adjunct-comp-adjunct-comp-adjunct
p1129
I270
sVsubj-adjunct-subj-conjunct-obj_th
p1130
I1263
sVobj-adjunct-mwe-comp
p1131
I727
sVcomp-ne-conjunct
p1132
I277
sVobj_th-adjunct-comp-conjunct-comp-ne
p1133
I1214
sVcomp-comp_fin-pd-pre_coord-mwe
p1134
I1052
sVadjunct-obj-comp-adjunct
p1135
I801
sVadjunct_rc-comp_inf
p1136
I699
sVobj_th-adjunct-subj
p1137
I540
sVpd-adjunct
p1138
I239
sVcomp-comp_fin-pd-conjunct-obj-ne
p1139
I1132
sVconjunct-comp-comp_fin-adjunct-ne
p1140
I1066
sVadjunct_qt-obj-adjunct-adjunct_rc-adjunct
p1141
I963
sVconjunct-comp-comp_ag-comp-adjunct
p1142
I638
sVconjunct-adjunct-mwe-comp-adjunct
p1143
I25
sVsubj-adjunct-conjunct-adjunct-comp
p1144
I885
sVconjunct-subj-adjunct_rc-adjunct
p1145
I1155
sVcomp_fin-comp_inf-obj_th-adjunct-obj-adjunct-conjunct-adjunct-mwe-comp-obj-adjunct
p1146
I934
sVcomp-abbrev_punct
p1147
I72
sVcomp-adjunct_rc-adjunct
p1148
I571
sVadjunct-conjunct-comp_fin-adjunct-punct
p1149
I1197
sVadjunct-comp_fin-subj-adjunct-subj-adjunct
p1150
I1086
sVobj-adjunct-mwe
p1151
I722
sVsubj-comp-ne
p1152
I436
sVobj_th-comp-comp_fin
p1153
I473
sVcomp_fin-adjunct
p1154
I106
sVadjunct-mwe-adjunct_compar
p1155
I612
sVcomp-comp_fin-conjunct-cond
p1156
I68
sVcomp_fin-pd
p1157
I148
sVconjunct-adjunct-conjunct-adjunct
p1158
I682
sVroot-comp-adjunct
p1159
I1033
sVapp-adjunct-conjunct-adjunct_qt
p1160
I1025
sVcomp-adjunct_rc-adjunct_qt-adjunct-comp
p1161
I564
sVsubj-adjunct-subj-conjunct-subj-adjunct
p1162
I1258
sVconjunct-adjunct-comp-adjunct-abbrev_punct
p1163
I1089
sVadjunct_rc-adjunct-conjunct
p1164
I1279
sVadjunct-comp-adjunct-mwe
p1165
I99
sVconjunct-subj-comp-comp_fin-conjunct-obj
p1166
I65
sVcomp-subj-adjunct-conjunct-pd-adjunct
p1167
I879
sVcomp_fin-subj-adjunct-punct
p1168
I1050
sVadjunct_rc-comp_inf-obj_th-adjunct
p1169
I700
sVadjunct_rc-comp_inf-obj-comp_fin-punct
p1170
I1115
sVobj-comp_fin-subj-adjunct
p1171
I1161
sVcomp_fin-subj-adjunct-comp_ag-comp-adjunct
p1172
I1111
sVapp-ne-app-adjunct
p1173
I980
sVroot-punct
p1174
I1174
sVcomp_inf-adjunct-mwe-comp
p1175
I1224
sVapp-adjunct-comp
p1176
I492
sVsubj-adjunct-pd-adjunct
p1177
I244
sVcomp-comp_fin-conjunct-adjunct-mwe-comp
p1178
I49
sVconjunct-comp_inf-comp-conjunct-mwe
p1179
I366
sVobj-adjunct-comp-comp_fin-comp_inf-obj-adjunct
p1180
I738
sVadjunct-comp_inf-adjunct-comp-adjunct
p1181
I976
sVcomp_inf-root-adjunct-comp
p1182
I781
sVadjunct-comp-ne-adjunct-comp
p1183
I286
sVadjunct-mwe-comp-adjunct-comp-ne
p1184
I1238
sVobj-conjunct
p1185
I94
sVcomp-adjunct-comp-obj-adjunct-comp-adjunct
p1186
I520
sVadjunct-conjunct-adjunct_qt-adjunct-conjunct-ne
p1187
I1004
sVobj_th-conjunct-punct
p1188
I864
sVcomp-adjunct_rc-adjunct_qt
p1189
I601
sVcomp_inf-comp-conjunct-comp_fin
p1190
I361
sVcomp-adjunct-conjunct
p1191
I100
sVcomp-conjunct-punct
p1192
I371
sVne-punct
p1193
I435
sVcomp-adjunct-comp-adjunct
p1194
I404
sVcomp_inf-comp-conjunct
p1195
I364
sVcomp_inf-comp-adjunct-abbrev_punct
p1196
I840
sVconjunct-adjunct-conjunct-ne
p1197
I1202
sVadjunct-conjunct-comp_fin-adjunct-comp
p1198
I1177
sVconjunct-neg
p1199
I889
sVadjunct-conjunct-obj-mwe
p1200
I385
sVadjunct-comp_fin-comp_ag-comp
p1201
I517
sVcomp_fin-obj-adjunct-obj
p1202
I836
sVcomp_fin-conjunct-adjunct_rc-comp_inf-obj-comp_fin
p1203
I1116
sVcomp-conjunct-adjunct-conjunct-ne
p1204
I1205
sVpunct-subj-adjunct-pd-adjunct
p1205
I238
sVadjunct-comp-adjunct
p1206
I3
sVcomp_fin-obj
p1207
I831
sVadjunct-comp_fin-subj-adjunct-neg
p1208
I1083
sVconjunct-pd-root-conjunct-adjunct_rc-punct
p1209
I309
sVobj-comp_fin-adjunct-subj-comp
p1210
I1166
sVpd-comp-adjunct
p1211
I391
sVne-app-adjunct-abbrev_punct
p1212
I999
sVadjunct-pd-comp-adjunct-punct
p1213
I388
sVadjunct-ne-abbrev_punct
p1214
I764
sVcomp-subj-adjunct-conjunct-pd
p1215
I868
sVadjunct-neg
p1216
I1082
sVadjunct-obj-adjunct-comp
p1217
I642
sVobj-adjunct-comp-conjunct
p1218
I1101
sVcomp_fin-obj_th
p1219
I1046
sVcomp-comp_fin-conjunct
p1220
I38
sVconjunct-comp-adjunct-comp_inf-adjunct-mwe
p1221
I1227
sVcomp_fin-comp_ag-punct
p1222
I512
sVcomp_inf-obj_th-adjunct
p1223
I691
sVadjunct-root-comp-adjunct
p1224
I1032
sVconjunct-adjunct
p1225
I30
sVconjunct-comp-obj
p1226
I639
sVsubj-adjunct-ne
p1227
I398
sVcomp-comp_fin-comp_inf-obj_th-adjunct
p1228
I937
sVadjunct-conjunct-pd
p1229
I869
sVcomp-obj
p1230
I235
sVcomp_inf-obj-adjunct-mwe-comp-adjunct-comp-ne
p1231
I1236
sVapp-adjunct-conjunct-adjunct_qt-adjunct-conjunct
p1232
I1016
sVadjunct-comp-obj-adjunct
p1233
I524
sVcomp-comp_fin-obj_th
p1234
I1065
sVconjunct-adjunct-comp-ne
p1235
I814
sVcomp_fin-conjunct-neg
p1236
I229
sVne-adjunct-comp
p1237
I278
sVsubj-conjunct-comp
p1238
I1255
sVsubj-conjunct-subj
p1239
I1270
sVcomp-comp_fin-comp_inf-comp
p1240
I405
sVcomp_inf-comp-comp_fin-comp
p1241
I1302
sVcomp-conjunct-obj_th-conjunct
p1242
I865
sVobj_th-adjunct-comp-adjunct-comp-obj-adjunct-comp-adjunct
p1243
I519
sVadjunct_qt-obj-adjunct-aux
p1244
I964
sVsubj
p1245
I5
sVconjunct-comp_fin-conjunct-subj-adjunct
p1246
I1195
sVobj-adjunct_compar-comp
p1247
I1246
sVadjunct-subj-conjunct-subj-adjunct_rc-punct
p1248
I1261
sVcomp_inf-obj-adjunct_rc-comp_inf-obj_th
p1249
I694
sVadjunct-comp-adjunct-comp-adjunct-comp
p1250
I1292
sVsubj-conjunct-adjunct-comp-ne
p1251
I1170
sVcomp-comp_fin-conjunct-adjunct-mwe-comp-adjunct
p1252
I29
sVadjunct_rc-adjunct_qt
p1253
I600
sVsubj-app
p1254
I74
sVobj_th-adjunct-obj-adjunct-conjunct-obj-adjunct
p1255
I899
sVadjunct_qt-adjunct-comp-conjunct
p1256
I499
sVconjunct-comp_fin-adjunct
p1257
I1180
sVcomp_fin-obj_th-comp
p1258
I775
sVadjunct-comp-adjunct-comp-adjunct-comp-adjunct
p1259
I1291
sVne-adjunct
p1260
I281
sVsubj-adjunct-mwe-subj-mwe-app-conjunct-mwe-adjunct_compar
p1261
I659
sVcomp-adjunct-comp_inf-adjunct-mwe-comp
p1262
I1222
sVcomp_fin-adjunct-comp_fin-adjunct-comp_fin-adjunct-comp
p1263
I337
sVadjunct-pd-comp-obj
p1264
I167
sVconjunct-comp-comp_fin-comp_inf-obj
p1265
I1249
sVadjunct-comp-comp_fin-obj-adjunct
p1266
I114
sVmwe-comp-adjunct-comp-adjunct_rc-comp
p1267
I589
sVconjunct-ne-abbrev_punct
p1268
I541
sVadjunct_qt-adjunct-obj
p1269
I497
sVcomp_inf-pd-adjunct
p1270
I627
sVconjunct-comp-comp_fin
p1271
I1064
sVadjunct-comp-adjunct_rc-punct
p1272
I585
sVobj_th-comp-comp_fin-comp_inf-adjunct
p1273
I465
sVcomp-comp_fin-adjunct-comp_fin-adjunct-punct
p1274
I350
sVobj-adjunct-comp-conjunct-adjunct
p1275
I450
sVcomp-adjunct-comp-adjunct_rc-comp
p1276
I590
sVadjunct-subj-conjunct-adjunct-mwe-comp
p1277
I1142
sVcomp_inf-adjunct-obj-comp
p1278
I803
sVconjunct-comp-comp_fin-subj-adjunct
p1279
I1110
sVconjunct-comp_inf-comp-comp_fin-subj
p1280
I1306
sVsubj-adjunct-obj-conjunct
p1281
I1307
sVsubj-adjunct-comp
p1282
I149
sVadjunct-comp-comp_fin-comp_inf
p1283
I739
sVne-app-adjunct-app-adjunct-conjunct-adjunct
p1284
I1011
sVobj-conjunct-subj
p1285
I1062
sVpd-adjunct_compar-comp
p1286
I1201
sVadjunct-comp_fin-adjunct-punct
p1287
I351
sVcomp_fin-adjunct-comp_fin-adjunct-comp_fin-adjunct-punct
p1288
I341
sVapp-adjunct-conjunct-adjunct_qt-punct
p1289
I994
sVcomp-adjunct_rc-punct
p1290
I586
sVadjunct-abbrev_punct
p1291
I153
sVobj-adjunct-comp-adjunct
p1292
I104
sVadjunct_qt-obj-adjunct-adjunct_rc-adjunct-punct
p1293
I966
sVconjunct-comp_inf-comp-conjunct-comp_fin
p1294
I360
sVcomp-comp_fin-adjunct-ne
p1295
I1057
sVcomp-adjunct-comp-adjunct-conjunct-adjunct-conjunct
p1296
I673
sVobj_th-adjunct-comp-adjunct
p1297
I539
sVadjunct_qt-obj-adjunct-comp
p1298
I1047
sVobj-ne
p1299
I494
sVobj-comp_fin
p1300
I1162
sVconjunct-obj_th-conjunct
p1301
I866
sVobj-comp_fin-obj
p1302
I1163
sVadjunct-comp-adjunct-obj-adjunct
p1303
I1095
sVsubj-adjunct-conjunct
p1304
I876
sVobj-comp_fin-adjunct-pd-adjunct
p1305
I1164
sVcomp-comp_fin-subj-adjunct
p1306
I1108
sVadjunct-conjunct-comp_fin-conjunct-subj
p1307
I1198
sVcomp-subj-adjunct-conjunct-pd-adjunct-comp
p1308
I872
sVadjunct_qt-adjunct-comp-adjunct
p1309
I561
sVcomp-comp_fin-comp_inf-obj_th-adjunct-obj-adjunct-conjunct-refl
p1310
I917
sVobj-app-adjunct
p1311
I953
sVadjunct-comp-conjunct-comp-ne
p1312
I1213
sVconjunct-comp_fin-obj
p1313
I1188
sVobj_th-adjunct-comp-conjunct-adjunct-comp
p1314
I1206
sVcomp_fin-pd-adjunct-ne
p1315
I817
sVcomp_inf-comp-comp_fin-refl
p1316
I1294
sVsubj-comp_ag-comp
p1317
I891
sVadjunct-obj_th-adjunct-subj-adjunct
p1318
I528
sVconjunct-comp_fin-conjunct-adjunct-comp
p1319
I1193
sVcomp_fin-pd-mwe-adjunct_rc-punct
p1320
I145
sVsubj-app-adjunct-comp-adjunct-obj_th-adjunct-root-subj-punct
p1321
I490
sVcomp-comp_fin-conjunct-adjunct-comp
p1322
I17
sVobj-adjunct-obj_th
p1323
I1311
sVapp-ne-adjunct
p1324
I993
sVmwe-comp-adjunct-comp-adjunct_rc-adjunct_qt
p1325
I598
sVapp-adjunct-app-adjunct-conjunct-adjunct_qt-adjunct-conjunct
p1326
I1017
sVcomp-subj
p1327
I882
ssVdependency_bag
p1328
(dp1329
Vadjunct,comp,obj,root,subj,
p1330
I475
sVadjunct,comp_fin,neg,obj,root,subj,
p1331
I1018
sVadjunct,adjunct_rc,comp,mwe,root,subj,
p1332
I1309
sVapp,obj,root,subj,
p1333
I425
sVadjunct,conjunct,ne,root,subj,
p1334
I417
sVadjunct,app,comp,comp_ag,root,
p1335
I1242
sVadjunct_rc,comp_inf,obj,root,
p1336
I559
sVadjunct,app,comp,comp_fin,obj,root,
p1337
I66
sVadjunct,comp,comp_fin,conjunct,obj_th,punct,root,
p1338
I1734
sVadjunct_compar,comp,comp_inf,conjunct,obj,pd,root,
p1339
I1371
sVabbrev_punct,adjunct,comp,comp_ag,obj,root,
p1340
I1837
sVadjunct,comp,comp_ag,comp_fin,root,
p1341
I1999
sVadjunct,aux,cond,conjunct,root,
p1342
I2064
sVadjunct,adjunct_qt,comp,comp_fin,mwe,root,
p1343
I100
sVadjunct,comp,comp_inf,conjunct,obj,refl,root,subj,
p1344
I83
sVobj,obj_th,root,
p1345
I1030
sVadjunct,adjunct_compar,comp,comp_fin,conjunct,mwe,obj,root,subj,
p1346
I2076
sVadjunct_qt,conjunct,neg,root,subj,
p1347
I1041
sVcomp_inf,conjunct,neg,root,
p1348
I192
sVadjunct,adjunct_rc,obj,pre_coord,root,
p1349
I416
sVadjunct,conjunct,obj,root,
p1350
I126
sVcomp_fin,conjunct,obj,obj_th,root,subj,
p1351
I1099
sVadjunct,neg,pd,root,
p1352
I1546
sVadjunct,comp,comp_fin,comp_inf,punct,root,
p1353
I1435
sVadjunct,adjunct_rc,comp_fin,comp_inf,conjunct,obj,root,subj,
p1354
I151
sVcomp,comp_inf,conjunct,root,
p1355
I170
sVcomp,comp_fin,
p1356
I816
sVcomp_fin,conjunct,ne,obj_th,root,
p1357
I1815
sVadjunct,app,comp,comp_fin,obj,root,subj,
p1358
I67
sVadjunct,comp,conjunct,ne,obj,root,
p1359
I287
sVadjunct,adjunct_qt,comp,obj,root,
p1360
I954
sVadjunct,adjunct_qt,comp,comp_fin,conjunct,refl,root,subj,
p1361
I1687
sVadjunct,aux,conjunct,refl,root,
p1362
I318
sVadjunct,adjunct_rc,conjunct,pd,root,
p1363
I1644
sVadjunct,comp_inf,root,
p1364
I175
sVadjunct,adjunct_qt,ne,obj_th,root,
p1365
I1831
sVapp,comp,root,
p1366
I1237
sVadjunct_rc,comp,conjunct,mwe,obj_th,punct,root,
p1367
I1294
sVadjunct,aux,comp,root,
p1368
I1477
sVadjunct,adjunct_rc,comp_inf,conjunct,root,subj,
p1369
I1268
sVcomp,comp_fin,conjunct,pd,root,
p1370
I1128
sVadjunct,app,comp_ag,root,subj,
p1371
I1475
sVcomp,mwe,obj,punct,root,
p1372
I1901
sVapp,ne,pd,root,
p1373
I496
sVcomp,obj_th,root,
p1374
I440
sVadjunct,comp,comp_fin,mwe,root,
p1375
I529
sVadjunct,obj_th,pd,root,
p1376
I1412
sVadjunct,app,comp,ne,obj_th,root,subj,
p1377
I1832
sVadjunct,adjunct_rc,comp,comp_inf,punct,root,
p1378
I1218
sVadjunct,adjunct_rc,comp,comp_fin,obj,punct,root,subj,
p1379
I1087
sVadjunct,adjunct_qt,comp,comp_fin,conjunct,punct,root,
p1380
I1630
sVadjunct,aux,pd,root,
p1381
I966
sVadjunct,app,conjunct,obj,punct,root,subj,
p1382
I385
sVadjunct_rc,comp_fin,conjunct,obj,root,
p1383
I1058
sVcomp,comp_fin,pd,root,subj,
p1384
I1070
sVcomp_fin,comp_inf,obj,root,
p1385
I155
sVadjunct,comp_fin,comp_inf,conjunct,pd,root,
p1386
I1875
sVadjunct_rc,comp,comp_fin,obj,root,subj,
p1387
I1624
sVcomp,ne,root,subj,
p1388
I1036
sVaux,conjunct,neg,root,
p1389
I856
sVconjunct,root,subj,
p1390
I53
sVneg,obj,root,
p1391
I1542
sVadjunct_rc,app,conjunct,root,subj,
p1392
I798
sVaux,comp_fin,comp_inf,root,subj,
p1393
I1302
sVadjunct,comp_fin,ne,obj_th,root,
p1394
I2057
sVcomp,comp_fin,comp_inf,neg,root,
p1395
I1528
sVadjunct,adjunct_rc,comp_inf,conjunct,refl,root,
p1396
I1931
sVadjunct_rc,conjunct,obj,pd,root,
p1397
I624
sVadjunct,comp_inf,conjunct,obj,obj_th,punct,root,
p1398
I1282
sVadjunct,adjunct_rc,comp_fin,conjunct,root,subj,
p1399
I1741
sVadjunct,adjunct_rc,obj_th,refl,root,
p1400
I1273
sVadjunct,comp,conjunct,mwe,root,subj,
p1401
I464
sVadjunct,comp,obj,obj_th,root,
p1402
I674
sVcomp_inf,root,
p1403
I47
sVcomp,comp_fin,subj,
p1404
I818
sVadjunct_compar,conjunct,punct,root,
p1405
I898
sVcomp,
p1406
I808
sVadjunct,comp_fin,conjunct,obj,obj_th,root,
p1407
I1121
sVadjunct,comp,comp_fin,obj_th,punct,root,subj,
p1408
I732
sVadjunct,comp,conjunct,obj,root,
p1409
I128
sVabbrev_punct,adjunct,conjunct,root,subj,
p1410
I916
sVadjunct,app,comp,conjunct,ne,obj_th,root,
p1411
I574
sVconjunct,mwe,obj,root,
p1412
I2047
sVapp,conjunct,punct,root,subj,
p1413
I800
sVabbrev_punct,adjunct,root,
p1414
I271
sVadjunct,adjunct_rc,comp,conjunct,mwe,ne,obj_th,root,
p1415
I1289
sVadjunct,adjunct_rc,comp_fin,comp_inf,conjunct,obj,punct,root,subj,
p1416
I162
sVadjunct,adjunct_rc,comp,punct,root,
p1417
I449
sVadjunct,adjunct_rc,comp,conjunct,neg,root,
p1418
I1696
sVadjunct,adjunct_rc,obj,punct,root,subj,
p1419
I1038
sVabbrev_punct,adjunct,comp,mwe,root,
p1420
I920
sVadjunct_qt,aux,root,
p1421
I790
sVadjunct,app,comp,conjunct,obj_th,root,
p1422
I575
sVadjunct,adjunct_rc,comp_fin,punct,root,
p1423
I2009
sVadjunct,adjunct_qt,obj,root,
p1424
I953
sVcomp_fin,conjunct,obj,punct,root,
p1425
I392
sVcomp,comp_fin,comp_inf,conjunct,root,subj,
p1426
I187
sVcomp,mwe,ne,root,
p1427
I1646
sVadjunct,comp,conjunct,neg,obj,root,subj,
p1428
I86
sVadjunct_qt,adjunct_rc,comp,comp_fin,conjunct,obj,pd,root,
p1429
I602
sVadjunct,adjunct_compar,app,comp,comp_fin,conjunct,ne,root,subj,
p1430
I1780
sVcomp,comp_fin,obj_th,root,
p1431
I315
sVadjunct,comp,neg,obj_th,root,
p1432
I1541
sVadjunct,adjunct_qt,comp,comp_fin,comp_inf,conjunct,obj,root,
p1433
I1847
sVadjunct_qt,ne,root,subj,
p1434
I729
sVadjunct,comp,comp_fin,comp_inf,pd,root,
p1435
I1114
sVadjunct,adjunct_rc,comp,pd,refl,root,subj,
p1436
I1813
sVadjunct,conjunct,ne,punct,root,subj,
p1437
I572
sVadjunct,app,comp,conjunct,mwe,punct,root,
p1438
I1403
sVcomp,root,subj,
p1439
I351
sVapp,comp,conjunct,ne,obj,root,
p1440
I786
sVadjunct_qt,comp_ag,root,
p1441
I1973
sVadjunct,app,comp,comp_inf,root,
p1442
I45
sVapp,obj,punct,root,
p1443
I329
sVadjunct_rc,app,root,subj,
p1444
I1816
sVadjunct_compar,root,
p1445
I972
sVadjunct,comp,comp_fin,root,subj,
p1446
I177
sVcomp_fin,comp_inf,obj,punct,root,
p1447
I444
sVadjunct_compar,conjunct,punct,root,subj,
p1448
I2119
sVadjunct,adjunct_rc,comp,conjunct,mwe,root,subj,
p1449
I2123
sVadjunct,app,comp,conjunct,punct,root,
p1450
I553
sVabbrev_punct,adjunct,app,comp,ne,pd,root,
p1451
I35
sVcomp,conjunct,obj,refl,root,
p1452
I1810
sVadjunct,comp,obj,punct,root,subj,
p1453
I476
sVabbrev_punct,adjunct,comp_inf,conjunct,obj,root,
p1454
I1370
sVadjunct_qt,comp,comp_fin,root,
p1455
I718
sVadjunct,adjunct_qt,comp,comp_fin,conjunct,pd,root,subj,
p1456
I225
sVapp,comp,comp_fin,conjunct,root,subj,
p1457
I1728
sVadjunct,conjunct,obj,pre_coord,root,
p1458
I2056
sVapp,comp_fin,comp_inf,conjunct,obj,root,
p1459
I443
sVcomp_fin,conjunct,root,
p1460
I125
sVadjunct_rc,comp_inf,mwe,obj,root,
p1461
I560
sVcomp,conjunct,obj_th,refl,root,
p1462
I1422
sVadjunct,adjunct_qt,adjunct_rc,obj,obj_th,root,
p1463
I614
sVadjunct_compar,comp,comp_inf,conjunct,root,
p1464
I899
sVadjunct_compar,comp,comp_fin,cond,conjunct,root,
p1465
I1600
sVadjunct_rc,conjunct,punct,root,subj,
p1466
I1507
sVadjunct,adjunct_qt,comp,root,
p1467
I470
sVadjunct,comp,conjunct,ne,root,
p1468
I32
sVadjunct,app,comp,conjunct,mwe,root,
p1469
I519
sVcomp,comp_fin,comp_inf,root,subj,
p1470
I2094
sVadjunct_rc,obj,refl,root,
p1471
I1066
sVadjunct,app,comp,comp_fin,comp_inf,conjunct,obj,root,
p1472
I445
sVadjunct,app,pd,root,
p1473
I427
sVadjunct_rc,root,
p1474
I557
sVcomp,comp_fin,conjunct,obj_th,root,subj,
p1475
I2091
sVadjunct,conjunct,refl,root,
p1476
I135
sVadjunct,adjunct_rc,conjunct,mwe,root,subj,
p1477
I2122
sVapp,conjunct,ne,punct,root,
p1478
I1747
sVadjunct,comp,comp_inf,mwe,root,
p1479
I459
sVcomp_fin,conjunct,obj_th,root,subj,
p1480
I1103
sVadjunct,comp,comp_ag,comp_fin,comp_inf,obj,root,
p1481
I632
sVadjunct,comp,comp_inf,conjunct,obj,punct,root,
p1482
I195
sVadjunct,comp_fin,obj_th,punct,root,
p1483
I356
sVadjunct,adjunct_qt,app,comp,conjunct,punct,root,
p1484
I825
sVabbrev_punct,adjunct,adjunct_rc,comp,root,subj,
p1485
I1264
sVadjunct,conjunct,neg,root,
p1486
I584
sVabbrev_punct,adjunct,comp,mwe,obj,root,
p1487
I887
sVadjunct,adjunct_qt,conjunct,punct,root,
p1488
I618
sVadjunct,comp,mwe,
p1489
I1516
sVaux,conjunct,root,subj,
p1490
I775
sVadjunct,aux,comp,comp_fin,comp_inf,root,
p1491
I1923
sVadjunct_qt,comp,
p1492
I1676
sVadjunct,comp,mwe,obj,pd,punct,root,
p1493
I1899
sVadjunct_compar,comp,obj,root,
p1494
I2027
sVadjunct,comp_inf,conjunct,root,subj,
p1495
I190
sVadjunct,adjunct_qt,comp,comp_fin,obj,pd,root,subj,
p1496
I1323
sVconjunct,mwe,root,
p1497
I688
sVadjunct,comp,conjunct,pd,root,subj,
p1498
I707
sVabbrev_punct,adjunct,comp,obj_th,root,
p1499
I1170
sVadjunct,conjunct,mwe,root,subj,
p1500
I500
sVadjunct,aux,neg,root,
p1501
I590
sVadjunct,obj,pre_coord,root,subj,
p1502
I2054
sVadjunct,adjunct_compar,comp,pd,punct,root,
p1503
I1518
sVadjunct,adjunct_rc,app,comp,conjunct,obj,root,
p1504
I744
sVadjunct_compar,comp_fin,comp_inf,root,
p1505
I1956
sVadjunct,adjunct_rc,app,comp,comp_fin,comp_inf,conjunct,obj,root,subj,
p1506
I80
sVadjunct,comp_inf,obj_th,root,
p1507
I294
sVadjunct,comp_fin,root,
p1508
I231
sVadjunct_compar,comp_fin,refl,root,
p1509
I1549
sVadjunct,adjunct_compar,comp,comp_fin,conjunct,root,subj,
p1510
I1105
sVadjunct,adjunct_rc,comp_fin,obj,pd,root,
p1511
I1213
sVadjunct,comp,comp_inf,conjunct,obj_th,root,
p1512
I1353
sVconjunct,obj_th,punct,root,
p1513
I941
sVadjunct_rc,conjunct,obj,punct,root,
p1514
I1990
sVaux,obj,root,
p1515
I711
sVcond,root,
p1516
I157
sVadjunct,app,obj,root,
p1517
I420
sVadjunct,comp_inf,root,subj,
p1518
I292
sVadjunct,comp,comp_inf,neg,root,
p1519
I1361
sVadjunct,app,comp,comp_fin,ne,punct,root,subj,
p1520
I1710
sVabbrev_punct,adjunct,comp_fin,conjunct,obj,root,
p1521
I1612
sVadjunct,app,mwe,root,
p1522
I763
sVadjunct,comp,conjunct,mwe,root,
p1523
I442
sVadjunct,adjunct_compar,punct,root,
p1524
I1639
sVadjunct,adjunct_rc,app,comp_inf,conjunct,obj,root,
p1525
I739
sVconjunct,refl,root,
p1526
I142
sVapp,comp_fin,conjunct,root,subj,
p1527
I1343
sVadjunct,app,ne,obj,obj_th,root,
p1528
I238
sVabbrev_punct,adjunct,comp,conjunct,root,subj,
p1529
I1042
sVadjunct,adjunct_compar,comp,comp_ag,conjunct,root,
p1530
I507
sVadjunct_rc,conjunct,obj_th,root,subj,
p1531
I1508
sVadjunct,aglt,comp,comp_fin,root,
p1532
I1530
sVadjunct,aglt,comp_fin,root,
p1533
I1149
sVadjunct,adjunct_rc,comp,conjunct,pd,punct,root,
p1534
I838
sVaux,root,
p1535
I18
sVadjunct,app,conjunct,root,subj,
p1536
I439
sVcomp,conjunct,mwe,root,subj,
p1537
I663
sVadjunct,comp,comp_fin,conjunct,pd,root,subj,
p1538
I1068
sVadjunct,aglt,root,subj,
p1539
I1557
sVcomp_fin,mwe,obj,punct,root,
p1540
I1980
sVadjunct,adjunct_qt,item,root,
p1541
I924
sVapp,comp_inf,obj,root,
p1542
I1171
sVadjunct,comp,comp_fin,conjunct,obj,obj_th,punct,root,subj,
p1543
I1096
sVobj,pd,root,
p1544
I653
sVadjunct,comp_fin,comp_inf,conjunct,mwe,obj,root,
p1545
I147
sVadjunct,adjunct_compar,adjunct_qt,comp,comp_fin,comp_inf,conjunct,root,
p1546
I1536
sVadjunct,comp_ag,obj_th,root,
p1547
I349
sVcomp,pd,root,
p1548
I16
sVadjunct_compar,comp,comp_inf,root,
p1549
I906
sVadjunct,adjunct_qt,adjunct_rc,root,subj,
p1550
I988
sVcomp,comp_fin,mwe,obj_th,root,
p1551
I2059
sVadjunct,adjunct_rc,comp_fin,conjunct,obj,root,
p1552
I369
sVcomp,conjunct,ne,
p1553
I811
sVabbrev_punct,adjunct,comp,conjunct,ne,obj,root,
p1554
I2032
sVcomp,comp_ag,conjunct,root,
p1555
I285
sVcomp_fin,mwe,root,
p1556
I1277
sVadjunct,comp_ag,conjunct,ne,root,
p1557
I913
sVadjunct,conjunct,mwe,obj,root,
p1558
I722
sVadjunct,conjunct,pd,root,subj,
p1559
I581
sVadjunct,adjunct_rc,conjunct,ne,root,subj,
p1560
I1817
sVadjunct,comp,comp_ag,conjunct,obj,root,subj,
p1561
I1825
sVapp,root,subj,
p1562
I5
sVadjunct,adjunct_rc,comp_fin,conjunct,neg,obj,root,
p1563
I368
sVadjunct,adjunct_qt,comp,comp_fin,pd,root,subj,
p1564
I2042
sVaux,root,subj,
p1565
I1107
sVadjunct,comp_fin,obj,root,
p1566
I537
sVmwe,obj,root,subj,
p1567
I411
sVadjunct,mwe,obj,obj_th,root,subj,
p1568
I2008
sVadjunct,comp,comp_fin,comp_inf,conjunct,root,
p1569
I405
sVadjunct_rc,comp,obj,root,
p1570
I1065
sVaglt,comp,comp_fin,root,
p1571
I564
sVadjunct,aux,obj,root,
p1572
I576
sVadjunct,app,comp,ne,root,subj,
p1573
I467
sVadjunct_qt,comp,conjunct,root,
p1574
I1499
sVadjunct,comp,comp_ag,conjunct,obj_th,root,
p1575
I1892
sVadjunct,comp,conjunct,obj_th,pd,root,
p1576
I1784
sVcomp,conjunct,ne,root,subj,
p1577
I1500
sVadjunct,comp_fin,comp_inf,obj,obj_th,root,
p1578
I745
sVadjunct,app,comp,comp_fin,ne,root,
p1579
I1421
sVcomp_fin,conjunct,obj,punct,root,subj,
p1580
I1144
sVobj,pre_coord,root,
p1581
I310
sVadjunct,adjunct_qt,comp,ne,obj,root,
p1582
I1828
sVadjunct,adjunct_rc,comp,comp_fin,conjunct,root,subj,
p1583
I1057
sVadjunct,adjunct_qt,app,comp,conjunct,root,
p1584
I826
sVne,obj_th,root,
p1585
I661
sVabbrev_punct,adjunct,conjunct,ne,root,subj,
p1586
I2107
sVadjunct,adjunct_rc,app,comp,comp_fin,comp_inf,conjunct,obj,pd,root,subj,
p1587
I1854
sVadjunct,adjunct_qt,obj_th,root,
p1588
I211
sVadjunct,comp_inf,obj,punct,root,
p1589
I1061
sVadjunct,adjunct_rc,comp,obj,root,
p1590
I502
sVadjunct,comp,comp_inf,conjunct,root,subj,
p1591
I706
sVadjunct,adjunct_qt,comp_inf,conjunct,obj,root,
p1592
I1580
sVadjunct,comp,comp_fin,comp_inf,conjunct,obj,punct,root,
p1593
I194
sVadjunct,adjunct_qt,adjunct_rc,conjunct,neg,root,subj,
p1594
I994
sVadjunct,app,conjunct,pd,root,subj,
p1595
I1497
sVadjunct,comp,comp_ag,mwe,obj,pd,root,
p1596
I1968
sVconjunct,imp,root,
p1597
I1997
sVadjunct,adjunct_qt,comp,comp_fin,obj,root,
p1598
I1255
sVadjunct,conjunct,mwe,obj_th,punct,root,
p1599
I1651
sVcomp,subj,
p1600
I812
sVabbrev_punct,comp,conjunct,root,
p1601
I552
sVabbrev_punct,pd,root,
p1602
I1948
sVadjunct,conjunct,obj,punct,root,subj,
p1603
I346
sVadjunct,app,conjunct,mwe,root,subj,
p1604
I525
sVadjunct,adjunct_compar,comp,comp_fin,conjunct,root,
p1605
I701
sVadjunct,comp,obj_th,root,
p1606
I243
sVadjunct,adjunct_qt,comp_fin,mwe,refl,root,
p1607
I98
sVadjunct,adjunct_qt,comp,comp_fin,conjunct,root,subj,
p1608
I1686
sVadjunct,comp_fin,mwe,obj,root,
p1609
I1690
sVadjunct,adjunct_qt,app,comp,conjunct,mwe,root,
p1610
I824
sVadjunct,mwe,punct,root,
p1611
I665
sVadjunct,adjunct_rc,comp,conjunct,obj,subj,
p1612
I1855
sVadjunct,comp,conjunct,obj_th,root,
p1613
I212
sVadjunct,pd,refl,root,
p1614
I1236
sVcomp_fin,ne,root,subj,
p1615
I1802
sVadjunct,app,conjunct,mwe,root,
p1616
I627
sVabbrev_punct,app,ne,root,
p1617
I41
sVadjunct_rc,comp,conjunct,root,
p1618
I1895
sVadjunct,comp_ag,obj,root,subj,
p1619
I1595
sVadjunct_rc,app,conjunct,ne,root,subj,
p1620
I799
sVadjunct,comp,conjunct,mwe,ne,obj,root,
p1621
I925
sVadjunct,adjunct_rc,conjunct,obj,punct,root,
p1622
I1731
sVadjunct,comp,refl,root,
p1623
I527
sVapp,conjunct,punct,root,
p1624
I693
sVadjunct,adjunct_qt,comp,conjunct,obj,root,
p1625
I305
sVadjunct,adjunct_compar,mwe,punct,root,subj,
p1626
I1393
sVadjunct,comp_fin,mwe,root,subj,
p1627
I769
sVadjunct,adjunct_rc,app,comp,comp_fin,comp_inf,conjunct,ne,obj,pd,root,subj,
p1628
I1853
sVadjunct,comp_fin,conjunct,root,
p1629
I134
sVcomp,comp_fin,cond,conjunct,root,subj,
p1630
I163
sVadjunct,adjunct_qt,comp,comp_fin,mwe,root,subj,
p1631
I103
sVadjunct,comp,ne,punct,root,subj,
p1632
I1521
sVadjunct,adjunct_qt,adjunct_rc,obj,obj_th,punct,root,
p1633
I613
sVcomp,punct,root,
p1634
I344
sVadjunct,adjunct_qt,comp,comp_inf,obj,root,
p1635
I1684
sVadjunct,aux,comp,comp_fin,comp_inf,conjunct,punct,root,subj,
p1636
I1200
sVadjunct,comp,comp_fin,conjunct,ne,obj_th,root,
p1637
I1621
sVcomp,comp_fin,obj_th,root,subj,
p1638
I1338
sVcomp,conjunct,pd,root,
p1639
I866
sVaglt,comp,comp_fin,conjunct,root,
p1640
I1092
sVadjunct,comp,comp_fin,comp_inf,conjunct,punct,root,subj,
p1641
I877
sVcomp,comp_fin,conjunct,mwe,ne,root,subj,
p1642
I956
sVconjunct,ne,obj,root,subj,
p1643
I1591
sVadjunct,imp,root,subj,
p1644
I2049
sVadjunct,adjunct_qt,adjunct_rc,app,comp,conjunct,root,
p1645
I1458
sVadjunct,comp,comp_inf,conjunct,punct,root,
p1646
I1306
sVadjunct,comp,comp_inf,root,
p1647
I44
sVadjunct_qt,app,conjunct,root,
p1648
I1246
sVadjunct_qt,conjunct,root,subj,
p1649
I204
sVadjunct,adjunct_rc,app,conjunct,root,subj,
p1650
I1819
sVadjunct,comp_inf,conjunct,obj,punct,root,
p1651
I490
sVadjunct_rc,punct,root,subj,
p1652
I429
sVapp,conjunct,ne,root,subj,
p1653
I468
sVadjunct,comp,comp_fin,conjunct,obj,punct,root,
p1654
I1131
sVapp,conjunct,ne,pre_coord,root,
p1655
I1430
sVabbrev_punct,adjunct,pd,root,
p1656
I340
sVadjunct,adjunct_qt,conjunct,obj,root,
p1657
I118
sVadjunct,adjunct_rc,conjunct,punct,root,
p1658
I1628
sVadjunct,adjunct_qt,comp,conjunct,punct,root,
p1659
I751
sVcomp,comp_ag,conjunct,obj_th,root,
p1660
I1894
sVadjunct,adjunct_rc,punct,root,subj,
p1661
I422
sVadjunct,comp_fin,conjunct,root,subj,
p1662
I133
sVadjunct,adjunct_compar,mwe,root,subj,
p1663
I1389
sVadjunct,adjunct_qt,comp_fin,comp_inf,root,
p1664
I1943
sVadjunct,adjunct_qt,adjunct_rc,app,conjunct,root,
p1665
I1453
sVadjunct,comp_fin,comp_inf,punct,root,subj,
p1666
I1190
sVadjunct,comp,conjunct,obj_th,punct,root,subj,
p1667
I92
sVconjunct,obj,punct,root,subj,
p1668
I1756
sVabbrev_punct,adjunct,ne,root,
p1669
I506
sVadjunct,adjunct_rc,comp_inf,punct,root,subj,
p1670
I1272
sVadjunct,adjunct_qt,comp,comp_ag,mwe,obj,root,
p1671
I1906
sVadjunct_qt,comp,comp_inf,conjunct,root,
p1672
I1838
sVadjunct,adjunct_rc,comp,comp_fin,conjunct,obj_th,root,subj,
p1673
I1713
sVadjunct,adjunct_qt,comp,comp_fin,comp_inf,mwe,obj,root,
p1674
I101
sVadjunct,mwe,pd,root,
p1675
I497
sVadjunct,mwe,obj_th,root,
p1676
I805
sVadjunct,app,comp,ne,punct,root,
p1677
I1027
sVadjunct,adjunct_qt,aux,comp,comp_fin,mwe,root,
p1678
I201
sVcomp_inf,obj_th,root,
p1679
I555
sVadjunct,comp_fin,comp_inf,root,
p1680
I160
sVadjunct,ne,punct,root,subj,
p1681
I1524
sVadjunct_qt,adjunct_rc,root,subj,
p1682
I992
sVadjunct,adjunct_qt,comp,comp_inf,root,
p1683
I1127
sVadjunct,adjunct_rc,app,ne,obj,root,subj,
p1684
I1023
sVadjunct,app,comp,comp_fin,conjunct,ne,root,
p1685
I1259
sVcomp,comp_fin,cond,conjunct,root,
p1686
I1341
sVadjunct,aux,comp_fin,comp_inf,obj,root,subj,
p1687
I1911
sVapp,mwe,obj,root,
p1688
I331
sVconjunct,item,root,
p1689
I677
sVadjunct,mwe,root,subj,
p1690
I302
sVadjunct,ne,pd,root,subj,
p1691
I1977
sVadjunct,comp,comp_fin,comp_inf,obj,obj_th,root,subj,
p1692
I1566
sVpunct,root,subj,
p1693
I259
sVadjunct_qt,punct,root,
p1694
I106
sVapp,ne,root,
p1695
I40
sVadjunct_rc,comp_inf,obj,punct,root,
p1696
I1431
sVadjunct,comp,mwe,obj,punct,root,
p1697
I1377
sVcomp,comp_fin,comp_inf,conjunct,obj,obj_th,root,
p1698
I1157
sVadjunct,app,comp,obj_th,punct,root,subj,
p1699
I1869
sVabbrev_punct,adjunct,app,root,subj,
p1700
I1248
sVadjunct,adjunct_qt,comp,comp_fin,comp_inf,mwe,root,
p1701
I102
sVadjunct_rc,conjunct,punct,root,
p1702
I1732
sVadjunct_rc,app,conjunct,obj,root,
p1703
I741
sVadjunct,app,ne,root,
p1704
I341
sVadjunct,adjunct_rc,app,obj,root,
p1705
I453
sVadjunct,adjunct_qt,comp,comp_fin,comp_inf,obj,pd,root,subj,
p1706
I1465
sVadjunct,adjunct_qt,comp,obj,root,subj,
p1707
I1593
sVadjunct,comp,conjunct,ne,obj,root,subj,
p1708
I477
sVadjunct,comp,comp_fin,neg,root,
p1709
I52
sVobj_th,root,
p1710
I49
sVadjunct,comp,comp_fin,comp_inf,conjunct,punct,root,
p1711
I1138
sVadjunct_qt,adjunct_rc,comp,comp_fin,punct,root,
p1712
I1184
sVadjunct,comp,comp_fin,comp_inf,obj_th,punct,
p1713
I1674
sVadjunct,adjunct_qt,adjunct_rc,comp,cond,mwe,root,
p1714
I1310
sVadjunct_rc,app,punct,root,subj,
p1715
I1400
sVadjunct,comp,root,subj,
p1716
I10
sVadjunct_qt,adjunct_rc,refl,root,subj,
p1717
I1317
sVadjunct,comp,comp_fin,mwe,refl,root,subj,
p1718
I2101
sVapp,comp,root,subj,
p1719
I1635
sVcomp,comp_fin,comp_inf,conjunct,obj,root,subj,
p1720
I326
sVadjunct,comp,comp_fin,conjunct,pd,root,
p1721
I664
sVapp,conjunct,root,
p1722
I22
sVcomp_fin,comp_inf,root,
p1723
I156
sVcomp,comp_ag,conjunct,punct,root,
p1724
I939
sVadjunct_compar,comp_fin,conjunct,root,
p1725
I894
sVadjunct,comp,conjunct,mwe,ne,root,
p1726
I548
sVadjunct,adjunct_rc,comp,comp_fin,conjunct,punct,root,
p1727
I1257
sVadjunct,adjunct_rc,obj_th,root,subj,
p1728
I2007
sVadjunct,comp,punct,
p1729
I1048
sVadjunct,adjunct_qt,conjunct,obj_th,refl,root,
p1730
I1787
sVadjunct,adjunct_rc,comp,punct,root,subj,
p1731
I1328
sVadjunct,comp,comp_fin,pd,root,subj,
p1732
I970
sVadjunct,aux,comp,comp_fin,root,subj,
p1733
I1534
sVadjunct,obj,punct,root,subj,
p1734
I347
sVadjunct,aux,comp_fin,comp_inf,neg,obj,root,subj,
p1735
I1910
sVadjunct,adjunct_rc,app,ne,root,
p1736
I1024
sVadjunct,app,comp,mwe,obj,punct,root,subj,
p1737
I1175
sVcomp,ne,root,
p1738
I521
sVadjunct,comp,conjunct,obj,obj_th,root,subj,
p1739
I1019
sVadjunct,app,conjunct,punct,root,subj,
p1740
I1163
sVadjunct,comp,comp_fin,conjunct,obj,refl,root,
p1741
I1139
sVadjunct,comp,comp_fin,comp_inf,conjunct,mwe,obj,root,subj,
p1742
I1301
sVadjunct,conjunct,obj,obj_th,punct,root,
p1743
I1081
sVconjunct,refl,root,subj,
p1744
I881
sVadjunct,aux,comp_fin,root,
p1745
I1182
sVadjunct,conjunct,obj,pd,pre_coord,root,
p1746
I1926
sVadjunct,adjunct_compar,comp,comp_inf,conjunct,pd,root,
p1747
I1373
sVcomp_fin,obj,root,subj,
p1748
I1106
sVapp,conjunct,root,subj,
p1749
I469
sVadjunct,app,conjunct,root,
p1750
I23
sVadjunct_qt,conjunct,neg,root,
p1751
I116
sVconjunct,obj,root,
p1752
I184
sVadjunct_qt,adjunct_rc,ne,root,subj,
p1753
I2097
sVadjunct_compar,comp,comp_fin,conjunct,root,subj,
p1754
I1601
sVadjunct,app,root,subj,
p1755
I4
sVadjunct,adjunct_qt,app,conjunct,ne,punct,root,
p1756
I1752
sVabbrev_punct,adjunct,app,ne,root,
p1757
I1029
sVneg,root,
p1758
I172
sVcomp,comp_fin,conjunct,neg,root,
p1759
I570
sVadjunct,comp_inf,conjunct,obj_th,punct,root,
p1760
I1355
sVadjunct,app,comp,root,subj,
p1761
I6
sVadjunct_rc,conjunct,mwe,root,
p1762
I1295
sVabbrev_punct,adjunct,comp,pd,root,
p1763
I657
sVadjunct_rc,ne,punct,root,subj,
p1764
I1523
sVcomp_fin,comp_inf,obj,obj_th,root,
p1765
I1561
sVadjunct,comp,comp_fin,comp_inf,conjunct,mwe,root,subj,
p1766
I2127
sVadjunct_compar,adjunct_qt,root,
p1767
I1966
sVcomp_fin,conjunct,neg,root,
p1768
I1845
sVapp,comp,conjunct,obj_th,root,
p1769
I214
sVadjunct,conjunct,obj,
p1770
I1857
sVadjunct,comp,comp_fin,mwe,refl,root,
p1771
I2013
sVcomp,comp_inf,punct,root,
p1772
I2093
sVcomp,comp_inf,conjunct,obj_th,root,
p1773
I1995
sVadjunct,adjunct_compar,comp,conjunct,mwe,root,
p1774
I510
sVadjunct,adjunct_qt,comp,conjunct,pd,root,
p1775
I1189
sVadjunct,app,mwe,root,subj,
p1776
I1388
sVadjunct,pd,root,subj,
p1777
I709
sVadjunct,adjunct_qt,comp,conjunct,ne,punct,root,subj,
p1778
I1460
sVadjunct_rc,comp,cond,obj,root,
p1779
I2023
sVadjunct,adjunct_rc,comp,comp_inf,conjunct,obj,pd,root,
p1780
I1925
sVadjunct,mwe,ne,root,
p1781
I1010
sVadjunct,comp_inf,pd,refl,root,
p1782
I498
sVadjunct,comp,comp_fin,comp_inf,conjunct,obj,obj_th,
p1783
I1671
sVadjunct,adjunct_qt,comp,conjunct,mwe,punct,root,subj,
p1784
I1461
sVadjunct_qt,adjunct_rc,aglt,comp_fin,pd,root,
p1785
I606
sVabbrev_punct,adjunct,comp,conjunct,ne,root,
p1786
I1002
sVabbrev_punct,adjunct,adjunct_qt,app,conjunct,ne,root,
p1787
I1986
sVadjunct,comp,comp_fin,obj,punct,root,subj,
p1788
I648
sVadjunct,adjunct_compar,app,comp,conjunct,mwe,punct,root,subj,
p1789
I1385
sVadjunct,adjunct_compar,comp_fin,conjunct,root,
p1790
I1539
sVadjunct,adjunct_rc,conjunct,neg,obj,root,
p1791
I375
sVabbrev_punct,adjunct,comp,conjunct,pd,root,
p1792
I967
sVcomp,comp_fin,comp_inf,obj_th,root,
p1793
I2088
sVadjunct,adjunct_rc,app,comp,comp_fin,conjunct,obj,root,subj,
p1794
I61
sVadjunct,comp,comp_fin,conjunct,neg,root,subj,
p1795
I1112
sVadjunct,app,obj,obj_th,punct,root,
p1796
I237
sVadjunct,conjunct,ne,obj,root,subj,
p1797
I999
sVadjunct,adjunct_rc,comp,comp_inf,conjunct,root,
p1798
I297
sVadjunct,comp,conjunct,obj_th,punct,root,
p1799
I802
sVroot,subj,
p1800
I0
sVadjunct,comp,ne,obj,root,
p1801
I433
sVadjunct,app,comp,ne,pd,root,
p1802
I34
sVadjunct,app,comp,comp_fin,obj,pd,root,
p1803
I75
sVadjunct,conjunct,ne,pd,root,
p1804
I494
sVadjunct_compar,comp_fin,comp_inf,conjunct,root,
p1805
I897
sVadjunct_qt,conjunct,refl,root,
p1806
I1788
sVadjunct,comp_fin,comp_inf,obj_th,root,
p1807
I854
sVadjunct,adjunct_compar,comp,ne,root,
p1808
I1585
sVpunct,
p1809
I1051
sVcomp_inf,conjunct,obj_th,root,
p1810
I640
sVadjunct,comp,comp_fin,conjunct,obj,root,
p1811
I360
sVabbrev_punct,adjunct_qt,adjunct_rc,root,subj,
p1812
I2095
sVadjunct,adjunct_rc,comp,obj,punct,root,subj,
p1813
I1878
sVabbrev_punct,adjunct,adjunct_rc,app,comp,comp_fin,conjunct,obj,root,subj,
p1814
I62
sVconjunct,obj_th,root,
p1815
I215
sVadjunct,comp_fin,mwe,obj,obj_th,root,
p1816
I1637
sVcomp,obj,root,subj,
p1817
I391
sVadjunct,aux,comp,conjunct,pd,root,
p1818
I680
sVcomp,conjunct,ne,root,
p1819
I685
sVcomp_inf,root,subj,
p1820
I556
sVadjunct,comp,comp_fin,ne,root,
p1821
I1520
sVadjunct_compar,root,subj,
p1822
I2114
sVcomp_inf,conjunct,root,subj,
p1823
I191
sVabbrev_punct,comp,conjunct,ne,root,
p1824
I1647
sVadjunct,aux,comp,comp_fin,conjunct,root,
p1825
I1234
sVadjunct,adjunct_qt,comp_fin,mwe,root,
p1826
I97
sVadjunct,aglt,conjunct,root,
p1827
I1090
sVadjunct,comp,comp_fin,obj_th,root,
p1828
I244
sVadjunct_qt,comp_inf,root,
p1829
I783
sVadjunct,app,pd,punct,root,
p1830
I550
sVadjunct,comp,comp_inf,conjunct,mwe,root,
p1831
I638
sVconjunct,obj,punct,root,
p1832
I308
sVabbrev_punct,adjunct,conjunct,obj,root,
p1833
I1039
sVadjunct,ne,punct,root,
p1834
I549
sVadjunct,adjunct_qt,comp,comp_fin,comp_inf,mwe,ne,obj,root,
p1835
I107
sVadjunct,comp_fin,comp_inf,mwe,obj,root,
p1836
I1195
sVadjunct_compar,comp_fin,obj_th,root,
p1837
I1805
sVadjunct,aglt,obj_th,root,
p1838
I1082
sVadjunct,comp,comp_fin,comp_inf,conjunct,obj_th,root,
p1839
I1158
sVadjunct_qt,comp_fin,obj,root,
p1840
I1254
sVadjunct,adjunct_qt,app,punct,root,
p1841
I471
sVadjunct,comp,comp_fin,conjunct,mwe,obj,root,subj,
p1842
I1346
sVapp,comp_fin,ne,root,subj,
p1843
I1703
sVadjunct_rc,aglt,comp_fin,conjunct,obj,root,subj,
p1844
I1148
sVadjunct,aux,comp,conjunct,root,subj,
p1845
I936
sVadjunct,obj_th,punct,root,subj,
p1846
I1719
sVapp,obj_th,punct,root,
p1847
I760
sVcomp,comp_fin,obj,root,
p1848
I57
sVadjunct,conjunct,mwe,obj_th,root,subj,
p1849
I1652
sVcomp_fin,comp_inf,conjunct,obj,root,
p1850
I321
sVadjunct,adjunct_rc,comp_fin,conjunct,refl,root,subj,
p1851
I2033
sVadjunct,adjunct_rc,comp_fin,conjunct,obj,root,subj,
p1852
I370
sVaux,conjunct,root,
p1853
I249
sVadjunct,comp,comp_fin,conjunct,pd,punct,root,
p1854
I1223
sVadjunct,comp_inf,obj,refl,root,
p1855
I182
sVadjunct,comp,comp_inf,conjunct,neg,root,
p1856
I1304
sVadjunct_compar,conjunct,item,root,subj,
p1857
I2118
sVadjunct,comp,comp_fin,conjunct,ne,root,subj,
p1858
I1231
sVadjunct,comp,conjunct,
p1859
I813
sVadjunct,comp,conjunct,root,
p1860
I17
sVadjunct,adjunct_rc,conjunct,pd,root,subj,
p1861
I791
sVadjunct,comp,comp_fin,obj,pd,root,
p1862
I996
sVadjunct,comp_inf,conjunct,obj_th,refl,root,
p1863
I2108
sVcomp,comp_fin,comp_inf,obj_th,punct,root,
p1864
I2090
sVadjunct,app,comp,comp_fin,conjunct,obj,obj_th,root,subj,
p1865
I78
sVadjunct,comp,comp_ag,conjunct,root,subj,
p1866
I1229
sVadjunct,conjunct,mwe,pd,root,
p1867
I218
sVcomp,comp_inf,conjunct,obj,root,subj,
p1868
I1415
sVabbrev_punct,adjunct,conjunct,obj_th,root,
p1869
I917
sVadjunct,conjunct,root,
p1870
I26
sVaux,comp_fin,comp_inf,obj,root,
p1871
I949
sVadjunct_compar,comp,conjunct,ne,root,
p1872
I2070
sVadjunct,comp,conjunct,pd,root,
p1873
I291
sVadjunct,comp,comp_ag,obj,
p1874
I1662
sVadjunct,comp,comp_inf,pd,root,
p1875
I499
sVadjunct,adjunct_compar,conjunct,ne,root,subj,
p1876
I2117
sVadjunct,adjunct_rc,comp,comp_ag,conjunct,mwe,root,
p1877
I1617
sVadjunct,comp_fin,obj_th,root,
p1878
I245
sVabbrev_punct,adjunct,app,comp,root,
p1879
I2029
sVadjunct,app,root,
p1880
I263
sVcomp,mwe,punct,root,
p1881
I1398
sVconjunct,neg,root,
p1882
I400
sVadjunct,adjunct_rc,comp_inf,conjunct,punct,root,subj,
p1883
I1267
sVcomp_fin,conjunct,obj,root,
p1884
I372
sVrefl,root,subj,
p1885
I1316
sVadjunct,comp_fin,conjunct,pd,root,
p1886
I630
sVadjunct,adjunct_rc,comp,comp_fin,comp_inf,conjunct,obj,pd,root,subj,
p1887
I1852
sVcomp_fin,root,
p1888
I253
sVadjunct,obj,obj_th,root,
p1889
I236
sVitem,root,
p1890
I914
sVcomp_fin,conjunct,obj,root,subj,
p1891
I371
sVadjunct,app,comp,comp_fin,obj,obj_th,punct,root,
p1892
I1380
sVabbrev_punct,adjunct,app,conjunct,root,
p1893
I1558
sVadjunct,app,comp,comp_fin,ne,obj_th,root,subj,
p1894
I1706
sVcomp_fin,conjunct,refl,root,
p1895
I1771
sVabbrev_punct,conjunct,ne,obj,root,
p1896
I1623
sVne,obj,root,subj,
p1897
I1020
sVadjunct,comp,comp_ag,conjunct,obj_th,root,subj,
p1898
I1890
sVne,root,subj,
p1899
I268
sVadjunct,comp_fin,root,subj,
p1900
I221
sVadjunct,comp,comp_ag,conjunct,punct,root,
p1901
I1921
sVadjunct,aux,comp_fin,neg,root,
p1902
I2016
sVcomp,conjunct,
p1903
I809
sVadjunct,comp_fin,conjunct,punct,root,subj,
p1904
I1135
sVadjunct,app,obj,punct,root,subj,
p1905
I390
sVadjunct,comp_ag,root,subj,
p1906
I544
sVadjunct,comp_inf,conjunct,obj,pd,root,
p1907
I1479
sVabbrev_punct,adjunct,comp,punct,root,
p1908
I1918
sVadjunct,adjunct_rc,pd,punct,root,
p1909
I2112
sVadjunct,comp,comp_fin,conjunct,obj_th,root,subj,
p1910
I1251
sVadjunct,comp,comp_fin,comp_inf,obj_th,punct,root,
p1911
I1850
sVadjunct,app,obj_th,root,
p1912
I761
sVadjunct,comp,comp_fin,refl,root,
p1913
I598
sVaglt,root,
p1914
I108
sVabbrev_punct,adjunct,adjunct_qt,comp,conjunct,root,
p1915
I752
sVcomp_inf,conjunct,obj,root,
p1916
I132
sVcomp,comp_ag,root,subj,
p1917
I1642
sVabbrev_punct,adjunct,adjunct_qt,root,
p1918
I1608
sVadjunct,adjunct_qt,comp,comp_fin,conjunct,obj,punct,root,subj,
p1919
I2037
sVadjunct,app,comp_fin,root,subj,
p1920
I1803
sVabbrev_punct,adjunct,conjunct,ne,pd,root,
p1921
I1798
sVadjunct,aux,comp_fin,conjunct,root,
p1922
I232
sVadjunct_qt,comp,comp_fin,neg,root,
p1923
I1185
sVadjunct,comp_fin,obj_th,punct,refl,root,subj,
p1924
I1094
sVadjunct,adjunct_compar,comp_fin,conjunct,punct,root,subj,
p1925
I1777
sVadjunct,adjunct_rc,comp,comp_fin,obj,root,
p1926
I451
sVadjunct,comp,pd,
p1927
I1660
sVcomp_inf,pd,root,
p1928
I730
sVadjunct,comp,item,root,
p1929
I1588
sVadjunct,pd,root,
p1930
I38
sVadjunct_rc,comp,root,subj,
p1931
I432
sVadjunct,adjunct_rc,obj,root,
p1932
I388
sVadjunct,comp,comp_fin,conjunct,punct,root,
p1933
I1232
sVadjunct,adjunct_compar,comp,obj,root,
p1934
I2025
sVadjunct,app,comp,comp_fin,root,subj,
p1935
I1216
sVadjunct,adjunct_qt,comp,comp_fin,mwe,punct,root,
p1936
I99
sVadjunct,adjunct_qt,adjunct_rc,app,conjunct,punct,root,
p1937
I1451
sVadjunct_rc,comp_inf,root,
p1938
I558
sVadjunct,comp,comp_fin,comp_inf,obj,root,
p1939
I599
sVmwe,root,subj,
p1940
I330
sVadjunct,comp_fin,comp_inf,conjunct,neg,obj,root,
p1941
I1423
sVcomp_fin,neg,root,subj,
p1942
I1337
sVadjunct_compar,comp,root,
p1943
I976
sVadjunct_rc,root,subj,
p1944
I430
sVadjunct_rc,comp_fin,obj,pd,punct,root,
p1945
I1211
sVapp,pd,root,
p1946
I428
sVadjunct,mwe,punct,root,subj,
p1947
I834
sVadjunct,aglt,comp_inf,conjunct,root,
p1948
I1280
sVadjunct,comp_fin,conjunct,neg,root,
p1949
I234
sVadjunct,adjunct_rc,app,comp,comp_fin,conjunct,mwe,obj,root,subj,
p1950
I65
sVadjunct_rc,comp,comp_fin,root,subj,
p1951
I1626
sVadjunct_rc,conjunct,pd,root,
p1952
I625
sVapp,comp,obj,root,
p1953
I1643
sVadjunct,comp,conjunct,refl,root,
p1954
I848
sVadjunct,adjunct_qt,comp,ne,root,
p1955
I594
sVadjunct_rc,comp_fin,obj,obj_th,pd,root,
p1956
I1208
sVadjunct,mwe,obj_th,punct,root,
p1957
I1650
sVadjunct,comp,comp_ag,comp_fin,comp_inf,conjunct,obj,root,
p1958
I1611
sVadjunct,comp,comp_fin,conjunct,refl,root,subj,
p1959
I1235
sVadjunct,refl,root,subj,
p1960
I835
sVadjunct,comp,conjunct,obj,obj_th,punct,root,
p1961
I1031
sVadjunct,aux,comp,comp_fin,obj_th,root,subj,
p1962
I1151
sVadjunct,comp,conjunct,mwe,obj,pd,root,
p1963
I863
sVcomp_inf,refl,root,
p1964
I708
sVadjunct,comp,comp_fin,comp_inf,root,
p1965
I154
sVadjunct,comp,comp_fin,punct,root,subj,
p1966
I1129
sVadjunct,comp,conjunct,refl,root,subj,
p1967
I703
sVadjunct,comp,punct,root,subj,
p1968
I586
sVadjunct,comp,comp_fin,comp_inf,conjunct,obj,obj_th,root,
p1969
I946
sVcomp,comp_fin,obj,root,subj,
p1970
I649
sVadjunct_qt,comp_inf,conjunct,obj_th,root,
p1971
I1839
sVadjunct,app,comp_fin,comp_inf,obj,obj_th,root,subj,
p1972
I1564
sVcomp_fin,neg,root,
p1973
I1228
sVadjunct,comp_inf,pd,root,
p1974
I495
sVadjunct,comp,comp_ag,ne,root,
p1975
I1004
sVadjunct,comp,conjunct,obj,root,subj,
p1976
I82
sVadjunct,aux,comp,comp_fin,mwe,obj_th,root,subj,
p1977
I1152
sVadjunct,comp,comp_inf,obj_th,root,subj,
p1978
I1574
sVaux,pd,root,
p1979
I746
sVadjunct,adjunct_compar,app,comp,comp_fin,conjunct,root,subj,
p1980
I1779
sVadjunct,comp,obj,pd,root,subj,
p1981
I1531
sVadjunct,comp_fin,obj_th,punct,root,subj,
p1982
I1093
sVadjunct,comp_fin,comp_inf,root,subj,
p1983
I568
sVadjunct,adjunct_rc,comp,conjunct,obj,obj_th,root,
p1984
I1694
sVadjunct_rc,comp,comp_inf,obj,root,
p1985
I2021
sVcomp,comp_inf,conjunct,obj,punct,root,
p1986
I1848
sVadjunct_rc,refl,root,subj,
p1987
I431
sVcomp,comp_fin,comp_inf,conjunct,obj_th,root,
p1988
I1159
sVadjunct,comp,obj_th,pd,root,
p1989
I1938
sVabbrev_punct,adjunct,obj,root,
p1990
I940
sVadjunct,adjunct_compar,comp,mwe,root,subj,
p1991
I1394
sVadjunct,adjunct_rc,comp_inf,root,subj,
p1992
I1266
sVadjunct,aglt,comp,conjunct,root,
p1993
I303
sVadjunct,adjunct_compar,comp,comp_inf,conjunct,punct,root,
p1994
I902
sVcomp,comp_fin,conjunct,refl,root,
p1995
I563
sVadjunct,comp_fin,comp_inf,conjunct,obj_th,root,
p1996
I1125
sVapp,comp,conjunct,ne,root,
p1997
I1244
sVadjunct,aux,comp,neg,root,
p1998
I1489
sVadjunct_qt,comp,root,
p1999
I561
sVadjunct,adjunct_rc,conjunct,obj,subj,
p2000
I1856
sVadjunct,adjunct_rc,comp,comp_inf,root,subj,
p2001
I1219
sVadjunct,aux,comp,comp_fin,conjunct,root,subj,
p2002
I1198
sVadjunct,aux,conjunct,root,
p2003
I269
sVabbrev_punct,adjunct,comp,conjunct,obj,root,
p2004
I1363
sVadjunct,comp_fin,comp_inf,refl,root,subj,
p2005
I1193
sVadjunct,obj,pre_coord,root,
p2006
I2055
sVadjunct,comp,comp_fin,conjunct,obj,pd,root,
p2007
I1225
sVapp,comp,comp_ag,root,
p2008
I1603
sVadjunct,adjunct_compar,comp,comp_fin,comp_inf,conjunct,root,
p2009
I896
sVcomp,obj,pd,root,
p2010
I1315
sVadjunct,comp,comp_fin,comp_inf,conjunct,mwe,obj,root,
p2011
I148
sVadjunct,app,comp,conjunct,punct,root,subj,
p2012
I772
sVadjunct,aux,ne,root,
p2013
I1005
sVadjunct,adjunct_rc,app,conjunct,obj,root,
p2014
I743
sVadjunct,adjunct_rc,comp,mwe,obj,punct,root,subj,
p2015
I1406
sVadjunct,comp,comp_ag,comp_fin,conjunct,root,subj,
p2016
I1841
sVadjunct,comp,comp_fin,comp_inf,conjunct,mwe,obj,obj_th,root,
p2017
I943
sVadjunct_qt,refl,root,
p2018
I562
sVadjunct,comp_fin,conjunct,obj_th,root,subj,
p2019
I1123
sVadjunct_rc,comp,punct,root,subj,
p2020
I963
sVadjunct,adjunct_rc,aux,comp,root,
p2021
I2074
sVaux,comp_fin,root,
p2022
I1154
sVadjunct,comp,mwe,root,subj,
p2023
I313
sVadjunct,adjunct_rc,comp,mwe,punct,root,subj,
p2024
I1582
sVadjunct,comp_fin,conjunct,obj,obj_th,root,subj,
p2025
I1100
sVabbrev_punct,comp,mwe,root,
p2026
I1512
sVadjunct_qt,conjunct,punct,root,
p2027
I124
sVadjunct,comp,comp_inf,conjunct,obj,obj_th,root,
p2028
I1283
sVadjunct,comp,comp_inf,conjunct,obj_th,root,subj,
p2029
I705
sVadjunct,adjunct_rc,comp_inf,conjunct,obj,
p2030
I1865
sVcomp,comp_fin,conjunct,obj,root,subj,
p2031
I164
sVadjunct,adjunct_rc,comp,neg,root,subj,
p2032
I1327
sVadjunct,adjunct_rc,comp,comp_fin,obj,pd,root,
p2033
I1206
sVadjunct,adjunct_qt,comp_fin,punct,root,subj,
p2034
I226
sVadjunct_compar,comp_fin,ne,root,
p2035
I1960
sVcomp_inf,conjunct,pd,root,
p2036
I171
sVadjunct,pd,punct,root,
p2037
I339
sVadjunct,app,comp,obj,root,
p2038
I72
sVadjunct,adjunct_qt,adjunct_rc,app,obj,root,
p2039
I1455
sVadjunct,comp,conjunct,ne,obj,pd,root,
p2040
I1378
sVadjunct_rc,comp,comp_fin,punct,root,subj,
p2041
I1625
sVadjunct,comp_fin,comp_inf,conjunct,obj,pd,root,subj,
p2042
I323
sVadjunct,comp,comp_fin,subj,
p2043
I817
sVadjunct,adjunct_qt,ne,root,
p2044
I611
sVadjunct,comp,comp_inf,conjunct,ne,obj,root,
p2045
I1369
sVadjunct,comp_inf,conjunct,punct,root,
p2046
I489
sVadjunct,mwe,obj,root,subj,
p2047
I412
sVadjunct,adjunct_rc,comp,conjunct,obj,root,
p2048
I376
sVadjunct,comp,comp_ag,obj,punct,root,
p2049
I2003
sVconjunct,ne,root,subj,
p2050
I517
sVadjunct_rc,comp_fin,comp_inf,conjunct,root,
p2051
I1160
sVadjunct,adjunct_qt,adjunct_rc,comp,conjunct,obj,root,
p2052
I1992
sVadjunct,comp_fin,comp_inf,obj,root,
p2053
I150
sVadjunct,adjunct_rc,comp,comp_fin,comp_inf,conjunct,obj,root,subj,
p2054
I1085
sVadjunct,comp,pd,punct,root,
p2055
I39
sVcomp,comp_fin,comp_inf,conjunct,obj,pd,root,
p2056
I1221
sVadjunct,comp,comp_ag,obj,root,subj,
p2057
I1596
sVadjunct,app,comp_fin,conjunct,root,subj,
p2058
I1344
sVadjunct,comp_fin,comp_inf,mwe,obj,pd,root,
p2059
I1199
sVadjunct,comp_inf,punct,root,
p2060
I293
sVadjunct,aux,comp,conjunct,neg,root,
p2061
I633
sVapp,comp,conjunct,obj,punct,root,
p2062
I1824
sVadjunct,comp,conjunct,ne,punct,root,subj,
p2063
I571
sVadjunct,adjunct_qt,comp,punct,root,subj,
p2064
I755
sVapp,comp,mwe,obj,root,
p2065
I332
sVadjunct,comp,comp_fin,conjunct,neg,root,
p2066
I713
sVadjunct_compar,comp,comp_inf,conjunct,obj_th,root,
p2067
I911
sVadjunct,comp_fin,comp_inf,conjunct,root,
p2068
I735
sVadjunct,ne,root,
p2069
I272
sVapp,comp_fin,obj,root,
p2070
I2083
sVadjunct_qt,comp,mwe,obj,refl,root,
p2071
I1903
sVadjunct_rc,conjunct,neg,root,subj,
p2072
I1739
sVadjunct,comp,obj_th,punct,root,subj,
p2073
I1870
sVadjunct,comp,comp_ag,conjunct,ne,root,
p2074
I354
sVadjunct,app,comp,conjunct,mwe,ne,root,
p2075
I1749
sVadjunct,comp,punct,refl,root,
p2076
I723
sVapp,punct,root,
p2077
I262
sVadjunct,app,comp,conjunct,pd,root,subj,
p2078
I1495
sVabbrev_punct,adjunct,comp,mwe,ne,root,
p2079
I1790
sVadjunct_qt,aux,comp_inf,root,
p2080
I784
sVabbrev_punct,adjunct,conjunct,root,
p2081
I27
sVcomp,conjunct,mwe,root,
p2082
I819
sVadjunct,adjunct_qt,root,subj,
p2083
I714
sVobj,root,
p2084
I29
sVadjunct,adjunct_qt,comp_fin,comp_inf,obj_th,root,
p2085
I1939
sVconjunct,obj,pd,root,
p2086
I865
sVcomp,comp_fin,conjunct,neg,obj,root,
p2087
I1147
sVadjunct,app,comp,comp_ag,conjunct,root,
p2088
I683
sVadjunct,adjunct_qt,adjunct_rc,conjunct,obj_th,root,subj,
p2089
I990
sVadjunct,adjunct_qt,comp_inf,pd,root,
p2090
I256
sVadjunct,comp,comp_ag,conjunct,mwe,ne,root,
p2091
I481
sVadjunct_rc,comp,comp_fin,obj,root,
p2092
I1842
sVadjunct_qt,comp,comp_fin,comp_inf,root,
p2093
I720
sVadjunct,comp_fin,ne,pd,root,
p2094
I1587
sVobj,punct,root,subj,
p2095
I710
sVcomp,conjunct,obj_th,root,
p2096
I216
sVadjunct,app,comp,ne,obj,root,
p2097
I1072
sVcomp,comp_fin,comp_inf,refl,root,
p2098
I2092
sVadjunct,comp,conjunct,mwe,obj,root,
p2099
I290
sVadjunct,comp,comp_ag,comp_fin,comp_inf,conjunct,root,subj,
p2100
I2129
sVabbrev_punct,adjunct,app,conjunct,root,subj,
p2101
I526
sVapp,comp,comp_fin,root,
p2102
I852
sVabbrev_punct,adjunct,app,comp,comp_ag,root,
p2103
I2028
sVadjunct,adjunct_compar,comp,comp_fin,root,
p2104
I1130
sVadjunct,comp,comp_ag,root,subj,
p2105
I545
sVadjunct,comp_inf,conjunct,ne,obj,root,
p2106
I832
sVadjunct,comp_fin,comp_inf,conjunct,neg,root,
p2107
I1547
sVadjunct,conjunct,obj,refl,root,
p2108
I127
sVabbrev_punct,adjunct,mwe,root,
p2109
I932
sVadjunct,comp_ag,obj_th,root,subj,
p2110
I1614
sVcomp,comp_fin,conjunct,obj,refl,root,
p2111
I1146
sVaglt,comp_fin,root,
p2112
I366
sVapp,comp,comp_fin,conjunct,punct,root,subj,
p2113
I2004
sVadjunct_qt,conjunct,obj,root,subj,
p2114
I1040
sVadjunct,ne,obj,root,
p2115
I320
sVcomp_inf,obj_th,root,subj,
p2116
I1571
sVadjunct,app,conjunct,ne,pd,root,
p2117
I1180
sVadjunct,comp_fin,conjunct,ne,root,subj,
p2118
I700
sVadjunct,comp,conjunct,obj_th,root,subj,
p2119
I93
sVabbrev_punct,adjunct,mwe,root,subj,
p2120
I1976
sVadjunct,app,conjunct,obj,pd,punct,root,
p2121
I1450
sVadjunct,app,comp,mwe,obj,root,
p2122
I1077
sVadjunct,comp,comp_fin,comp_inf,conjunct,mwe,root,
p2123
I726
sVabbrev_punct,adjunct,comp,ne,pd,root,
p2124
I1325
sVadjunct,adjunct_qt,aux,obj,root,
p2125
I1716
sVapp,ne,punct,root,
p2126
I1026
sVadjunct_qt,aglt,conjunct,root,
p2127
I1080
sVadjunct,comp,obj,punct,root,
p2128
I504
sVadjunct,adjunct_compar,root,subj,
p2129
I1366
sVadjunct,comp,comp_ag,conjunct,root,
p2130
I355
sVconjunct,obj,obj_th,root,
p2131
I684
sVabbrev_punct,comp,obj,root,
p2132
I1298
sVadjunct_rc,obj_th,root,
p2133
I1645
sVadjunct,adjunct_rc,comp,root,
p2134
I450
sVabbrev_punct,adjunct,comp,mwe,root,subj,
p2135
I804
sVconjunct,pre_coord,root,
p2136
I1226
sVadjunct,comp,comp_ag,comp_fin,conjunct,obj,root,subj,
p2137
I1053
sVcomp,comp_fin,comp_inf,obj,root,
p2138
I566
sVcomp,comp_fin,conjunct,pd,punct,root,subj,
p2139
I1067
sVadjunct,neg,root,
p2140
I505
sVadjunct,adjunct_compar,comp,conjunct,obj,refl,root,
p2141
I1970
sVadjunct,comp,conjunct,obj,obj_th,root,
p2142
I1032
sVadjunct,comp_inf,conjunct,obj_th,refl,root,subj,
p2143
I1203
sVadjunct,adjunct_qt,conjunct,root,
p2144
I206
sVadjunct,comp_fin,mwe,root,
p2145
I532
sVadjunct,adjunct_rc,comp,refl,root,
p2146
I1953
sVadjunct,pd,punct,root,subj,
p2147
I673
sVcomp,comp_inf,conjunct,obj,obj_th,root,
p2148
I1766
sVadjunct,adjunct_rc,comp,comp_fin,obj,obj_th,root,subj,
p2149
I1086
sVabbrev_punct,adjunct,app,root,
p2150
I1462
sVadjunct_rc,comp,conjunct,mwe,obj_th,root,
p2151
I1290
sVadjunct,aux,comp,obj,
p2152
I1664
sVadjunct,comp,comp_fin,comp_inf,mwe,obj,root,
p2153
I1194
sVadjunct_qt,comp,conjunct,obj_th,root,
p2154
I829
sVadjunct,comp,comp_fin,obj,root,subj,
p2155
I646
sVapp,ne,obj_th,root,
p2156
I1169
sVaglt,cond,root,
p2157
I158
sVadjunct,adjunct_rc,comp,conjunct,obj,pd,root,
p2158
I1928
sVadjunct,comp,comp_ag,punct,root,
p2159
I1054
sVadjunct,app,obj,root,subj,
p2160
I383
sVadjunct_qt,comp,comp_fin,punct,root,subj,
p2161
I2035
sVaux,comp_fin,conjunct,root,
p2162
I121
sVapp,comp,comp_ag,conjunct,root,
p2163
I2000
sVadjunct,app,conjunct,ne,punct,root,subj,
p2164
I1035
sVadjunct,aux,comp,comp_fin,comp_inf,conjunct,root,subj,
p2165
I1201
sVadjunct,adjunct_qt,comp_fin,conjunct,refl,root,subj,
p2166
I224
sVadjunct,app,comp,conjunct,ne,pd,root,
p2167
I1936
sVadjunct,comp,ne,
p2168
I1047
sVadjunct,adjunct_rc,conjunct,ne,pd,root,
p2169
I1829
sVadjunct,comp,comp_fin,conjunct,neg,obj,root,
p2170
I1140
sVadjunct,aglt,comp,comp_fin,conjunct,root,
p2171
I1079
sVaux,comp,comp_fin,root,subj,
p2172
I686
sVadjunct,adjunct_rc,app,comp,ne,root,subj,
p2173
I1022
sVcomp,conjunct,obj_th,root,subj,
p2174
I1336
sVobj,root,subj,
p2175
I687
sVadjunct,conjunct,obj_th,root,subj,
p2176
I620
sVadjunct,app,comp,comp_fin,ne,root,subj,
p2177
I1705
sVadjunct,adjunct_compar,comp,comp_fin,comp_inf,conjunct,punct,root,
p2178
I1250
sVadjunct,comp,cond,conjunct,root,
p2179
I1351
sVadjunct,root,
p2180
I12
sVadjunct,app,ne,refl,root,
p2181
I869
sVadjunct,comp_inf,obj,obj_th,root,
p2182
I1284
sVadjunct,comp,comp_ag,conjunct,ne,obj,root,
p2183
I1885
sVadjunct_qt,pd,root,
p2184
I770
sVabbrev_punct,conjunct,root,subj,
p2185
I1781
sVabbrev_punct,ne,root,subj,
p2186
I671
sVadjunct,app,comp,punct,root,subj,
p2187
I1013
sVadjunct,adjunct_qt,comp,comp_ag,obj_th,root,
p2188
I1679
sVcomp,mwe,root,subj,
p2189
I1108
sVabbrev_punct,comp,comp_fin,root,subj,
p2190
I2098
sVabbrev_punct,adjunct,app,comp,conjunct,mwe,root,
p2191
I520
sVobj,punct,root,
p2192
I595
sVadjunct,app,obj,pd,root,
p2193
I597
sVadjunct,comp_ag,root,
p2194
I591
sVadjunct_qt,comp_inf,conjunct,obj,root,
p2195
I1579
sVadjunct_compar,comp,conjunct,root,
p2196
I890
sVabbrev_punct,conjunct,root,
p2197
I934
sVadjunct,adjunct_rc,comp,conjunct,punct,root,
p2198
I298
sVadjunct,comp_ag,conjunct,pd,root,
p2199
I1950
sVadjunct,conjunct,mwe,obj_th,root,
p2200
I1638
sVadjunct_qt,comp,punct,root,
p2201
I716
sVadjunct,app,comp,punct,root,
p2202
I518
sVcomp_ag,pd,root,
p2203
I1792
sVadjunct,comp_fin,refl,root,
p2204
I592
sVadjunct,adjunct_compar,comp,comp_fin,mwe,obj,root,subj,
p2205
I2079
sVadjunct,adjunct_qt,comp,comp_fin,root,
p2206
I588
sVadjunct,adjunct_qt,obj,root,subj,
p2207
I1714
sVapp,comp_fin,obj,punct,root,
p2208
I2081
sVadjunct,comp_fin,obj_th,root,subj,
p2209
I246
sVadjunct_rc,comp_inf,obj,root,subj,
p2210
I1432
sVadjunct,app,comp,conjunct,mwe,ne,obj,root,
p2211
I927
sVadjunct,adjunct_qt,app,root,
p2212
I473
sVadjunct,comp,comp_fin,obj_th,root,subj,
p2213
I731
sVadjunct,adjunct_qt,adjunct_rc,conjunct,root,subj,
p2214
I991
sVne,punct,root,
p2215
I266
sVroot,
p2216
I2
sVaux,ne,root,
p2217
I2050
sVapp,ne,obj,root,
p2218
I669
sVadjunct,aux,conjunct,obj,root,
p2219
I1560
sVadjunct,comp,comp_fin,comp_inf,refl,root,
p2220
I1436
sVconjunct,obj,refl,root,
p2221
I1586
sVadjunct,app,conjunct,pd,punct,root,subj,
p2222
I1496
sVadjunct,comp,obj,subj,
p2223
I1663
sVcomp,conjunct,obj,punct,root,
p2224
I1062
sVadjunct_qt,conjunct,root,
p2225
I117
sVadjunct_rc,comp_inf,obj,obj_th,root,
p2226
I1434
sVadjunct,adjunct_compar,comp,comp_ag,conjunct,ne,root,
p2227
I509
sVapp,cond,obj,root,
p2228
I419
sVaux,comp,comp_fin,conjunct,root,
p2229
I394
sVaux,comp,comp_fin,comp_inf,conjunct,root,
p2230
I728
sVadjunct,adjunct_rc,comp,conjunct,root,
p2231
I300
sVcomp,conjunct,root,subj,
p2232
I626
sVadjunct,adjunct_qt,conjunct,mwe,root,
p2233
I923
sVadjunct,app,comp,comp_fin,comp_inf,ne,obj,root,subj,
p2234
I1707
sVabbrev_punct,root,subj,
p2235
I91
sVadjunct,comp_fin,punct,root,subj,
p2236
I222
sVcomp_fin,pd,root,
p2237
I251
sVadjunct_qt,ne,root,
p2238
I1607
sVadjunct_qt,comp,pd,root,
p2239
I1445
sVadjunct,adjunct_qt,comp,comp_fin,conjunct,obj,root,subj,
p2240
I2034
sVadjunct_qt,comp,comp_fin,comp_inf,obj,pd,root,subj,
p2241
I1468
sVadjunct,comp,mwe,obj,punct,root,subj,
p2242
I1408
sVadjunct,comp,comp_fin,mwe,obj,punct,root,subj,
p2243
I2078
sVadjunct_compar,app,comp,punct,root,
p2244
I973
sVadjunct,adjunct_rc,comp,comp_inf,refl,root,subj,
p2245
I1326
sVapp,obj_th,punct,root,subj,
p2246
I2030
sVadjunct,adjunct_compar,comp_fin,comp_inf,conjunct,root,
p2247
I1535
sVabbrev_punct,ne,root,
p2248
I1052
sVcomp_fin,mwe,obj,root,
p2249
I1983
sVadjunct,adjunct_rc,comp,comp_ag,conjunct,mwe,ne,root,
p2250
I1618
sVadjunct_qt,neg,root,
p2251
I785
sVadjunct,comp,pd,root,subj,
p2252
I587
sVadjunct_compar,comp,comp_fin,conjunct,root,
p2253
I1598
sVaglt,cond,root,subj,
p2254
I952
sVabbrev_punct,adjunct,root,subj,
p2255
I7
sVadjunct,comp,comp_inf,conjunct,obj,pd,root,subj,
p2256
I84
sVapp,mwe,ne,root,
p2257
I1513
sVadjunct,adjunct_rc,comp,conjunct,pd,root,subj,
p2258
I839
sVadjunct,item,root,
p2259
I2015
sVadjunct,comp_fin,conjunct,obj_th,pd,root,
p2260
I1000
sVadjunct,adjunct_qt,pd,root,
p2261
I255
sVcomp_fin,conjunct,mwe,root,
p2262
I397
sVadjunct,adjunct_rc,aglt,comp,obj_th,root,
p2263
I1120
sVadjunct_rc,app,obj,root,
p2264
I1702
sVadjunct,comp_fin,conjunct,obj,pd,root,
p2265
I1876
sVadjunct_rc,app,conjunct,pd,root,subj,
p2266
I797
sVcomp,comp_inf,root,subj,
p2267
I1275
sVadjunct,comp,comp_ag,root,
p2268
I274
sVadjunct,adjunct_rc,app,punct,root,subj,
p2269
I1270
sVadjunct,comp,conjunct,mwe,punct,root,
p2270
I547
sVcomp,comp_fin,comp_inf,conjunct,mwe,obj,root,subj,
p2271
I1300
sVadjunct,conjunct,pd,root,
p2272
I217
sVadjunct,comp_fin,mwe,refl,root,
p2273
I768
sVadjunct,mwe,obj,obj_th,root,
p2274
I1649
sVadjunct,comp,comp_inf,obj,obj_th,root,
p2275
I1285
sVadjunct,comp,comp_inf,obj_th,root,
p2276
I1278
sVadjunct,comp,obj,root,
p2277
I319
sVcomp,obj,root,
p2278
I76
sVadjunct,comp_inf,conjunct,mwe,obj,root,
p2279
I872
sVadjunct,app,conjunct,obj,root,subj,
p2280
I377
sVadjunct,comp_fin,comp_inf,conjunct,punct,root,
p2281
I1395
sVadjunct_compar,aglt,comp_fin,root,
p2282
I1550
sVabbrev_punct,adjunct,comp,obj_th,root,subj,
p2283
I1834
sVadjunct,app,comp,comp_fin,conjunct,obj,refl,root,subj,
p2284
I69
sVadjunct,comp,conjunct,obj,punct,root,
p2285
I463
sVadjunct,comp,comp_inf,conjunct,mwe,obj_th,root,
p2286
I1655
sVadjunct,conjunct,imp,root,
p2287
I1996
sVadjunct_qt,comp,comp_inf,obj,root,
p2288
I1685
sVadjunct,adjunct_rc,app,root,subj,
p2289
I1271
sVadjunct_qt,comp,root,subj,
p2290
I1583
sVadjunct,app,conjunct,ne,root,
p2291
I771
sVapp,obj_th,root,subj,
p2292
I2031
sVadjunct,adjunct_rc,comp_inf,conjunct,root,
p2293
I1932
sVadjunct,obj,punct,root,
p2294
I273
sVadjunct,app,comp,comp_fin,conjunct,ne,obj,obj_th,root,subj,
p2295
I68
sVadjunct,comp,comp_fin,pd,punct,root,
p2296
I1116
sVadjunct,app,comp,conjunct,ne,obj,root,subj,
p2297
I1949
sVadjunct,adjunct_compar,app,comp,conjunct,mwe,root,subj,
p2298
I1386
sVadjunct,adjunct_compar,comp,pd,root,subj,
p2299
I1519
sVcomp,comp_fin,comp_inf,conjunct,pd,root,
p2300
I1222
sVadjunct,aux,comp,comp_inf,root,
p2301
I837
sVadjunct,adjunct_rc,comp,conjunct,obj,refl,root,
p2302
I1045
sVaux,comp_fin,conjunct,root,subj,
p2303
I1345
sVcomp,comp_ag,comp_fin,root,
p2304
I1998
sVadjunct_qt,conjunct,obj_th,root,
p2305
I227
sVadjunct,adjunct_rc,comp,comp_inf,conjunct,neg,root,
p2306
I296
sVadjunct_compar,comp_fin,punct,root,
p2307
I1959
sVadjunct_qt,app,root,
p2308
I1444
sVadjunct,app,refl,root,subj,
p2309
I795
sVadjunct,adjunct_qt,app,conjunct,punct,root,
p2310
I1987
sVaglt,comp,root,
p2311
I1078
sVcomp,comp_fin,comp_inf,pd,root,
p2312
I986
sVadjunct,app,comp,ne,root,
p2313
I410
sVadjunct,comp_ag,pd,root,
p2314
I1417
sVadjunct,comp,obj,punct,refl,root,
p2315
I1407
sVcomp_fin,obj_th,punct,root,subj,
p2316
I1097
sVadjunct_rc,conjunct,root,subj,
p2317
I1332
sVapp,comp,comp_fin,conjunct,ne,root,subj,
p2318
I2005
sVabbrev_punct,comp,ne,root,
p2319
I998
sVadjunct,comp_fin,comp_inf,conjunct,root,subj,
p2320
I1262
sVadjunct,comp,comp_fin,conjunct,ne,obj,root,
p2321
I1795
sVadjunct,comp,mwe,pd,root,
p2322
I1312
sVadjunct,adjunct_qt,comp,conjunct,mwe,obj_th,root,
p2323
I830
sVcomp_fin,conjunct,mwe,obj,root,
p2324
I1982
sVabbrev_punct,adjunct,adjunct_qt,conjunct,root,subj,
p2325
I822
sVadjunct,cond,obj,root,
p2326
I1988
sVadjunct,comp,ne,obj_th,root,
p2327
I880
sVadjunct,aux,comp,conjunct,punct,root,
p2328
I937
sVadjunct,app,comp,comp_fin,conjunct,root,subj,
p2329
I983
sVcomp,punct,
p2330
I810
sVadjunct,app,comp,comp_fin,root,
p2331
I851
sVadjunct,adjunct_qt,app,comp,root,
p2332
I918
sVadjunct_rc,conjunct,root,
p2333
I1733
sVadjunct,app,comp,comp_fin,refl,root,
p2334
I1215
sVadjunct,comp_inf,obj_th,root,subj,
p2335
I1573
sVadjunct,comp,conjunct,neg,obj,root,
p2336
I1044
sVabbrev_punct,adjunct,app,comp,conjunct,root,
p2337
I1037
sVadjunct_qt,comp,comp_fin,conjunct,obj,root,
p2338
I1633
sVaux,comp_fin,root,subj,
p2339
I1358
sVadjunct_qt,conjunct,obj,root,
p2340
I119
sVadjunct,adjunct_rc,app,comp,comp_fin,conjunct,ne,obj,root,subj,
p2341
I63
sVadjunct,adjunct_qt,adjunct_rc,comp,mwe,root,
p2342
I1308
sVcomp_fin,obj,root,
p2343
I538
sVadjunct,neg,obj,root,
p2344
I1511
sVadjunct,adjunct_rc,app,conjunct,punct,root,subj,
p2345
I1818
sVadjunct,adjunct_rc,root,
p2346
I415
sVapp,comp,conjunct,ne,punct,root,
p2347
I1243
sVadjunct,app,comp,obj,punct,root,
p2348
I73
sVcomp,conjunct,obj,root,subj,
p2349
I670
sVabbrev_punct,adjunct,adjunct_compar,comp,conjunct,obj,root,subj,
p2350
I1365
sVcomp_inf,conjunct,obj,obj_th,root,
p2351
I1411
sVadjunct,adjunct_qt,adjunct_rc,comp_fin,root,subj,
p2352
I1319
sVadjunct,aux,comp_inf,root,
p2353
I1978
sVcomp_fin,punct,refl,root,
p2354
I1098
sVadjunct,ne,root,subj,
p2355
I9
sVadjunct,comp_fin,comp_inf,obj_th,punct,root,subj,
p2356
I1095
sVadjunct,adjunct_rc,app,comp,comp_inf,conjunct,obj,root,
p2357
I740
sVadjunct,adjunct_compar,comp,comp_fin,conjunct,refl,root,
p2358
I2017
sVadjunct,comp,comp_fin,obj,punct,root,
p2359
I1132
sVadjunct_qt,pd,punct,root,
p2360
I2111
sVcomp_fin,comp_inf,obj,root,subj,
p2361
I1912
sVcond,root,subj,
p2362
I951
sVadjunct,comp,ne,obj,root,subj,
p2363
I577
sVadjunct,adjunct_rc,comp,comp_fin,comp_inf,root,subj,
p2364
I2103
sVcomp,comp_fin,conjunct,obj,root,
p2365
I540
sVadjunct,adjunct_compar,comp_fin,conjunct,root,subj,
p2366
I1778
sVadjunct,aglt,pd,root,
p2367
I1413
sVadjunct,app,ne,root,subj,
p2368
I806
sVadjunct,ne,pd,root,
p2369
I528
sVcomp,conjunct,root,
p2370
I33
sVcomp,mwe,obj,pd,punct,root,
p2371
I1900
sVmwe,
p2372
I1554
sVabbrev_punct,adjunct,ne,root,subj,
p2373
I516
sVadjunct_qt,comp,conjunct,obj,obj_th,root,
p2374
I230
sVadjunct_qt,comp_fin,comp_inf,obj_th,root,
p2375
I1940
sVadjunct_rc,refl,root,
p2376
I1399
sVadjunct,comp,comp_fin,comp_inf,
p2377
I1668
sVadjunct,comp_inf,conjunct,obj,obj_th,root,
p2378
I874
sVabbrev_punct,adjunct,comp,root,
p2379
I435
sVadjunct_rc,comp,conjunct,root,subj,
p2380
I1510
sVadjunct,comp_inf,conjunct,obj_th,root,
p2381
I871
sVadjunct,comp,conjunct,mwe,
p2382
I1657
sVadjunct,comp_fin,conjunct,obj,root,subj,
p2383
I635
sVapp,mwe,root,subj,
p2384
I2085
sVabbrev_punct,adjunct,comp,comp_fin,
p2385
I815
sVadjunct,refl,root,
p2386
I493
sVcomp_inf,obj,obj_th,root,
p2387
I1484
sVadjunct,adjunct_rc,comp,comp_fin,root,
p2388
I447
sVadjunct,obj,refl,root,
p2389
I1089
sVadjunct,conjunct,obj,obj_th,root,subj,
p2390
I1758
sVadjunct,adjunct_rc,comp,conjunct,obj_th,root,subj,
p2391
I1506
sVadjunct,adjunct_qt,comp,comp_fin,obj,refl,root,subj,
p2392
I980
sVadjunct,comp,comp_fin,obj,root,
p2393
I51
sVadjunct,conjunct,obj_th,pd,root,
p2394
I699
sVadjunct,adjunct_qt,app,ne,root,
p2395
I472
sVadjunct,comp_fin,ne,obj,root,
p2396
I2058
sVadjunct_rc,comp_fin,conjunct,obj,root,subj,
p2397
I845
sVadjunct,app,comp,mwe,root,
p2398
I643
sVadjunct,app,obj,punct,root,
p2399
I1274
sVadjunct_compar,comp,comp_fin,comp_inf,root,
p2400
I1955
sVcond,conjunct,root,
p2401
I1311
sVitem,mwe,root,
p2402
I915
sVadjunct,adjunct_qt,adjunct_rc,pd,root,
p2403
I1501
sVadjunct,comp_fin,neg,root,
p2404
I919
sVadjunct,adjunct_qt,comp,
p2405
I1677
sVadjunct,comp,conjunct,ne,punct,root,
p2406
I1001
sVadjunct,adjunct_qt,comp,punct,root,
p2407
I754
sVcomp,comp_fin,conjunct,mwe,root,
p2408
I958
sVcomp,comp_fin,obj,refl,root,
p2409
I645
sVadjunct_qt,adjunct_rc,obj,root,subj,
p2410
I1321
sVadjunct,comp_inf,conjunct,obj_th,root,subj,
p2411
I1204
sVaux,comp,comp_fin,obj,root,
p2412
I1382
sVadjunct_rc,conjunct,pd,root,subj,
p2413
I622
sVabbrev_punct,adjunct,comp,conjunct,root,
p2414
I515
sVadjunct,conjunct,
p2415
I1862
sVcomp,comp_ag,conjunct,ne,root,
p2416
I1504
sVadjunct,adjunct_qt,adjunct_rc,comp,obj,root,
p2417
I1718
sVadjunct,comp,comp_fin,comp_inf,obj,root,subj,
p2418
I1191
sVcomp,comp_ag,pd,root,
p2419
I1793
sVneg,root,subj,
p2420
I1929
sVcomp,conjunct,punct,root,subj,
p2421
I1908
sVadjunct,comp,comp_inf,conjunct,refl,root,
p2422
I641
sVpd,refl,root,
p2423
I1525
sVadjunct,adjunct_compar,comp,comp_inf,conjunct,mwe,root,
p2424
I908
sVadjunct_compar,comp,comp_inf,conjunct,root,subj,
p2425
I910
sVadjunct,adjunct_qt,app,comp,mwe,root,
p2426
I1681
sVadjunct_qt,conjunct,pd,root,subj,
p2427
I2109
sVadjunct,app,conjunct,ne,obj,root,
p2428
I1074
sVadjunct,comp,comp_inf,mwe,obj,pd,root,
p2429
I457
sVadjunct,adjunct_qt,conjunct,root,subj,
p2430
I485
sVadjunct,punct,root,
p2431
I11
sVadjunct,adjunct_qt,conjunct,mwe,punct,root,
p2432
I1007
sVadjunct,comp,comp_fin,comp_inf,conjunct,obj,pd,root,
p2433
I1134
sVaglt,conjunct,root,
p2434
I288
sVadjunct_qt,adjunct_rc,comp_fin,root,subj,
p2435
I1318
sVcomp,comp_fin,obj,obj_th,root,
p2436
I317
sVaux,comp_inf,root,
p2437
I609
sVaux,comp_inf,conjunct,root,
p2438
I836
sVadjunct,comp,comp_fin,comp_inf,conjunct,obj_th,refl,root,
p2439
I1882
sVadjunct,comp_fin,conjunct,refl,root,subj,
p2440
I1881
sVabbrev_punct,adjunct,ne,pd,root,
p2441
I337
sVadjunct_rc,obj,root,
p2442
I503
sVadjunct,adjunct_qt,aglt,root,
p2443
I1945
sVadjunct_qt,obj_th,root,
p2444
I675
sVadjunct,adjunct_rc,comp,comp_ag,conjunct,root,
p2445
I1616
sVadjunct,adjunct_qt,conjunct,mwe,root,subj,
p2446
I823
sVadjunct,comp,pre_coord,root,
p2447
I1396
sVadjunct_rc,conjunct,mwe,ne,root,subj,
p2448
I1296
sVabbrev_punct,adjunct,comp,obj,root,
p2449
I579
sVadjunct_qt,comp,comp_fin,conjunct,punct,root,
p2450
I2019
sVadjunct_rc,comp,comp_inf,conjunct,obj,root,subj,
p2451
I960
sVcomp,conjunct,obj,obj_th,root,
p2452
I942
sVadjunct,aglt,comp,comp_fin,comp_inf,root,
p2453
I1150
sVapp,obj_th,root,
p2454
I762
sVadjunct,adjunct_compar,comp,root,
p2455
I850
sVabbrev_punct,adjunct,app,comp,comp_fin,ne,root,subj,
p2456
I1711
sVcomp,comp_inf,conjunct,mwe,root,
p2457
I1473
sVadjunct,obj,root,
p2458
I30
sVadjunct_qt,aux,conjunct,root,
p2459
I205
sVadjunct,conjunct,obj,root,subj,
p2460
I140
sVadjunct_qt,item,root,
p2461
I1975
sVabbrev_punct,adjunct,comp,comp_fin,ne,root,
p2462
I1775
sVadjunct,adjunct_rc,comp_fin,root,
p2463
I2012
sVadjunct,adjunct_compar,comp,comp_inf,conjunct,obj,pd,root,
p2464
I1372
sVadjunct_qt,comp_fin,refl,root,
p2465
I928
sVadjunct,adjunct_qt,conjunct,obj_th,root,
p2466
I1313
sVobj,refl,root,
p2467
I1426
sVadjunct_rc,comp,conjunct,obj,root,subj,
p2468
I1438
sVadjunct,aglt,comp_inf,conjunct,obj,root,
p2469
I1729
sVadjunct,adjunct_qt,comp_fin,root,
p2470
I777
sVadjunct,adjunct_compar,comp,conjunct,root,subj,
p2471
I1286
sVadjunct,comp,comp_fin,comp_inf,obj,punct,root,
p2472
I1339
sVcomp,mwe,root,
p2473
I796
sVadjunct,adjunct_qt,comp,conjunct,root,
p2474
I207
sVcomp,comp_inf,ne,obj,root,
p2475
I1305
sVadjunct_compar,adjunct_qt,comp,comp_fin,comp_inf,obj,pd,root,subj,
p2476
I1467
sVadjunct,aux,comp_inf,conjunct,root,
p2477
I676
sVadjunct,conjunct,mwe,root,
p2478
I393
sVadjunct,app,comp,conjunct,obj_th,punct,root,subj,
p2479
I1165
sVadjunct,comp,obj,obj_th,punct,root,
p2480
I1543
sVadjunct,comp_fin,conjunct,obj,obj_th,refl,root,
p2481
I1425
sVadjunct,adjunct_rc,ne,pd,root,
p2482
I1820
sVabbrev_punct,app,root,
p2483
I474
sVadjunct,adjunct_rc,comp,cond,obj,root,subj,
p2484
I1879
sVadjunct,comp_inf,conjunct,obj,root,subj,
p2485
I842
sVcomp_fin,comp_inf,conjunct,root,
p2486
I276
sVabbrev_punct,adjunct,comp,conjunct,obj,root,subj,
p2487
I1181
sVadjunct,comp,comp_fin,mwe,obj,root,
p2488
I530
sVadjunct,adjunct_qt,adjunct_rc,obj,punct,root,
p2489
I1717
sVadjunct,comp,ne,pd,punct,root,
p2490
I691
sVadjunct,mwe,root,
p2491
I348
sVadjunct,conjunct,punct,
p2492
I1858
sVadjunct,adjunct_qt,punct,root,
p2493
I478
sVadjunct,comp,conjunct,mwe,punct,root,subj,
p2494
I1383
sVadjunct_qt,conjunct,obj,obj_th,root,
p2495
I229
sVadjunct,adjunct_compar,app,comp,root,
p2496
I974
sVadjunct_qt,conjunct,ne,root,
p2497
I514
sVconjunct,ne,punct,root,
p2498
I1751
sVadjunct,adjunct_compar,comp,conjunct,mwe,punct,root,
p2499
I2075
sVcomp,comp_fin,comp_inf,conjunct,root,
p2500
I185
sVadjunct,adjunct_rc,app,comp,conjunct,pd,punct,root,
p2501
I659
sVadjunct,app,comp,conjunct,ne,obj,root,
p2502
I787
sVadjunct,adjunct_rc,comp,comp_inf,conjunct,obj_th,root,
p2503
I295
sVadjunct,comp,comp_ag,conjunct,obj_th,punct,root,
p2504
I1889
sVadjunct,comp_fin,conjunct,obj,punct,root,
p2505
I1142
sVadjunct,comp,comp_fin,
p2506
I814
sVabbrev_punct,adjunct,comp,comp_fin,comp_inf,conjunct,obj,root,
p2507
I1613
sVadjunct,app,conjunct,pd,punct,root,
p2508
I1177
sVadjunct_rc,comp_fin,mwe,pd,punct,root,
p2509
I406
sVadjunct,app,comp_inf,ne,obj,root,
p2510
I1168
sVadjunct,comp,comp_fin,comp_inf,obj_th,root,
p2511
I853
sVadjunct,aux,comp_inf,conjunct,mwe,obj_th,root,
p2512
I1653
sVmwe,punct,root,
p2513
I1276
sVadjunct,app,comp,comp_ag,conjunct,obj,root,subj,
p2514
I379
sVadjunct,comp_inf,obj,root,
p2515
I181
sVadjunct,adjunct_qt,comp_fin,conjunct,root,
p2516
I1770
sVadjunct,adjunct_rc,obj,root,subj,
p2517
I767
sVadjunct,comp,mwe,obj,root,subj,
p2518
I312
sVadjunct,comp,conjunct,pd,refl,root,
p2519
I1544
sVadjunct,app,comp,conjunct,mwe,root,subj,
p2520
I465
sVcomp_fin,comp_inf,conjunct,punct,root,
p2521
I734
sVadjunct,adjunct_rc,conjunct,root,subj,
p2522
I1178
sVcomp,comp_fin,conjunct,obj,punct,root,
p2523
I1143
sVapp,comp_fin,root,subj,
p2524
I1556
sVabbrev_punct,adjunct,comp,conjunct,mwe,root,
p2525
I1261
sVapp,conjunct,obj,punct,root,
p2526
I969
sVadjunct,adjunct_qt,adjunct_rc,app,punct,root,
p2527
I1454
sVadjunct,app,comp,pd,root,
p2528
I36
sVadjunct_qt,punct,root,subj,
p2529
I1594
sVadjunct,adjunct_rc,comp,comp_inf,root,
p2530
I1217
sVadjunct,app,comp,conjunct,obj,punct,root,subj,
p2531
I1387
sVcomp_fin,conjunct,obj,obj_th,root,
p2532
I358
sVadjunct,comp_fin,cond,root,
p2533
I774
sVadjunct,ne,obj,pd,root,
p2534
I654
sVadjunct,adjunct_qt,comp_fin,mwe,punct,root,
p2535
I96
sVadjunct,adjunct_qt,adjunct_rc,aux,conjunct,root,subj,
p2536
I989
sVadjunct,comp,mwe,punct,root,subj,
p2537
I1397
sVadjunct,app,comp_ag,root,
p2538
I1241
sVadjunct_rc,comp_fin,conjunct,root,
p2539
I1059
sVadjunct,adjunct_rc,comp_fin,obj,obj_th,pd,root,
p2540
I1207
sVadjunct,comp,comp_fin,mwe,punct,root,
p2541
I861
sVadjunct,comp,comp_inf,conjunct,root,
p2542
I203
sVadjunct,adjunct_compar,adjunct_qt,comp_fin,comp_inf,conjunct,punct,root,
p2543
I1537
sVadjunct,comp,comp_inf,obj,root,
p2544
I188
sVadjunct,adjunct_qt,conjunct,pd,root,subj,
p2545
I1187
sVadjunct,adjunct_rc,punct,root,
p2546
I414
sVadjunct_rc,comp,comp_fin,conjunct,obj,root,subj,
p2547
I847
sVabbrev_punct,app,conjunct,ne,root,
p2548
I1796
sVcomp_inf,punct,root,
p2549
I608
sVadjunct,app,conjunct,ne,punct,root,
p2550
I1330
sVadjunct,app,comp,comp_fin,obj,punct,root,subj,
p2551
I70
sVadjunct_qt,comp,comp_fin,comp_inf,obj,root,
p2552
I717
sVapp,ne,root,subj,
p2553
I260
sVadjunct,conjunct,subj,
p2554
I1860
sVadjunct,adjunct_rc,pd,root,
p2555
I933
sVadjunct,adjunct_compar,conjunct,root,
p2556
I2052
sVadjunct_qt,comp,comp_inf,punct,root,
p2557
I1471
sVadjunct,comp,comp_fin,comp_inf,root,subj,
p2558
I1192
sVadjunct,aglt,root,
p2559
I702
sVadjunct_qt,comp_fin,root,subj,
p2560
I929
sVconjunct,punct,root,
p2561
I120
sVadjunct,app,comp_fin,ne,obj,root,
p2562
I2084
sVadjunct,app,comp,comp_fin,punct,root,
p2563
I1214
sVadjunct_compar,comp_inf,root,
p2564
I1954
sVcomp_fin,conjunct,pd,root,
p2565
I631
sVadjunct,comp_inf,obj,root,subj,
p2566
I1349
sVadjunct,neg,obj_th,root,
p2567
I242
sVcomp,comp_inf,conjunct,punct,root,
p2568
I183
sVadjunct,adjunct_compar,punct,root,subj,
p2569
I1947
sVadjunct,comp,comp_ag,obj_th,root,
p2570
I350
sVabbrev_punct,adjunct,comp,ne,root,
p2571
I756
sVadjunct_compar,comp,comp_fin,ne,root,
p2572
I1958
sVadjunct,adjunct_rc,comp,conjunct,refl,root,
p2573
I301
sVcomp,comp_fin,comp_inf,conjunct,neg,root,
p2574
I1464
sVadjunct,comp,mwe,obj_th,root,
p2575
I1844
sVapp,obj,root,
p2576
I421
sVadjunct,app,comp,comp_fin,conjunct,obj,root,subj,
p2577
I71
sVadjunct,adjunct_qt,app,mwe,root,
p2578
I1725
sVadjunct_compar,obj,root,
p2579
I2026
sVadjunct,app,comp,comp_fin,conjunct,obj,punct,root,subj,
p2580
I81
sVapp,comp,comp_ag,ne,root,
p2581
I1604
sVcomp,refl,root,
p2582
I644
sVadjunct,comp_fin,comp_inf,obj,obj_th,punct,root,
p2583
I1565
sVadjunct_rc,conjunct,neg,pd,root,
p2584
I1765
sVadjunct,app,conjunct,obj,pd,root,
p2585
I596
sVadjunct,comp,comp_fin,conjunct,ne,pd,root,
p2586
I1922
sVcomp,conjunct,mwe,ne,root,
p2587
I921
sVadjunct_qt,comp_fin,mwe,refl,root,
p2588
I111
sVadjunct,app,comp,comp_fin,conjunct,obj,punct,root,
p2589
I1437
sVcomp,obj_th,refl,root,
p2590
I1640
sVadjunct,app,punct,root,
p2591
I408
sVcomp,conjunct,neg,root,
p2592
I1402
sVadjunct,adjunct_qt,comp,conjunct,obj_th,root,
p2593
I828
sVadjunct,aux,comp,comp_fin,conjunct,neg,root,
p2594
I1233
sVconjunct,pd,refl,root,
p2595
I580
sVcomp_inf,conjunct,punct,root,
p2596
I138
sVadjunct,app,comp,conjunct,mwe,ne,obj,punct,root,
p2597
I926
sVadjunct,comp,mwe,ne,obj,root,subj,
p2598
I884
sVpd,root,subj,
p2599
I658
sVadjunct,comp_fin,obj,root,subj,
p2600
I1064
sVadjunct,adjunct_qt,adjunct_rc,comp,root,subj,
p2601
I993
sVadjunct,comp,conjunct,pd,punct,root,
p2602
I551
sVcomp_fin,comp_inf,conjunct,obj,root,subj,
p2603
I322
sVadjunct,comp,conjunct,root,subj,
p2604
I88
sVadjunct_rc,comp,comp_inf,conjunct,root,subj,
p2605
I137
sVadjunct,comp_fin,conjunct,punct,root,
p2606
I277
sVabbrev_punct,adjunct,conjunct,pd,root,
p2607
I336
sVapp,comp,comp_ag,punct,root,
p2608
I1602
sVadjunct,comp,comp_ag,mwe,root,
p2609
I479
sVadjunct_rc,app,cond,conjunct,obj,root,
p2610
I737
sVadjunct,comp_fin,conjunct,obj_th,punct,root,
p2611
I1122
sVcomp_fin,conjunct,root,subj,
p2612
I122
sVadjunct,comp_fin,pd,root,
p2613
I250
sVcomp_fin,pd,refl,root,
p2614
I1210
sVadjunct,comp,comp_fin,conjunct,refl,root,
p2615
I404
sVadjunct,comp,comp_ag,conjunct,obj,root,
p2616
I1006
sVcomp,pd,punct,root,
p2617
I1118
sVabbrev_punct,ne,pd,root,
p2618
I2073
sVadjunct_compar,comp,comp_inf,conjunct,refl,root,
p2619
I904
sVadjunct,comp,comp_inf,punct,root,
p2620
I724
sVadjunct,app,punct,root,subj,
p2621
I438
sVadjunct,comp,comp_inf,root,subj,
p2622
I610
sVcomp,comp_ag,comp_inf,conjunct,root,
p2623
I1692
sVadjunct_rc,comp,conjunct,pd,root,
p2624
I1760
sVadjunct,comp,comp_fin,comp_inf,conjunct,obj,root,subj,
p2625
I193
sVobj_th,root,subj,
p2626
I892
sVadjunct,aux,comp_fin,comp_inf,conjunct,root,
p2627
I1745
sVadjunct_qt,aglt,root,
p2628
I1944
sVadjunct,comp,pd,root,
p2629
I15
sVadjunct,adjunct_compar,comp,root,subj,
p2630
I1367
sVadjunct_qt,comp,mwe,obj,root,
p2631
I1904
sVadjunct,adjunct_rc,conjunct,pd,punct,root,subj,
p2632
I792
sVcomp,comp_fin,cond,root,
p2633
I1352
sVadjunct,app,comp,obj,root,subj,
p2634
I384
sVapp,conjunct,ne,obj,root,
p2635
I542
sVabbrev_punct,adjunct_qt,conjunct,ne,root,
p2636
I513
sVcomp_inf,mwe,root,
p2637
I1416
sVabbrev_punct,adjunct,conjunct,obj,root,subj,
p2638
I1368
sVadjunct_compar,app,comp,conjunct,root,
p2639
I2126
sVadjunct_qt,app,mwe,punct,root,
p2640
I1724
sVadjunct_compar,comp_fin,root,
p2641
I1551
sVadjunct,app,comp,conjunct,mwe,obj_th,root,subj,
p2642
I1164
sVadjunct_qt,aux,conjunct,obj,root,
p2643
I314
sVconjunct,ne,obj,root,
p2644
I977
sVadjunct,comp_inf,mwe,obj,root,
p2645
I1698
sVabbrev_punct,adjunct,conjunct,ne,obj,obj_th,root,
p2646
I1789
sVadjunct,adjunct_rc,ne,obj,root,
p2647
I452
sVconjunct,obj_th,root,subj,
p2648
I1197
sVadjunct_qt,comp,comp_ag,root,
p2649
I1972
sVadjunct,comp_fin,pre_coord,root,subj,
p2650
I1136
sVadjunct,comp,comp_fin,ne,root,subj,
p2651
I1359
sVadjunct_compar,comp,comp_fin,punct,root,
p2652
I173
sVadjunct,adjunct_compar,comp,pd,root,
p2653
I1113
sVadjunct,app,comp,root,
p2654
I264
sVcomp_fin,root,subj,
p2655
I252
sVabbrev_punct,adjunct_qt,root,
p2656
I1609
sVadjunct,adjunct_qt,conjunct,pd,root,
p2657
I1188
sVadjunct,adjunct_rc,conjunct,neg,root,
p2658
I1896
sVadjunct_qt,comp_fin,comp_inf,punct,root,
p2659
I1942
sVadjunct,adjunct_rc,comp_fin,comp_inf,conjunct,pd,root,
p2660
I1161
sVabbrev_punct,adjunct_qt,conjunct,mwe,obj_th,root,
p2661
I831
sVadjunct,comp_fin,comp_inf,punct,root,
p2662
I159
sVcomp_inf,obj,refl,root,
p2663
I1483
sVconjunct,root,
p2664
I20
sVcomp,comp_fin,conjunct,mwe,root,subj,
p2665
I957
sVcomp_inf,conjunct,root,
p2666
I130
sVadjunct,comp_fin,comp_inf,obj,refl,root,
p2667
I947
sVadjunct_qt,root,subj,
p2668
I209
sVadjunct_qt,comp,comp_fin,conjunct,root,subj,
p2669
I2039
sVadjunct,comp,comp_fin,conjunct,pd,refl,root,
p2670
I1224
sVadjunct,app,comp,comp_inf,punct,root,
p2671
I43
sVadjunct_rc,comp,conjunct,obj,root,
p2672
I1440
sVadjunct,adjunct_qt,adjunct_rc,comp_fin,conjunct,obj,pd,root,
p2673
I600
sVadjunct,adjunct_rc,comp,mwe,ne,obj,punct,root,subj,
p2674
I1405
sVadjunct,comp_fin,comp_inf,conjunct,mwe,obj,obj_th,root,
p2675
I950
sVadjunct,adjunct_qt,refl,root,
p2676
I875
sVabbrev_punct,adjunct,comp,comp_fin,conjunct,root,subj,
p2677
I1252
sVadjunct_rc,comp,comp_fin,conjunct,root,subj,
p2678
I1735
sVadjunct,adjunct_compar,comp,comp_ag,root,
p2679
I1799
sVadjunct_rc,conjunct,pd,punct,root,
p2680
I621
sVadjunct_qt,comp,comp_fin,root,subj,
p2681
I1487
sVadjunct,adjunct_qt,comp,comp_inf,conjunct,obj,root,
p2682
I1907
sVadjunct,comp,comp_fin,comp_inf,mwe,root,
p2683
I695
sVabbrev_punct,adjunct,comp,conjunct,ne,root,subj,
p2684
I522
sVapp,comp,conjunct,root,subj,
p2685
I690
sVadjunct,conjunct,neg,pd,root,
p2686
I698
sVadjunct,ne,obj_th,root,
p2687
I1559
sVadjunct,comp,obj,pre_coord,root,
p2688
I2053
sVadjunct_qt,comp,mwe,obj,punct,root,
p2689
I1902
sVadjunct_compar,comp,comp_inf,conjunct,pd,root,
p2690
I1374
sVadjunct,comp,conjunct,ne,refl,root,subj,
p2691
I573
sVadjunct,comp,comp_ag,comp_fin,comp_inf,root,
p2692
I1836
sVadjunct,aglt,comp_fin,cond,root,
p2693
I1552
sVadjunct,comp,comp_ag,pd,root,
p2694
I1419
sVadjunct,conjunct,ne,pd,root,subj,
p2695
I1797
sVadjunct_rc,pd,refl,root,
p2696
I1764
sVabbrev_punct,mwe,root,subj,
p2697
I1782
sVadjunct_rc,comp,root,
p2698
I1503
sVadjunct_qt,adjunct_rc,root,
p2699
I619
sVadjunct,comp,comp_ag,pd,root,subj,
p2700
I965
sVadjunct,comp,ne,root,subj,
p2701
I554
sVcomp_fin,comp_inf,conjunct,mwe,obj,root,subj,
p2702
I1299
sVadjunct,adjunct_compar,comp,conjunct,mwe,root,subj,
p2703
I1384
sVadjunct,conjunct,mwe,obj,pd,pre_coord,root,
p2704
I1927
sVadjunct_qt,adjunct_rc,punct,root,subj,
p2705
I1320
sVadjunct,app,comp,conjunct,ne,root,
p2706
I441
sVadjunct,app,comp,conjunct,pd,root,
p2707
I656
sVcomp,ne,obj,root,
p2708
I1297
sVadjunct_qt,app,conjunct,ne,root,
p2709
I1247
sVadjunct,conjunct,neg,root,subj,
p2710
I955
sVadjunct,adjunct_rc,comp_inf,conjunct,obj,pd,root,
p2711
I1924
sVadjunct,adjunct_rc,comp,comp_inf,obj,root,subj,
p2712
I1877
sVadjunct_rc,app,obj,punct,root,
p2713
I1700
sVaux,punct,root,
p2714
I1012
sVadjunct,comp_fin,comp_inf,mwe,root,subj,
p2715
I1697
sVadjunct,comp,root,
p2716
I13
sVadjunct,adjunct_rc,comp,comp_fin,conjunct,ne,obj,root,subj,
p2717
I1145
sVadjunct_qt,comp_inf,conjunct,root,
p2718
I1446
sVmwe,obj_th,root,
p2719
I1753
sVadjunct,adjunct_compar,conjunct,punct,root,subj,
p2720
I2120
sVadjunct,app,conjunct,punct,root,
p2721
I352
sVadjunct,comp_fin,conjunct,mwe,obj,root,
p2722
I1981
sVadjunct,adjunct_qt,aux,comp,conjunct,obj,root,subj,
p2723
I1974
sVabbrev_punct,adjunct,comp,comp_fin,conjunct,mwe,root,subj,
p2724
I169
sVadjunct,comp_fin,punct,root,
p2725
I367
sVadjunct_qt,comp_fin,mwe,root,
p2726
I113
sVabbrev_punct,adjunct,comp,comp_ag,root,subj,
p2727
I2048
sVmwe,obj,punct,root,
p2728
I413
sVadjunct,comp_fin,comp_inf,conjunct,obj,pd,root,
p2729
I161
sVadjunct,aux,root,
p2730
I270
sVadjunct_compar,adjunct_qt,comp,comp_fin,comp_inf,obj,pd,punct,root,subj,
p2731
I1466
sVadjunct_compar,comp,comp_fin,root,
p2732
I174
sVadjunct,aux,comp,comp_fin,pd,root,
p2733
I1871
sVadjunct,conjunct,obj,pd,root,
p2734
I864
sVabbrev_punct,mwe,obj,root,
p2735
I997
sVadjunct,app,ne,obj,root,
p2736
I803
sVadjunct,adjunct_compar,adjunct_qt,comp,conjunct,root,
p2737
I1481
sVadjunct_rc,punct,root,
p2738
I779
sVadjunct,comp,comp_fin,comp_inf,obj_th,subj,
p2739
I1672
sVpd,punct,root,
p2740
I868
sVadjunct_qt,comp,comp_inf,root,
p2741
I1126
sVadjunct,comp_ag,ne,root,
p2742
I1003
sVadjunct,app,conjunct,obj,punct,root,
p2743
I1073
sVadjunct,conjunct,punct,root,subj,
p2744
I289
sVadjunct_qt,comp_inf,conjunct,refl,root,
p2745
I1840
sVadjunct,adjunct_compar,comp,conjunct,obj,root,
p2746
I1971
sVadjunct_qt,aux,comp_inf,refl,root,
p2747
I782
sVadjunct,comp,comp_fin,ne,pd,root,subj,
p2748
I1522
sVadjunct,comp,conjunct,mwe,pd,punct,root,
p2749
I862
sVadjunct,adjunct_rc,conjunct,obj,pd,root,
p2750
I623
sVabbrev_punct,adjunct,app,comp,ne,root,
p2751
I1028
sVadjunct,adjunct_compar,comp,comp_fin,conjunct,mwe,ne,obj,root,subj,
p2752
I2077
sVadjunct,adjunct_rc,comp,comp_fin,comp_inf,obj,root,subj,
p2753
I1084
sVcomp,comp_fin,comp_inf,obj,refl,root,
p2754
I859
sVadjunct,app,comp_inf,pd,punct,root,
p2755
I749
sVadjunct,adjunct_rc,comp,comp_fin,punct,root,subj,
p2756
I2104
sVapp,comp,comp_fin,ne,root,subj,
p2757
I1709
sVcomp_ag,root,
p2758
I281
sVadjunct,adjunct_rc,app,ne,root,subj,
p2759
I1021
sVadjunct,adjunct_qt,comp,comp_ag,comp_fin,mwe,root,
p2760
I198
sVadjunct,comp_fin,conjunct,obj,refl,root,
p2761
I1227
sVadjunct,adjunct_qt,comp,conjunct,ne,root,
p2762
I487
sVcomp,comp_fin,root,subj,
p2763
I178
sVcomp,obj,punct,root,
p2764
I1340
sVcomp,conjunct,obj,obj_th,punct,root,
p2765
I1033
sVadjunct,adjunct_rc,comp_fin,obj,root,
p2766
I2010
sVadjunct,comp_ag,conjunct,punct,root,
p2767
I1920
sVadjunct,adjunct_qt,comp_fin,punct,root,
p2768
I589
sVadjunct,obj,pd,root,
p2769
I380
sVcomp,root,
p2770
I31
sVadjunct,comp_fin,pd,root,subj,
p2771
I1979
sVadjunct_rc,comp_fin,conjunct,root,subj,
p2772
I1742
sVcomp_ag,obj,root,
p2773
I1666
sVcomp,comp_fin,conjunct,obj_th,refl,root,
p2774
I1156
sVadjunct_rc,comp,comp_inf,conjunct,root,
p2775
I139
sVadjunct,adjunct_compar,adjunct_qt,comp,comp_fin,conjunct,root,subj,
p2776
I1688
sVadjunct_rc,comp,comp_fin,conjunct,punct,root,subj,
p2777
I1737
sVadjunct_rc,comp,comp_fin,neg,root,subj,
p2778
I1627
sVadjunct,comp_inf,ne,pd,root,
p2779
I748
sVadjunct,comp_fin,comp_inf,conjunct,obj,punct,root,subj,
p2780
I491
sVabbrev_punct,adjunct,comp,comp_fin,conjunct,ne,obj_th,root,
p2781
I1622
sVcomp,conjunct,mwe,ne,obj,root,
p2782
I1888
sVadjunct,comp,comp_fin,mwe,obj,punct,root,
p2783
I1691
sVadjunct,aux,conjunct,punct,root,
p2784
I1919
sVadjunct,comp,comp_fin,mwe,obj,root,subj,
p2785
I1533
sVadjunct,adjunct_rc,comp,comp_fin,root,subj,
p2786
I2102
sVadjunct,aux,comp,conjunct,root,
p2787
I634
sVadjunct_qt,comp,comp_fin,mwe,pd,root,
p2788
I115
sVadjunct,app,comp,conjunct,obj_th,root,subj,
p2789
I1166
sVadjunct,comp,comp_inf,conjunct,mwe,obj,root,
p2790
I639
sVcomp_ag,conjunct,root,
p2791
I284
sVadjunct,adjunct_rc,refl,root,
p2792
I1680
sVpre_coord,root,
p2793
I1457
sVadjunct,comp,conjunct,pd,
p2794
I1659
sVadjunct,comp,comp_fin,obj,obj_th,root,
p2795
I316
sVadjunct_qt,conjunct,pd,refl,root,
p2796
I2110
sVadjunct,adjunct_rc,comp,pd,root,subj,
p2797
I1811
sVadjunct,adjunct_rc,conjunct,root,
p2798
I1629
sVconjunct,ne,pd,root,
p2799
I334
sVadjunct,comp_fin,comp_inf,conjunct,obj,punct,root,
p2800
I143
sVadjunct_compar,comp_inf,conjunct,pd,root,
p2801
I1375
sVcomp,comp_fin,obj_th,refl,root,
p2802
I1957
sVcomp,obj_th,punct,root,
p2803
I733
sVapp,comp,conjunct,obj,root,
p2804
I742
sVadjunct,comp_fin,conjunct,pd,punct,root,
p2805
I1873
sVadjunct,comp,ne,pd,root,
p2806
I338
sVadjunct,comp,mwe,obj,obj_th,root,
p2807
I1648
sVadjunct_rc,comp,cond,root,subj,
p2808
I962
sVadjunct_qt,comp_fin,root,
p2809
I930
sVadjunct,aux,comp,punct,root,
p2810
I1526
sVadjunct,comp,comp_ag,ne,root,subj,
p2811
I1162
sVadjunct,comp,comp_fin,conjunct,obj_th,root,
p2812
I364
sVcomp,mwe,
p2813
I1515
sVconjunct,punct,refl,root,
p2814
I1744
sVcomp,comp_fin,neg,root,
p2815
I56
sVadjunct_rc,comp,punct,root,
p2816
I1743
sVadjunct_rc,comp,pd,root,
p2817
I1821
sVabbrev_punct,adjunct,comp,conjunct,mwe,root,subj,
p2818
I1772
sVadjunct,punct,root,subj,
p2819
I1
sVne,pd,root,
p2820
I697
sVadjunct,comp,conjunct,ne,root,subj,
p2821
I342
sVadjunct,adjunct_qt,comp,root,subj,
p2822
I715
sVadjunct,comp_ag,conjunct,root,
p2823
I353
sVadjunct,app,ne,pd,root,
p2824
I672
sVadjunct,obj,root,subj,
p2825
I382
sVadjunct,adjunct_qt,root,
p2826
I208
sVadjunct,adjunct_rc,comp,comp_fin,obj,root,subj,
p2827
I1083
sVcomp,comp_fin,conjunct,obj,obj_th,root,
p2828
I1794
sVcomp,comp_fin,obj,punct,root,
p2829
I2001
sVrefl,root,
p2830
I50
sVcomp_fin,refl,root,subj,
p2831
I1961
sVadjunct,comp,comp_fin,conjunct,mwe,root,
p2832
I403
sVadjunct,adjunct_qt,comp,conjunct,ne,punct,root,
p2833
I1459
sVadjunct,comp,comp_fin,comp_inf,conjunct,obj,pd,root,subj,
p2834
I324
sVadjunct,adjunct_compar,comp_fin,obj_th,root,
p2835
I1808
sVadjunct_rc,comp,refl,root,
p2836
I1581
sVadjunct,conjunct,refl,root,subj,
p2837
I721
sVadjunct,adjunct_compar,comp,comp_inf,conjunct,root,subj,
p2838
I909
sVadjunct,comp_fin,conjunct,refl,root,
p2839
I275
sVadjunct,adjunct_qt,conjunct,obj_th,punct,root,
p2840
I1785
sVcomp,conjunct,mwe,punct,root,subj,
p2841
I1909
sVadjunct_compar,comp,pd,root,
p2842
I1486
sVadjunct,comp,comp_fin,conjunct,obj,obj_th,root,subj,
p2843
I1101
sVadjunct,comp,comp_fin,cond,conjunct,root,
p2844
I2087
sVadjunct,comp,comp_fin,mwe,ne,obj,root,
p2845
I2014
sVadjunct,comp,mwe,ne,root,
p2846
I546
sVadjunct,adjunct_compar,comp,mwe,root,
p2847
I1800
sVadjunct,adjunct_rc,app,obj,punct,root,
p2848
I454
sVconjunct,neg,obj,root,
p2849
I1553
sVcomp,comp_fin,mwe,root,
p2850
I1025
sVadjunct,mwe,obj,root,
p2851
I888
sVcomp,comp_ag,comp_fin,conjunct,root,
p2852
I1360
sVcomp_fin,comp_inf,root,subj,
p2853
I1303
sVadjunct,aux,comp,comp_fin,comp_inf,
p2854
I1667
sVadjunct,comp,comp_fin,obj_th,punct,root,
p2855
I539
sVadjunct,comp_fin,obj,pd,root,
p2856
I534
sVadjunct,app,conjunct,pd,root,
p2857
I1011
sVadjunct,comp,conjunct,mwe,obj_th,root,
p2858
I1263
sVadjunct,comp,comp_ag,comp_fin,pd,root,
p2859
I1110
sVadjunct,adjunct_rc,obj_th,root,
p2860
I455
sVcomp_fin,mwe,root,subj,
p2861
I1984
sVadjunct,comp,conjunct,obj,pre_coord,root,subj,
p2862
I89
sVadjunct,comp_inf,obj,obj_th,punct,root,
p2863
I1482
sVadjunct,adjunct_qt,adjunct_rc,comp,conjunct,root,subj,
p2864
I995
sVadjunct,comp_fin,obj,obj_th,root,
p2865
I1636
sVadjunct,app,conjunct,mwe,ne,root,
p2866
I1748
sVabbrev_punct,adjunct,obj_th,root,
p2867
I1917
sVadjunct,conjunct,pre_coord,root,
p2868
I1428
sVadjunct,comp_fin,comp_inf,conjunct,obj,obj_th,punct,root,
p2869
I948
sVcomp_fin,conjunct,punct,root,
p2870
I123
sVadjunct,adjunct_compar,comp,comp_fin,conjunct,obj_th,pd,root,
p2871
I1620
sVadjunct,adjunct_qt,comp,mwe,root,
p2872
I1682
sVadjunct,comp,comp_ag,mwe,ne,obj,root,subj,
p2873
I885
sVadjunct,adjunct_qt,app,conjunct,mwe,root,
p2874
I1721
sVadjunct_qt,comp_inf,obj,root,
p2875
I1322
sVapp,pd,punct,root,
p2876
I1485
sVadjunct,comp,comp_fin,comp_inf,conjunct,obj,root,
p2877
I145
sVadjunct_rc,aux,comp,conjunct,obj,root,
p2878
I1439
sVadjunct_qt,comp_fin,comp_inf,root,
p2879
I1941
sVadjunct,adjunct_rc,obj,pd,root,
p2880
I2071
sVadjunct,comp,mwe,obj,root,
p2881
I886
sVadjunct,adjunct_qt,adjunct_rc,comp_fin,conjunct,mwe,obj,pd,root,
p2882
I601
sVapp,comp,comp_inf,conjunct,obj,root,
p2883
I1410
sVadjunct_qt,adjunct_rc,comp,comp_fin,root,
p2884
I1186
sVadjunct,app,comp,comp_fin,mwe,obj,root,subj,
p2885
I77
sVadjunct,comp,comp_fin,comp_inf,conjunct,neg,root,
p2886
I855
sVcomp_inf,conjunct,neg,obj,root,
p2887
I1488
sVcomp_fin,comp_inf,punct,root,
p2888
I1350
sVadjunct,adjunct_qt,punct,root,subj,
p2889
I1963
sVadjunct,adjunct_rc,comp,comp_fin,conjunct,obj,root,subj,
p2890
I844
sVadjunct,aux,comp,comp_inf,conjunct,root,subj,
p2891
I704
sVadjunct,adjunct_qt,comp,obj,punct,root,subj,
p2892
I1592
sVadjunct,comp,conjunct,ne,obj,punct,root,subj,
p2893
I1379
sVadjunct,comp,comp_inf,ne,root,
p2894
I938
sVcomp,comp_inf,pd,root,
p2895
I1075
sVcomp,comp_inf,root,
p2896
I48
sVne,root,
p2897
I19
sVapp,comp,punct,root,subj,
p2898
I1634
sVapp,root,
p2899
I42
sVadjunct,adjunct_rc,comp,conjunct,obj,root,subj,
p2900
I1509
sVadjunct_rc,pd,root,
p2901
I778
sVadjunct,adjunct_rc,conjunct,ne,pd,root,subj,
p2902
I1762
sVadjunct,adjunct_rc,conjunct,obj,root,
p2903
I374
sVadjunct,conjunct,mwe,obj,root,subj,
p2904
I889
sVadjunct,comp,comp_inf,conjunct,obj,root,
p2905
I196
sVadjunct_rc,comp_fin,obj,pd,root,subj,
p2906
I1212
sVadjunct_rc,conjunct,ne,pd,root,subj,
p2907
I1763
sVadjunct_rc,aux,root,
p2908
I1951
sVcomp,comp_ag,conjunct,ne,obj,root,
p2909
I1886
sVadjunct,comp,comp_fin,comp_inf,conjunct,obj_th,punct,root,
p2910
I1880
sVadjunct,aglt,obj,root,
p2911
I1088
sVadjunct,app,comp,comp_fin,obj,obj_th,root,
p2912
I1381
sVadjunct,adjunct_qt,mwe,root,
p2913
I1009
sVadjunct,aux,comp,pd,root,
p2914
I1937
sVcomp,comp_fin,comp_inf,conjunct,refl,root,
p2915
I876
sVadjunct_rc,comp_fin,conjunct,punct,root,subj,
p2916
I1740
sVadjunct,app,comp,comp_ag,root,subj,
p2917
I1476
sVcomp_fin,refl,root,
p2918
I365
sVadjunct,adjunct_rc,pd,refl,root,
p2919
I2113
sVadjunct,comp_ag,comp_fin,comp_inf,conjunct,root,subj,
p2920
I2128
sVadjunct,adjunct_rc,comp,comp_fin,conjunct,root,
p2921
I1056
sVadjunct_rc,comp,comp_inf,conjunct,punct,root,
p2922
I136
sVcomp,comp_fin,conjunct,pd,root,subj,
p2923
I1069
sVadjunct,aux,conjunct,root,subj,
p2924
I1260
sVcomp_fin,neg,obj,root,subj,
p2925
I2105
sVadjunct,adjunct_rc,conjunct,obj_th,root,subj,
p2926
I1505
sVconjunct,neg,root,subj,
p2927
I1768
sVadjunct,adjunct_rc,comp,obj_th,root,subj,
p2928
I1329
sVcomp,comp_fin,conjunct,root,
p2929
I396
sVadjunct,comp,comp_fin,comp_inf,conjunct,ne,obj,root,
p2930
I446
sVadjunct,adjunct_rc,app,comp,comp_fin,conjunct,obj,punct,root,subj,
p2931
I64
sVadjunct,conjunct,obj,refl,root,subj,
p2932
I1757
sVadjunct,app,conjunct,ne,root,subj,
p2933
I437
sVcomp_fin,comp_inf,mwe,obj,root,
p2934
I1196
sVcomp_inf,punct,root,subj,
p2935
I1572
sVadjunct,comp_fin,mwe,pre_coord,root,subj,
p2936
I1137
sVcomp_fin,conjunct,obj_th,root,
p2937
I1814
sVadjunct,ne,obj,root,subj,
p2938
I381
sVapp,mwe,punct,root,
p2939
I1726
sVabbrev_punct,adjunct,conjunct,ne,obj,root,
p2940
I1897
sVadjunct,
p2941
I1861
sVcomp,comp_fin,neg,pd,root,
p2942
I1117
sVadjunct,comp,comp_fin,conjunct,obj,root,subj,
p2943
I165
sVadjunct,adjunct_compar,comp,conjunct,obj,root,subj,
p2944
I1364
sVadjunct,app,refl,root,
p2945
I759
sVadjunct_qt,adjunct_rc,comp_fin,pd,root,
p2946
I605
sVadjunct,comp,conjunct,obj,pd,
p2947
I1661
sVadjunct,adjunct_qt,comp,conjunct,obj,punct,root,subj,
p2948
I311
sVadjunct,adjunct_qt,adjunct_rc,obj,root,
p2949
I617
sVadjunct,comp,comp_fin,comp_inf,pd,root,subj,
p2950
I2043
sVadjunct,adjunct_compar,app,conjunct,mwe,root,subj,
p2951
I1391
sVadjunct,comp_fin,conjunct,obj_th,root,
p2952
I235
sVabbrev_punct,root,
p2953
I1362
sVadjunct,comp,comp_inf,mwe,obj,root,
p2954
I456
sVadjunct_rc,ne,root,subj,
p2955
I1179
sVadjunct_qt,conjunct,obj,obj_th,punct,root,
p2956
I228
sVadjunct,comp,conjunct,punct,root,subj,
p2957
I87
sVadjunct,conjunct,root,subj,
p2958
I248
sVadjunct,app,comp,comp_inf,ne,root,
p2959
I46
sVadjunct,root,subj,
p2960
I3
sVadjunct,comp,conjunct,obj,punct,root,subj,
p2961
I95
sVadjunct,app,comp,mwe,punct,root,
p2962
I642
sVadjunct,comp,comp_ag,mwe,obj,root,subj,
p2963
I628
sVadjunct,adjunct_rc,ne,root,subj,
p2964
I2121
sVadjunct,adjunct_rc,aux,comp_fin,comp_inf,conjunct,obj,root,subj,
p2965
I152
sVadjunct,comp,ne,punct,root,
p2966
I1474
sVadjunct,comp_fin,comp_inf,mwe,root,
p2967
I694
sVconjunct,pd,root,
p2968
I333
sVadjunct,adjunct_qt,pd,root,subj,
p2969
I254
sVapp,comp_fin,ne,obj,root,
p2970
I2082
sVadjunct,comp,comp_ag,comp_inf,conjunct,root,
p2971
I1693
sVadjunct,conjunct,obj_th,refl,root,
p2972
I1205
sVabbrev_punct,adjunct,comp,comp_fin,root,
p2973
I1774
sVadjunct,comp_fin,comp_inf,conjunct,obj,root,subj,
p2974
I144
sVadjunct,comp,comp_inf,conjunct,obj,pd,root,
p2975
I1480
sVadjunct,conjunct,punct,root,
p2976
I25
sVabbrev_punct,comp,pd,root,
p2977
I1046
sVadjunct,app,comp_inf,pd,root,
p2978
I750
sVadjunct,comp_inf,neg,obj,root,
p2979
I180
sVadjunct,neg,root,subj,
p2980
I833
sVadjunct_compar,pd,root,
p2981
I1517
sVadjunct,comp,comp_inf,obj,punct,root,
p2982
I725
sVadjunct,comp,comp_fin,conjunct,mwe,punct,root,
p2983
I531
sVadjunct_rc,conjunct,pd,refl,root,
p2984
I1761
sVcomp_fin,comp_inf,conjunct,obj_th,root,subj,
p2985
I2065
sVadjunct_rc,pd,root,subj,
p2986
I2018
sVadjunct,adjunct_compar,comp_fin,comp_inf,conjunct,refl,root,
p2987
I1540
sVadjunct_qt,conjunct,ne,root,subj,
p2988
I821
sVadjunct,adjunct_rc,comp_fin,conjunct,obj,punct,root,
p2989
I362
sVadjunct,comp_inf,conjunct,refl,root,
p2990
I1279
sVconjunct,pd,punct,root,
p2991
I583
sVcomp,conjunct,punct,root,
p2992
I399
sVcomp_ag,root,subj,
p2993
I1641
sVadjunct_rc,conjunct,ne,root,subj,
p2994
I1333
sVadjunct,adjunct_rc,comp,obj,punct,root,
p2995
I1791
sVadjunct,aux,comp,comp_fin,conjunct,obj,root,
p2996
I461
sVadjunct,adjunct_compar,conjunct,root,subj,
p2997
I2116
sVadjunct,app,comp,mwe,obj,root,subj,
p2998
I1176
sVcomp,comp_fin,conjunct,refl,root,subj,
p2999
I1754
sVadjunct,comp,comp_fin,mwe,root,subj,
p3000
I647
sVadjunct,comp,conjunct,neg,pd,root,
p3001
I1545
sVadjunct,comp,comp_fin,conjunct,punct,root,subj,
p3002
I585
sVconjunct,mwe,root,subj,
p3003
I662
sVadjunct,adjunct_qt,comp,comp_fin,conjunct,punct,root,subj,
p3004
I1689
sVadjunct_qt,app,mwe,root,
p3005
I1723
sVcomp_inf,conjunct,obj,refl,root,
p3006
I1767
sVadjunct,adjunct_compar,comp,comp_fin,comp_inf,conjunct,obj,root,
p3007
I903
sVadjunct,comp_fin,comp_inf,conjunct,obj,obj_th,root,
p3008
I945
sVadjunct,aux,comp_fin,comp_inf,root,
p3009
I569
sVadjunct,comp,punct,root,
p3010
I283
sVadjunct_qt,adjunct_rc,punct,root,
p3011
I615
sVadjunct,adjunct_qt,comp,comp_fin,obj,root,subj,
p3012
I978
sVcomp,comp_inf,conjunct,obj,root,
p3013
I307
sVadjunct,comp_fin,conjunct,neg,obj_th,root,
p3014
I357
sVadjunct,comp,obj,refl,root,
p3015
I1153
sVadjunct,comp,comp_ag,obj,root,
p3016
I578
sVabbrev_punct,adjunct,app,comp,pd,root,
p3017
I655
sVadjunct,comp_inf,conjunct,neg,root,
p3018
I2063
sVadjunct,app,conjunct,obj,root,
p3019
I636
sVadjunct,adjunct_rc,comp_inf,obj,obj_th,root,
p3020
I1433
sVconjunct,punct,root,subj,
p3021
I582
sVcomp,conjunct,ne,obj,root,
p3022
I1240
sVadjunct,adjunct_qt,app,comp,comp_fin,obj,root,subj,
p3023
I979
sVadjunct,comp,comp_inf,ne,obj,obj_th,root,
p3024
I1281
sVadjunct,comp,comp_fin,comp_inf,pd,punct,root,
p3025
I2044
sVadjunct,mwe,pd,punct,root,
p3026
I1967
sVabbrev_punct,adjunct,adjunct_qt,comp,root,
p3027
I753
sVadjunct,comp,comp_fin,obj,obj_th,punct,root,
p3028
I541
sVadjunct,comp,comp_fin,comp_inf,obj,punct,root,subj,
p3029
I2061
sVadjunct,adjunct_qt,adjunct_rc,app,root,
p3030
I1452
sVadjunct,adjunct_compar,mwe,root,
p3031
I971
sVabbrev_punct,comp,root,
p3032
I807
sVcomp,comp_fin,pd,root,
p3033
I565
sVadjunct,adjunct_rc,comp,comp_fin,conjunct,obj,root,
p3034
I2011
sVadjunct_qt,obj,root,
p3035
I279
sVpunct,root,
p3036
I14
sVadjunct,comp_fin,conjunct,mwe,root,subj,
p3037
I1348
sVabbrev_punct,app,mwe,root,
p3038
I1722
sVadjunct,comp,conjunct,mwe,pd,root,
p3039
I220
sVabbrev_punct,adjunct,conjunct,mwe,root,
p3040
I1590
sVadjunct,aux,comp_fin,comp_inf,conjunct,obj,obj_th,root,
p3041
I944
sVadjunct,comp,comp_ag,obj_th,root,subj,
p3042
I1615
sVadjunct,comp,comp_fin,conjunct,root,subj,
p3043
I167
sVadjunct_compar,punct,root,
p3044
I1287
sVadjunct,adjunct_rc,comp,root,subj,
p3045
I736
sVapp,conjunct,obj,root,
p3046
I543
sVadjunct,cond,conjunct,root,
p3047
I1063
sVadjunct,adjunct_compar,comp,mwe,obj,root,
p3048
I1801
sVadjunct,app,comp,mwe,ne,root,
p3049
I788
sVadjunct_rc,comp,comp_inf,root,subj,
p3050
I959
sVconjunct,item,root,subj,
p3051
I1964
sVadjunct,adjunct_rc,comp,pd,punct,root,
p3052
I2072
sVadjunct_rc,obj,root,subj,
p3053
I764
sVadjunct,adjunct_rc,conjunct,punct,root,subj,
p3054
I2069
sVaux,comp,comp_fin,root,
p3055
I870
sVaglt,aux,root,
p3056
I1946
sVcomp_fin,obj_th,root,subj,
p3057
I747
sVadjunct,adjunct_qt,aux,conjunct,root,
p3058
I1529
sVadjunct,comp_ag,pd,root,subj,
p3059
I964
sVadjunct,adjunct_compar,app,conjunct,mwe,punct,root,subj,
p3060
I1390
sVadjunct_compar,adjunct_qt,comp,root,
p3061
I1965
sVapp,mwe,root,
p3062
I666
sVcomp_fin,obj,pd,root,
p3063
I535
sVadjunct,comp_inf,conjunct,neg,obj,root,
p3064
I401
sVadjunct,comp_fin,comp_inf,obj,punct,root,
p3065
I149
sVadjunct_qt,adjunct_rc,obj,root,
p3066
I616
sVadjunct,adjunct_compar,adjunct_qt,comp_fin,comp_inf,conjunct,root,
p3067
I1538
sVadjunct,aux,comp,obj,root,
p3068
I1376
sVadjunct,adjunct_compar,comp,comp_inf,conjunct,obj_th,root,
p3069
I905
sVcomp_fin,conjunct,obj,refl,root,
p3070
I843
sVadjunct,adjunct_qt,comp_fin,conjunct,root,subj,
p3071
I223
sVadjunct_qt,adjunct_rc,comp_fin,obj,pd,root,
p3072
I607
sVadjunct,comp,comp_ag,conjunct,ne,root,subj,
p3073
I1238
sVadjunct,adjunct_rc,cond,conjunct,root,
p3074
I1933
sVadjunct,comp,comp_fin,obj_th,pd,root,
p3075
I1776
sVadjunct_rc,conjunct,mwe,
p3076
I1555
sVadjunct,comp,comp_ag,conjunct,pd,root,
p3077
I1418
sVadjunct_rc,conjunct,obj,root,
p3078
I1730
sVadjunct,adjunct_qt,comp,comp_ag,root,
p3079
I1678
sVadjunct,comp_ag,comp_fin,pd,root,
p3080
I1109
sVadjunct,adjunct_qt,comp,ne,pd,root,
p3081
I1463
sVcomp,comp_inf,obj,root,
p3082
I328
sVcomp_inf,obj,root,
p3083
I189
sVadjunct,comp,comp_inf,obj_th,punct,root,
p3084
I1851
sVcomp_ag,conjunct,ne,obj,root,
p3085
I1884
sVadjunct,comp,item,punct,root,
p3086
I1589
sVadjunct,comp_inf,obj,pd,root,
p3087
I1357
sVadjunct,comp_inf,conjunct,mwe,obj_th,root,
p3088
I1654
sVadjunct_qt,aux,neg,root,
p3089
I789
sVcomp,conjunct,refl,root,
p3090
I1401
sVcomp_fin,punct,root,subj,
p3091
I407
sVadjunct,comp_inf,conjunct,root,
p3092
I60
sVcomp_inf,conjunct,obj,root,subj,
p3093
I1414
sVadjunct,adjunct_qt,conjunct,mwe,obj_th,root,
p3094
I1314
sVadjunct,comp,comp_ag,mwe,root,subj,
p3095
I629
sVadjunct_qt,mwe,root,
p3096
I110
sVadjunct_rc,mwe,obj,root,subj,
p3097
I765
sVadjunct,adjunct_qt,comp,conjunct,obj,root,subj,
p3098
I306
sVadjunct,adjunct_rc,conjunct,refl,root,
p3099
I1952
sVadjunct_compar,comp,comp_fin,comp_inf,conjunct,obj_th,root,
p3100
I1599
sVadjunct_rc,conjunct,obj_th,pd,root,
p3101
I793
sVadjunct,adjunct_rc,comp,pd,root,
p3102
I776
sVadjunct,comp,comp_inf,conjunct,obj,pd,punct,root,
p3103
I1492
sVadjunct,adjunct_qt,comp,comp_fin,punct,root,
p3104
I199
sVadjunct,adjunct_qt,app,comp,comp_fin,mwe,root,subj,
p3105
I104
sVadjunct,adjunct_qt,comp_fin,root,subj,
p3106
I219
sVadjunct,comp,comp_fin,comp_inf,conjunct,obj_th,root,subj,
p3107
I1111
sVadjunct,app,comp,comp_fin,comp_inf,obj,obj_th,punct,root,subj,
p3108
I1568
sVadjunct,comp,obj_th,punct,root,
p3109
I247
sVcomp,comp_fin,comp_inf,obj,root,subj,
p3110
I858
sVadjunct,adjunct_rc,comp,pd,punct,root,subj,
p3111
I1812
sVabbrev_punct,adjunct,adjunct_rc,comp,comp_fin,ne,obj,root,
p3112
I1843
sVadjunct,comp,mwe,punct,root,
p3113
I460
sVadjunct_compar,comp,obj_th,root,
p3114
I780
sVadjunct,conjunct,neg,
p3115
I1867
sVcomp_fin,comp_inf,conjunct,root,subj,
p3116
I2066
sVadjunct,adjunct_compar,comp,punct,root,
p3117
I1472
sVadjunct_rc,comp_fin,conjunct,obj,punct,root,subj,
p3118
I846
sVadjunct,app,comp,comp_fin,conjunct,punct,root,subj,
p3119
I1755
sVabbrev_punct,adjunct,adjunct_qt,conjunct,root,
p3120
I1498
sVabbrev_punct,conjunct,ne,root,
p3121
I879
sVadjunct,adjunct_qt,app,conjunct,mwe,punct,root,
p3122
I1720
sVadjunct,app,comp,comp_fin,comp_inf,ne,root,subj,
p3123
I1708
sVadjunct,comp,comp_inf,conjunct,obj_th,punct,root,
p3124
I1354
sVadjunct,app,comp,conjunct,obj,punct,root,
p3125
I1071
sVadjunct,adjunct_compar,comp,comp_inf,conjunct,root,
p3126
I907
sVadjunct,conjunct,obj,pre_coord,punct,root,subj,
p3127
I345
sVadjunct,app,comp,comp_ag,punct,root,
p3128
I1826
sVadjunct_qt,comp,comp_fin,comp_inf,pd,root,subj,
p3129
I1470
sVabbrev_punct,adjunct,adjunct_compar,comp,comp_ag,conjunct,root,
p3130
I508
sVadjunct,conjunct,obj,obj_th,root,
p3131
I794
sVadjunct_qt,app,ne,root,
p3132
I1605
sVadjunct,comp_inf,refl,root,
p3133
I1172
sVabbrev_punct,adjunct,adjunct_rc,root,subj,
p3134
I1269
sVadjunct,obj_th,root,subj,
p3135
I882
sVadjunct,adjunct_rc,comp,mwe,obj,punct,root,
p3136
I1404
sVadjunct,adjunct_rc,comp,comp_inf,conjunct,obj,root,subj,
p3137
I961
sVcomp,comp_fin,refl,root,subj,
p3138
I1727
sVaux,comp_fin,conjunct,obj,root,
p3139
I1141
sVadjunct,aux,comp,comp_fin,root,
p3140
I679
sVadjunct,comp,comp_fin,pd,root,
p3141
I981
sVapp,conjunct,ne,root,
p3142
I689
sVadjunct,app,comp,comp_ag,ne,root,
p3143
I1827
sVadjunct,adjunct_compar,comp,conjunct,punct,root,
p3144
I511
sVadjunct_rc,obj,punct,root,
p3145
I1993
sVadjunct,adjunct_qt,comp,comp_fin,comp_inf,obj,root,
p3146
I719
sVadjunct,comp,
p3147
I1050
sVadjunct,comp,comp_inf,mwe,obj,refl,root,
p3148
I1699
sVadjunct_qt,app,conjunct,punct,root,
p3149
I1245
sVadjunct,aux,comp,comp_inf,conjunct,obj,pd,root,
p3150
I1490
sVadjunct,adjunct_rc,comp,ne,root,subj,
p3151
I1265
sVadjunct,comp,mwe,root,
p3152
I265
sVadjunct,adjunct_qt,app,conjunct,root,
p3153
I1575
sVadjunct,comp,ne,refl,root,
p3154
I1915
sVadjunct,adjunct_compar,root,
p3155
I849
sVabbrev_punct,adjunct,app,comp,obj,root,
p3156
I2045
sVadjunct,comp,comp_fin,comp_inf,conjunct,mwe,obj,obj_th,
p3157
I1675
sVcomp,comp_inf,obj,punct,root,
p3158
I857
sVadjunct,app,conjunct,mwe,punct,root,subj,
p3159
I1392
sVadjunct,comp,mwe,obj,refl,root,subj,
p3160
I883
sVadjunct,adjunct_rc,conjunct,obj,root,subj,
p3161
I373
sVadjunct_qt,comp,comp_fin,conjunct,root,
p3162
I1631
sVadjunct,comp_fin,comp_inf,refl,root,
p3163
I696
sVapp,comp,conjunct,obj_th,punct,root,
p3164
I213
sVadjunct,comp_inf,conjunct,obj,root,
p3165
I59
sVadjunct,comp,obj_th,root,subj,
p3166
I891
sVadjunct,app,comp,comp_fin,conjunct,root,
p3167
I1258
sVadjunct,adjunct_rc,comp_inf,obj,punct,root,
p3168
I1494
sVadjunct,comp,comp_inf,conjunct,obj,obj_th,pd,root,
p3169
I1491
sVadjunct_qt,comp,punct,
p3170
I1658
sVadjunct,adjunct_rc,aux,obj,root,
p3171
I1043
sVadjunct,adjunct_rc,comp_inf,obj,root,
p3172
I1493
sVadjunct,comp_fin,ne,root,
p3173
I692
sVadjunct,adjunct_qt,app,comp,ne,root,
p3174
I1202
sVadjunct,adjunct_compar,adjunct_qt,comp,conjunct,ne,root,
p3175
I1823
sVadjunct,app,conjunct,ne,obj,pd,root,
p3176
I1449
sVcomp_inf,obj,punct,root,
p3177
I325
sVadjunct_rc,app,comp_inf,conjunct,obj,root,
p3178
I738
sVadjunct,adjunct_rc,comp,conjunct,mwe,obj_th,root,
p3179
I1288
sVadjunct,comp,comp_ag,conjunct,obj,obj_th,root,
p3180
I1891
sVadjunct,obj,obj_th,root,subj,
p3181
I1015
sVadjunct,comp_inf,conjunct,pd,root,
p3182
I1091
sVcomp,comp_fin,punct,root,
p3183
I176
sVapp,comp,conjunct,punct,root,
p3184
I1750
sVconjunct,ne,root,
p3185
I21
sVadjunct,comp,obj,pd,root,
p3186
I483
sVadjunct_compar,comp_inf,punct,root,
p3187
I912
sVadjunct,comp_inf,cond,conjunct,root,
p3188
I1872
sVmwe,obj,root,
p3189
I593
sVadjunct,adjunct_compar,comp,conjunct,root,
p3190
I512
sVadjunct,comp,comp_fin,conjunct,obj_th,pd,root,
p3191
I1619
sVcomp,conjunct,refl,root,subj,
p3192
I2124
sVadjunct,comp,comp_inf,mwe,root,subj,
p3193
I458
sVapp,comp,conjunct,root,
p3194
I1249
sVapp,comp,ne,root,
p3195
I409
sVadjunct,comp,comp_fin,comp_inf,neg,obj,root,subj,
p3196
I2062
sVadjunct,comp,comp_fin,comp_inf,obj,obj_th,
p3197
I1669
sVcomp,comp_ag,root,
p3198
I282
sVadjunct,comp,comp_ag,ne,obj,root,
p3199
I2002
sVadjunct,app,comp,conjunct,obj,pd,root,
p3200
I650
sVadjunct_qt,adjunct_rc,comp,root,subj,
p3201
I2096
sVadjunct_rc,comp,conjunct,mwe,root,subj,
p3202
I1292
sVconjunct,pd,root,subj,
p3203
I1773
sVadjunct_qt,adjunct_rc,pd,root,
p3204
I1502
sVadjunct,aglt,comp,root,
p3205
I841
sVadjunct_qt,comp,comp_fin,conjunct,obj,root,subj,
p3206
I2038
sVadjunct_rc,app,conjunct,punct,root,subj,
p3207
I801
sVadjunct,comp_fin,neg,root,subj,
p3208
I1809
sVaglt,cond,conjunct,root,
p3209
I1342
sVcomp_fin,punct,root,
p3210
I278
sVadjunct,adjunct_rc,comp,conjunct,pd,root,
p3211
I840
sVadjunct_qt,adjunct_rc,comp_fin,conjunct,obj,pd,root,
p3212
I603
sVadjunct_qt,adjunct_rc,comp,obj,root,
p3213
I1991
sVadjunct,comp,conjunct,punct,root,
p3214
I202
sVadjunct,comp,comp_fin,conjunct,mwe,obj,punct,root,subj,
p3215
I1347
sVpre_coord,root,subj,
p3216
I1256
sVadjunct,adjunct_qt,conjunct,ne,root,
p3217
I612
sVadjunct,adjunct_rc,app,comp,comp_fin,conjunct,neg,obj,root,subj,
p3218
I74
sVadjunct,comp,mwe,obj,pd,root,
p3219
I1532
sVadjunct_qt,comp,conjunct,obj,root,
p3220
I304
sVadjunct,app,comp,conjunct,root,subj,
p3221
I773
sVcomp_fin,conjunct,neg,root,subj,
p3222
I1104
sVitem,punct,root,
p3223
I1969
sVadjunct,adjunct_rc,comp,comp_fin,conjunct,punct,root,subj,
p3224
I1712
sVadjunct,adjunct_rc,conjunct,obj,
p3225
I1866
sVadjunct_rc,pd,punct,root,
p3226
I1759
sVadjunct,adjunct_rc,root,subj,
p3227
I424
sVadjunct,adjunct_compar,comp,comp_inf,conjunct,obj,root,
p3228
I901
sVadjunct_rc,comp,comp_fin,comp_inf,conjunct,root,subj,
p3229
I1738
sVadjunct,adjunct_rc,aglt,cond,conjunct,root,
p3230
I1930
sVadjunct,adjunct_rc,mwe,punct,root,
p3231
I860
sVadjunct,adjunct_rc,aux,comp,comp_fin,conjunct,root,subj,
p3232
I2067
sVadjunct,comp_fin,comp_inf,pd,root,
p3233
I1804
sVabbrev_punct,adjunct,comp,
p3234
I1049
sVadjunct_qt,comp_fin,conjunct,root,
p3235
I1769
sVadjunct,adjunct_rc,app,comp,comp_fin,conjunct,obj,refl,root,subj,
p3236
I79
sVadjunct,app,comp,conjunct,obj,root,
p3237
I434
sVcomp,comp_fin,conjunct,root,subj,
p3238
I166
sVadjunct,adjunct_rc,comp,conjunct,root,subj,
p3239
I299
sVadjunct,app,conjunct,ne,obj_th,root,
p3240
I1914
sVadjunct,app,comp_inf,obj,root,
p3241
I1167
sVadjunct,adjunct_qt,comp,comp_fin,conjunct,refl,root,
p3242
I1632
sVapp,comp,comp_fin,root,subj,
p3243
I2036
sVadjunct,comp,comp_fin,comp_inf,conjunct,root,subj,
p3244
I186
sVabbrev_punct,adjunct,comp,conjunct,obj,pre_coord,root,subj,
p3245
I90
sVadjunct_compar,comp,comp_fin,comp_inf,conjunct,root,
p3246
I895
sVadjunct_rc,comp,obj,punct,root,
p3247
I2024
sVadjunct,comp,comp_fin,comp_inf,obj_th,
p3248
I1673
sVadjunct_qt,comp,comp_fin,obj,root,subj,
p3249
I2041
sVadjunct,comp_fin,conjunct,obj,root,
p3250
I359
sVadjunct_compar,conjunct,root,
p3251
I893
sVadjunct,comp_fin,comp_inf,obj,root,subj,
p3252
I1913
sVmwe,ne,root,
p3253
I1514
sVcomp,comp_fin,refl,root,
p3254
I1597
sVabbrev_punct,adjunct,comp,root,subj,
p3255
I1478
sVadjunct,adjunct_rc,app,comp,conjunct,pd,root,
p3256
I652
sVcomp,conjunct,obj_th,punct,root,
p3257
I1155
sVadjunct,comp,comp_fin,comp_inf,conjunct,pd,root,
p3258
I1874
sVadjunct_rc,comp,comp_inf,conjunct,obj,root,
p3259
I2022
sVabbrev_punct,app,conjunct,root,subj,
p3260
I1934
sVadjunct,adjunct_compar,comp,comp_fin,conjunct,mwe,obj,refl,root,subj,
p3261
I2080
sVadjunct,adjunct_qt,comp,conjunct,mwe,root,
p3262
I827
sVadjunct,adjunct_rc,comp,comp_inf,conjunct,obj,root,
p3263
I2020
sVadjunct,app,comp,comp_fin,comp_inf,conjunct,root,subj,
p3264
I985
sVadjunct,adjunct_rc,comp_fin,conjunct,obj,pd,root,
p3265
I363
sVadjunct,comp,comp_fin,conjunct,mwe,ne,root,
p3266
I533
sVadjunct,comp,comp_fin,conjunct,root,
p3267
I233
sVadjunct,comp,conjunct,obj,pd,root,
p3268
I482
sVadjunct,app,obj,obj_th,root,
p3269
I239
sVadjunct_qt,app,punct,root,
p3270
I1443
sVadjunct,adjunct_qt,comp,conjunct,root,subj,
p3271
I484
sVadjunct,adjunct_qt,app,conjunct,ne,root,
p3272
I1606
sVadjunct,app,conjunct,obj_th,root,
p3273
I1576
sVmwe,root,
p3274
I286
sVadjunct,adjunct_qt,obj,refl,root,subj,
p3275
I1715
sVadjunct,comp,obj,
p3276
I1656
sVadjunct,comp_fin,comp_inf,conjunct,obj,refl,root,
p3277
I153
sVcomp,comp_inf,obj_th,root,
p3278
I1570
sVadjunct,comp_ag,comp_inf,obj,root,
p3279
I1577
sVadjunct,conjunct,neg,obj,root,
p3280
I462
sVadjunct_compar,app,comp,root,
p3281
I975
sVadjunct,comp_inf,conjunct,mwe,root,
p3282
I637
sVaux,comp,conjunct,root,
p3283
I1442
sVadjunct,comp,comp_ag,conjunct,mwe,root,
p3284
I480
sVadjunct,adjunct_qt,app,root,subj,
p3285
I1962
sVadjunct_compar,conjunct,root,subj,
p3286
I2115
sVadjunct,app,comp,conjunct,obj,pd,punct,root,
p3287
I660
sVadjunct,adjunct_qt,comp,comp_fin,obj,punct,root,subj,
p3288
I1324
sVadjunct,comp_inf,pd,root,subj,
p3289
I1356
sVcomp_inf,conjunct,obj,punct,root,
p3290
I131
sVadjunct,app,ne,obj_th,root,
p3291
I922
sVadjunct_qt,ne,obj_th,root,
p3292
I1830
sVadjunct,comp,comp_fin,comp_inf,conjunct,obj,obj_th,refl,
p3293
I1670
sVadjunct,comp,comp_fin,conjunct,mwe,root,subj,
p3294
I168
sVadjunct,adjunct_compar,adjunct_qt,comp,conjunct,ne,punct,root,
p3295
I1822
sVadjunct,obj_th,punct,root,
p3296
I241
sVadjunct,adjunct_compar,comp,obj_th,root,
p3297
I781
sVcomp,comp_fin,ne,root,subj,
p3298
I1174
sVadjunct,app,comp_ag,conjunct,obj,root,subj,
p3299
I378
sVadjunct,comp,conjunct,mwe,pd,root,subj,
p3300
I667
sVadjunct_compar,adjunct_qt,comp,root,subj,
p3301
I1783
sVcomp,comp_fin,root,
p3302
I58
sVcomp,comp_inf,conjunct,ne,root,
p3303
I1584
sVabbrev_punct,adjunct,app,comp,conjunct,obj,pd,root,
p3304
I651
sVadjunct,app,conjunct,refl,root,
p3305
I982
sVcomp_fin,obj,punct,root,
p3306
I2051
sVadjunct,obj,obj_th,punct,root,subj,
p3307
I1017
sVadjunct,comp,comp_inf,mwe,pd,root,
p3308
I1076
sVadjunct,adjunct_rc,obj_th,punct,root,
p3309
I2006
sVadjunct,adjunct_rc,pd,root,subj,
p3310
I423
sVadjunct,adjunct_rc,comp,conjunct,mwe,obj,obj_th,root,
p3311
I1291
sVadjunct,comp,obj,punct,
p3312
I1665
sVadjunct,aux,obj_th,root,
p3313
I1916
sVobj_th,punct,root,
p3314
I280
sVadjunct,adjunct_qt,comp,comp_fin,conjunct,root,
p3315
I200
sVabbrev_punct,app,comp_fin,ne,root,subj,
p3316
I1704
sVcomp_fin,conjunct,refl,root,subj,
p3317
I1102
sVadjunct,app,comp,comp_ag,conjunct,ne,root,
p3318
I682
sVadjunct_compar,comp,comp_inf,conjunct,obj,root,
p3319
I900
sVadjunct_qt,root,
p3320
I109
sVadjunct,comp_ag,obj,root,
p3321
I935
sVadjunct,app,comp_fin,comp_inf,ne,obj,obj_th,root,subj,
p3322
I1563
sVcomp,comp_fin,comp_inf,punct,root,
p3323
I2089
sVadjunct,comp,mwe,refl,root,
p3324
I1331
sVadjunct,adjunct_qt,comp,mwe,obj,root,
p3325
I1905
sVcomp,comp_fin,comp_inf,conjunct,obj,root,
p3326
I402
sVadjunct,adjunct_qt,app,comp,conjunct,ne,root,
p3327
I1173
sVadjunct,adjunct_qt,conjunct,punct,root,subj,
p3328
I488
sVadjunct,comp,comp_inf,conjunct,obj,root,subj,
p3329
I85
sVcomp,comp_fin,conjunct,obj_th,punct,root,
p3330
I2060
sVadjunct,adjunct_rc,comp,comp_fin,conjunct,obj,pd,root,
p3331
I361
sVadjunct,conjunct,obj_th,punct,root,
p3332
I678
sVadjunct,adjunct_qt,adjunct_rc,app,root,subj,
p3333
I1456
sVcomp_ag,conjunct,obj_th,root,
p3334
I1893
sVadjunct_rc,comp,comp_fin,comp_inf,conjunct,obj_th,root,subj,
p3335
I1736
sVadjunct,comp_fin,conjunct,obj_th,refl,root,subj,
p3336
I1424
sVne,obj,root,
p3337
I501
sVadjunct,conjunct,obj_th,root,
p3338
I327
sVadjunct_rc,comp_fin,obj,pd,root,
p3339
I1209
sVadjunct,comp,comp_fin,conjunct,mwe,obj,root,
p3340
I536
sVadjunct,ne,obj,obj_th,root,
p3341
I436
sVadjunct,comp,ne,obj_th,root,subj,
p3342
I1835
sVapp,comp,comp_fin,obj,root,subj,
p3343
I2100
sVcomp,comp_fin,conjunct,punct,root,
p3344
I878
sVadjunct,app,comp,conjunct,obj,root,subj,
p3345
I389
sVadjunct,comp,conjunct,ne,obj_th,root,
p3346
I1985
sVadjunct,adjunct_qt,comp,obj_th,root,
p3347
I210
sVadjunct,app,comp,comp_fin,conjunct,obj_th,root,subj,
p3348
I984
sVcomp,comp_fin,conjunct,obj_th,root,
p3349
I395
sVaux,neg,root,
p3350
I492
sVadjunct,obj,obj_th,punct,root,
p3351
I1014
sVadjunct,obj_th,root,
p3352
I240
sVcomp,comp_fin,punct,root,subj,
p3353
I1060
sVadjunct,adjunct_rc,conjunct,obj,punct,
p3354
I1859
sVadjunct,comp,conjunct,mwe,obj,root,subj,
p3355
I1898
sVadjunct,adjunct_rc,comp,conjunct,punct,root,subj,
p3356
I2068
sVcomp_inf,conjunct,refl,root,
p3357
I129
sVadjunct,app,comp,obj_th,root,subj,
p3358
I1833
sVadjunct_rc,comp_inf,root,subj,
p3359
I1548
sVadjunct,comp_fin,comp_inf,conjunct,obj,root,
p3360
I146
sVadjunct,conjunct,ne,root,
p3361
I28
sVadjunct_compar,comp_fin,obj,obj_th,root,
p3362
I1807
sVadjunct,app,comp_fin,conjunct,obj,root,
p3363
I2106
sVconjunct,mwe,ne,obj,root,
p3364
I1887
sVadjunct_rc,comp,conjunct,obj,punct,root,
p3365
I1441
sVadjunct,app,mwe,punct,root,
p3366
I931
sVadjunct,comp_ag,conjunct,root,subj,
p3367
I1230
sVadjunct,adjunct_qt,comp,conjunct,ne,root,subj,
p3368
I486
sVadjunct_qt,aglt,comp,comp_fin,root,
p3369
I987
sVadjunct_rc,comp,comp_fin,conjunct,root,
p3370
I1055
sVadjunct,adjunct_rc,comp,comp_inf,refl,root,
p3371
I1220
sVadjunct,adjunct_qt,mwe,punct,root,
p3372
I2046
sVadjunct,comp_inf,conjunct,obj,refl,root,
p3373
I873
sVadjunct_compar,app,comp,conjunct,ne,root,
p3374
I2125
sVadjunct,adjunct_rc,comp,conjunct,obj_th,root,
p3375
I1695
sVadjunct,comp,comp_fin,root,
p3376
I54
sVadjunct,adjunct_rc,comp,mwe,root,
p3377
I1307
sVadjunct,adjunct_qt,conjunct,obj_th,root,subj,
p3378
I1786
sVadjunct_qt,comp_fin,mwe,root,subj,
p3379
I112
sVadjunct_qt,comp_inf,obj_th,root,
p3380
I1683
sVadjunct_rc,conjunct,mwe,obj_th,root,
p3381
I1293
sVadjunct,adjunct_compar,comp_fin,obj,obj_th,root,
p3382
I1806
sVabbrev_punct,obj,root,
p3383
I418
sVcomp,punct,root,subj,
p3384
I523
sVadjunct,conjunct,obj,punct,root,
p3385
I261
sVpd,root,
p3386
I197
sVadjunct,app,comp,conjunct,mwe,ne,root,subj,
p3387
I466
sVadjunct,comp_inf,mwe,root,
p3388
I343
sVadjunct,app,comp,comp_fin,ne,obj,root,
p3389
I1868
sVadjunct,adjunct_rc,comp,obj,root,subj,
p3390
I1034
sVadjunct,comp,comp_fin,conjunct,obj,obj_th,root,
p3391
I712
sVadjunct,app,ne,punct,root,
p3392
I681
sVconjunct,obj,root,subj,
p3393
I141
sVcomp,comp_fin,comp_inf,root,
p3394
I567
sVadjunct,comp,comp_ag,conjunct,ne,pd,root,
p3395
I1420
sVadjunct,adjunct_qt,comp_fin,obj,root,
p3396
I1253
sVadjunct,comp_fin,conjunct,mwe,root,
p3397
I398
sVabbrev_punct,adjunct,obj,obj_th,root,subj,
p3398
I1016
sVapp,ne,obj,root,subj,
p3399
I426
sVabbrev_punct,adjunct,conjunct,ne,root,
p3400
I1239
sVcomp_fin,obj_th,root,
p3401
I1124
sVadjunct,adjunct_rc,comp,obj_th,root,
p3402
I1119
sVadjunct,cond,root,
p3403
I1989
sVcomp,conjunct,obj,root,
p3404
I309
sVcomp,conjunct,mwe,pd,root,
p3405
I867
sVcomp,comp_fin,comp_inf,conjunct,mwe,root,
p3406
I727
sVadjunct,adjunct_qt,comp,comp_fin,cond,mwe,root,
p3407
I105
sVadjunct,adjunct_qt,comp,comp_fin,root,subj,
p3408
I2040
sVcomp,comp_ag,obj,root,
p3409
I1746
sVadjunct,comp,comp_fin,conjunct,obj,refl,root,subj,
p3410
I1133
sVadjunct,adjunct_qt,comp,pd,root,
p3411
I257
sVadjunct,comp,conjunct,obj,pre_coord,punct,root,subj,
p3412
I94
sVadjunct,adjunct_qt,adjunct_rc,comp,comp_fin,pd,root,
p3413
I604
sVapp,comp,comp_inf,conjunct,obj,punct,root,
p3414
I1409
sVadjunct,adjunct_rc,obj,punct,root,
p3415
I387
sVcomp,comp_inf,conjunct,refl,root,
p3416
I1994
sVadjunct,aglt,comp,comp_fin,comp_inf,obj_th,root,
p3417
I1849
sVpd,punct,root,subj,
p3418
I1527
sVapp,comp,comp_fin,punct,root,subj,
p3419
I2099
sVadjunct_rc,app,obj,root,subj,
p3420
I1701
sVadjunct,adjunct_qt,comp,comp_fin,comp_inf,conjunct,obj,obj_th,root,
p3421
I1846
sVabbrev_punct,adjunct,adjunct_qt,comp,root,subj,
p3422
I757
sVadjunct,comp_fin,obj,punct,root,
p3423
I1935
sVabbrev_punct,adjunct,ne,obj_th,root,
p3424
I1334
sVabbrev_punct,adjunct,comp,obj,root,subj,
p3425
I968
sVadjunct,app,comp,pd,punct,root,
p3426
I37
sVapp,comp,punct,root,
p3427
I1335
sVadjunct,adjunct_qt,comp,conjunct,punct,root,subj,
p3428
I758
sVadjunct,conjunct,ne,obj,root,
p3429
I524
sVadjunct,conjunct,pd,punct,root,
p3430
I335
sVadjunct,app,comp,mwe,root,subj,
p3431
I258
sVadjunct,comp_inf,ne,obj,root,
p3432
I668
sVadjunct_qt,comp,comp_fin,comp_inf,pd,punct,root,subj,
p3433
I1469
sVadjunct,app,comp,comp_fin,comp_inf,obj,obj_th,root,subj,
p3434
I1567
sVadjunct_qt,comp_fin,mwe,pd,root,
p3435
I114
sVadjunct,adjunct_rc,conjunct,obj,refl,subj,
p3436
I1864
sVadjunct,comp,comp_ag,comp_inf,obj,root,
p3437
I1578
sVadjunct,adjunct_qt,comp,conjunct,mwe,ne,root,
p3438
I1008
sVadjunct_rc,comp,obj,root,subj,
p3439
I766
sVadjunct,comp_fin,ne,root,subj,
p3440
I1183
sVadjunct,comp_fin,comp_inf,obj,obj_th,root,subj,
p3441
I1562
sVadjunct,adjunct_rc,comp,conjunct,obj,punct,root,
p3442
I386
sVapp,conjunct,pre_coord,root,
p3443
I1429
sVadjunct,adjunct_rc,comp,comp_fin,mwe,root,
p3444
I448
sVadjunct,aux,comp,comp_fin,neg,root,
p3445
I1610
sVadjunct,aux,root,subj,
p3446
I1883
sVadjunct,comp,conjunct,ne,pd,root,
p3447
I820
sVadjunct,app,mwe,punct,root,subj,
p3448
I1569
sVadjunct,app,comp,conjunct,root,
p3449
I24
sVadjunct_qt,comp_inf,conjunct,pd,root,
p3450
I1447
sVadjunct,comp,comp_fin,punct,root,
p3451
I55
sVadjunct,comp,comp_fin,comp_inf,conjunct,refl,root,
p3452
I2086
sVcomp_fin,comp_inf,pd,root,
p3453
I1448
sVapp,punct,root,subj,
p3454
I8
sVadjunct,adjunct_rc,conjunct,obj,punct,subj,
p3455
I1863
sVadjunct,comp,ne,root,
p3456
I267
sVcomp,comp_fin,obj,pd,root,
p3457
I1115
sVadjunct,comp,comp_inf,refl,root,
p3458
I179
sVconjunct,ne,obj_th,root,
p3459
I1427
ssVannotation
p3460
(dp3461
Vnam_pro#head%nam_loc#head%
p3462
I203
sVnam_fac%nam_liv_person#head%
p3463
I125
sVnam_fac%nam_pro#head%
p3464
I123
sVnam_liv_person%action%
p3465
I176
sVnam_fac%nam_liv_god%
p3466
I145
sVnam_pro%nam_org#head%
p3467
I105
sVnam_liv_god#head%nam_pro%
p3468
I119
sVnam_pro#head%action#head%
p3469
I196
sVnam_liv_person%nam_oth%
p3470
I114
sVt3_range#head%t3_date#head%
p3471
I66
sVnam_liv_god%
p3472
I96
sVnam_liv_animal#head%
p3473
I34
sVnam_liv_person%nam_org%
p3474
I15
sVnam_loc#head%nam_org#head%
p3475
I55
sVnam_eve%nam_org%
p3476
I173
sVnam_liv_person%nam_fac%
p3477
I61
sVnam_fac%nam_liv_person%
p3478
I126
sVnam_org%nam_adj%
p3479
I136
sVnam_adj#head%nam_pro%
p3480
I90
sVi_state#head%
p3481
I24
sVnam_eve%nam_adj%
p3482
I137
sVi_action#head%
p3483
I22
sVaction#head%nam_org%
p3484
I161
sVnam_pro%
p3485
I20
sVnam_liv_person#head%nam_eve%
p3486
I131
sVt3_duration%nam_eve%
p3487
I168
sVnam_liv_person#head%nam_org%
p3488
I14
sVnam_adj#head%nam_org%
p3489
I43
sVt3_duration%t3_range%
p3490
I83
sVnam_loc%nam_fac%
p3491
I192
sVt3_duration#head%
p3492
I25
sVnam_loc#head%t3_date#head%
p3493
I120
sVnam_loc%nam_liv_person%
p3494
I172
sVnam_eve%t3_date%
p3495
I141
sVnam_oth_currency%
p3496
I162
sVt3_time#head%
p3497
I31
sVnam_org%
p3498
I11
sVnam_org%nam_adj#head%
p3499
I52
sVt3_duration%
p3500
I27
sVnam_eve#head%nam_loc#head%nam_org#head%
p3501
I174
sVnam_num_house#head%
p3502
I99
sVt3_date#head%nam_loc%
p3503
I121
sVaction%
p3504
I101
sVnam_liv_habitant#head%
p3505
I157
sVnam_liv_person#head%nam_pro%
p3506
I164
sVnam_loc#head%nam_eve%
p3507
I40
sS'n/a'
p3508
I1
sVt3_date#head%
p3509
I10
sVnam_eve%nam_liv_person#head%
p3510
I51
sVnam_fac#head%
p3511
I33
sVnam_fac%nam_pro%nam_adj#head%
p3512
I127
sVt3_date#head%nam_eve#head%
p3513
I193
sVnam_eve%t3_date#head%
p3514
I72
sVnam_loc#head%nam_org%
p3515
I46
sVnam_org%nam_fac%
p3516
I59
sVnam_loc%nam_org#head%
p3517
I178
sVnam_fac#head%nam_org%
p3518
I142
sVnam_eve%
p3519
I17
sVnam_oth_tech#head%
p3520
I87
sVnam_fac%nam_loc#head%
p3521
I81
sVnam_pro#head%nam_fac%
p3522
I124
sVi_action#head%nam_org%
p3523
I194
sVi_state%
p3524
I165
sVnam_liv_person#head%nam_pro#head%
p3525
I97
sVnam_eve#head%action#head%
p3526
I73
sVnam_pro%nam_org%
p3527
I104
sVstate#head%nam_pro%
p3528
I188
sVnam_fac#head%nam_adj#head%
p3529
I170
sVnam_liv_person#head%nam_fac#head%
p3530
I80
sVt3_duration#head%nam_eve%
p3531
I167
sVnam_fac%nam_org#head%
p3532
I191
sVperception#head%
p3533
I29
sVnam_fac%
p3534
I32
sVnam_fac%nam_liv_person#head%nam_pro%
p3535
I200
sVnam_eve%nam_liv_person%nam_oth%
p3536
I111
sVnam_loc#head%
p3537
I0
sVnam_pro#head%nam_org#head%
p3538
I68
sVnam_liv_person#head%nam_eve#head%
p3539
I132
sVnam_fac%nam_eve#head%
p3540
I109
sVnam_eve#head%nam_adj#head%
p3541
I138
sVnam_eve#head%nam_oth%
p3542
I112
sVnam_eve%action#head%
p3543
I151
sVnam_oth_address_street#head%nam_fac#head%
p3544
I95
sVnam_pro%nam_liv_habitant%
p3545
I91
sVnam_pro#head%nam_liv_person#head%
p3546
I103
sVt3_range%t3_date#head%
p3547
I144
sVnam_oth_license#head%
p3548
I42
sVnam_liv_person#head%nam_loc#head%
p3549
I64
sVnam_oth#head%
p3550
I45
sVnam_loc%nam_pro%
p3551
I149
sVnam_oth_www%
p3552
I152
sVnam_org#head%nam_eve%
p3553
I58
sVnam_adj#head%nam_fac%
p3554
I182
sVnam_liv_person#head%nam_fac%
p3555
I62
sVnam_pro%nam_liv_habitant#head%
p3556
I92
sVnam_adj#head%
p3557
I2
sVnam_eve%t3_duration%
p3558
I190
sVnam_loc%action#head%
p3559
I186
sVnam_pro%nam_liv_person%
p3560
I102
sVt3_range#head%
p3561
I38
sVnam_eve%nam_fac%
p3562
I117
sVnam_org%nam_loc#head%
p3563
I48
sVnam_loc%nam_eve%
p3564
I181
sVnam_eve#head%nam_adj#head%nam_fac%
p3565
I128
sVnam_eve%nam_org#head%
p3566
I36
sVt3_date%t3_range%
p3567
I63
sVreporting#head%
p3568
I23
sVnam_org#head%nam_fac%
p3569
I133
sVnam_org%nam_liv_person#head%
p3570
I160
sVaspectual#head%
p3571
I21
sVnam_pro#head%nam_adj#head%
p3572
I140
sVnam_pro%nam_adj%
p3573
I139
sVnam_pro%nam_adj#head%
p3574
I129
sVaction#head%nam_eve#head%
p3575
I41
sVnam_oth%nam_adj#head%
p3576
I113
sVnam_fac#head%nam_liv_person#head%
p3577
I100
sVnam_loc%nam_adj#head%
p3578
I115
sVnam_oth%
p3579
I44
sVt3_date#head%t3_range%
p3580
I5
sVnam_adj#head%nam_org#head%
p3581
I12
sVnam_loc#head%nam_pro%
p3582
I93
sVaction#head%nam_pro#head%
p3583
I156
sVnam_loc%nam_liv_person#head%
p3584
I171
sVnam_liv_person#head%nam_oth%
p3585
I116
sVt3_time#head%t3_range#head%
p3586
I187
sVnam_oth_currency#head%
p3587
I57
sVnam_loc#head%nam_pro#head%
p3588
I69
sVnam_loc#head%nam_fac%
p3589
I79
sVnam_org#head%nam_adj#head%
p3590
I106
sVnam_fac%nam_eve%nam_liv_person#head%
p3591
I107
sVaction#head%nam_pro%
p3592
I26
sVnam_org#head%
p3593
I8
sVnam_liv_person#head%nam_loc%
p3594
I65
sVnam_eve%nam_liv_person#head%nam_oth%
p3595
I110
sVnam_liv_person#head%action#head%
p3596
I177
sVnam_org%nam_pro%
p3597
I89
sVnam_eve#head%
p3598
I16
sVlight_predicate#head%
p3599
I30
sVnam_pro#head%
p3600
I19
sVnam_pro#head%nam_liv_god#head%
p3601
I175
sVnam_oth_license%
p3602
I158
sVnam_adj%
p3603
I84
sVnam_org%nam_pro#head%
p3604
I88
sVnam_adj%nam_pro%
p3605
I134
sVnam_org%nam_loc%
p3606
I76
sVnam_adj#head%nam_pro#head%
p3607
I135
sVnam_loc#head%nam_adj#head%
p3608
I78
sVnam_fac%nam_eve%nam_liv_person%
p3609
I108
sVnam_loc%
p3610
I4
sVnam_org#head%nam_pro%
p3611
I189
sVnam_pro%action#head%
p3612
I148
sVnam_eve#head%nam_fac%
p3613
I118
sVnam_oth_www#head%
p3614
I153
sVnam_liv_person#head%nam_org#head%
p3615
I98
sVt3_range%
p3616
I47
sVnam_fac%nam_org#head%nam_pro#head%
p3617
I199
sVaction#head%nam_eve%
p3618
I18
sVnam_fac%nam_adj#head%
p3619
I154
sVnam_pro#head%nam_oth_license#head%
p3620
I159
sVnam_pro%t3_date#head%
p3621
I70
sVt3_date%
p3622
I28
sVnam_oth_tech%
p3623
I86
sVnam_adj#head%nam_fac#head%
p3624
I150
sVnam_eve%nam_liv_person%
p3625
I49
sVnam_fac%nam_liv_god#head%
p3626
I146
sVnam_eve#head%nam_fac%nam_adj#head%
p3627
I130
sVnam_org%nam_liv_person%
p3628
I13
sVt3_time#head%nam_pro%
p3629
I202
sVt3_time%
p3630
I67
sVnam_eve%nam_loc#head%
p3631
I50
sVt3_set%
p3632
I163
sVt3_date#head%t3_range#head%
p3633
I169
sVnam_eve%t3_duration#head%
p3634
I77
sVnam_liv_plant#head%
p3635
I155
sVnam_liv_person%
p3636
I6
sVnam_adj#head%nam_eve%
p3637
I180
sVt3_date#head%nam_pro%
p3638
I53
sVnam_liv_person#head%
p3639
I7
sVnam_pro%nam_loc%
p3640
I184
sVnam_fac%nam_pro%
p3641
I198
sVnam_pro%nam_liv_person#head%
p3642
I166
sVnam_loc%nam_org%
p3643
I75
sVstate#head%
p3644
I3
sVnam_fac#head%nam_pro#head%
p3645
I201
sVnam_adj#head%nam_loc%
p3646
I54
sVstate%
p3647
I197
sVnam_org#head%nam_fac#head%
p3648
I60
sVnam_liv_character#head%
p3649
I35
sVnam_oth_address_street%
p3650
I94
sVt3_set#head%
p3651
I37
sVnam_eve%nam_adj#head%
p3652
I183
sVnam_org#head%nam_loc#head%
p3653
I56
sVt3_duration#head%t3_range%
p3654
I185
sVt3_date%nam_pro%
p3655
I147
sVnam_pro%nam_loc#head%
p3656
I85
sVaction#head%
p3657
I9
sVnam_adj#head%nam_eve#head%
p3658
I179
sVnam_loc#head%nam_fac#head%
p3659
I82
sVnam_org%action#head%
p3660
I195
sVt3_time%t3_range%
p3661
I143
sVnam_org#head%nam_pro#head%
p3662
I74
sVnam_liv_god#head%
p3663
I71
sVt3_date#head%nam_eve%
p3664
I39
sVnam_pro%nam_fac%nam_adj#head%
p3665
I122
ssVdependency_path_from
p3666
(dp3667
ss.