(dp0
S'labels_index'
p1
(dp2
Vi_action
p3
I4
sVperception
p4
I7
sVreporting
p5
I5
sVi_state
p6
I6
sS'n/a'
p7
I0
sVaspectual
p8
I3
sVstate
p9
I1
sVaction
p10
I2
sVlight_predicate
p11
I8
ssS'indexed_features'
p12
(dp13
Vstruct-P
p14
(dp15
VXxX
p16
I6
sVxd
p17
I16
sVX-Xx-x
p18
I22
sVX-Xx
p19
I23
sVXxXx-x
p20
I26
sVdxd
p21
I27
sVx-xdx-x
p22
I18
sV-
p23
I1
sVxX
p24
I13
sVXdXd
p25
I25
sVXxd
p26
I19
sVXdx
p27
I24
sVx-
p28
I7
sVXx-x
p29
I12
sVX-x
p30
I9
sVdx
p31
I14
sVx
p32
I2
sVX
p33
I3
sVxdx
p34
I20
sVXxXx
p35
I15
sVd
p36
I4
sVxXx
p37
I21
sVXd
p38
I10
sVXx
p39
I0
sVx-x
p40
I11
sVdX
p41
I17
sVx-X
p42
I8
sVXx-x-x
p43
I5
sss.