(dp0
S'labels_index'
p1
(dp2
Vtlink_inc
p3
I11
sVtlink_is_inc
p4
I12
sVtlink_end
p5
I6
sVtlink_sim
p6
I13
sVtlink_beg_by
p7
I4
sS'n/a'
p8
I0
sVtlink_ide
p9
I10
sVtlink_beg
p10
I3
sVtlink_bef
p11
I2
sVtlink_i_bef
p12
I9
sVtlink_end_by
p13
I7
sVtlink_aft
p14
I1
sVtlink_i_aft
p15
I8
sVtlink_dur
p16
I5
ssS'indexed_features'
p17
(dp18
Vtoken_type
p19
(dp20
S'to'
p21
I2
sS'from'
p22
I1
sS'n/a'
p23
I0
ssS'dependency_path_short'
p24
(dp25
S''
p26
I7
sVadjunct-conjunct-aux
p27
I559
sVadjunct-conjunct-adjunct
p28
I90
sVconjunct-obj-adjunct
p29
I139
sVadjunct-app-adjunct-conjunct-adjunct
p30
I285
sVconjunct-comp_fin-comp-adjunct
p31
I492
sVadjunct-subj
p32
I182
sVcomp_fin-neg
p33
I73
sVcomp-ne
p34
I87
sVcomp-conjunct-adjunct
p35
I111
sVmwe
p36
I30
sVadjunct-subj-adjunct
p37
I135
sVaux
p38
I122
sVconjunct-comp_fin-adjunct-punct
p39
I495
sVconjunct-comp-adjunct-comp-adjunct-mwe-conjunct-ne
p40
I570
sVadjunct_qt-punct
p41
I396
sVadjunct-comp-comp_fin-subj-comp
p42
I465
sVconjunct-subj-comp-comp_fin-conjunct-adjunct-mwe-comp-abbrev_punct
p43
I35
sVcomp-adjunct-pd-adjunct
p44
I345
sVadjunct-comp_fin-comp-adjunct
p45
I579
sVcomp_inf-adjunct-comp
p46
I359
sVobj-conjunct-adjunct-obj-adjunct-ne
p47
I380
sVadjunct-pd-adjunct
p48
I143
sVne-abbrev_punct
p49
I372
sVpunct-mwe
p50
I304
sVmwe-comp-adjunct-ne
p51
I109
sVobj-adjunct_rc-punct
p52
I329
sVadjunct-conjunct-obj-adjunct-comp
p53
I203
sVconjunct-pd
p54
I394
sVcomp-subj-app-adjunct
p55
I390
sVadjunct-conjunct-obj-adjunct
p56
I204
sVconjunct-adjunct-comp
p57
I18
sVconjunct-subj-comp-adjunct-comp
p58
I241
sVsubj-comp-comp_fin-conjunct-obj_th-punct
p59
I13
sVadjunct-comp-conjunct-obj_th-conjunct-adjunct-comp-adjunct
p60
I387
sVcomp_fin-comp_inf-obj_th-adjunct-obj-adjunct-conjunct-obj-adjunct
p61
I402
sVcomp-adjunct_rc-adjunct_qt-adjunct-comp-adjunct
p62
I251
sVconjunct-comp_inf-comp-punct
p63
I546
sVmwe-comp-adjunct-mwe
p64
I373
sVcomp_fin-subj-adjunct-comp
p65
I477
sVpunct-subj
p66
I147
sVadjunct-app-punct
p67
I528
sVneg
p68
I74
sVapp-adjunct-comp-adjunct
p69
I318
sVadjunct_rc-adjunct_qt-adjunct-comp
p70
I272
sVcomp_fin-refl
p71
I237
sVobj-adjunct-obj
p72
I214
sVcomp_ag
p73
I125
sVpd-adjunct-ne-conjunct
p74
I200
sVconjunct-aux
p75
I130
sVpd-adjunct-punct
p76
I222
sVconjunct-ne
p77
I96
sVconjunct-obj-ne
p78
I466
sVpunct
p79
I10
sVconjunct-comp_inf-comp-conjunct-adjunct
p80
I176
sVcomp-adjunct-comp-abbrev_punct
p81
I594
sVcomp-comp_fin-conjunct-adjunct-mwe
p82
I28
sVadjunct-conjunct-punct
p83
I184
sVadjunct-comp-adjunct-obj-adjunct-comp
p84
I449
sVcomp-adjunct-mwe
p85
I323
sVcomp-adjunct_rc-adjunct_qt-adjunct
p86
I250
sVconjunct-adjunct-subj-adjunct-comp-adjunct
p87
I123
sVroot
p88
I543
sVconjunct-obj_th-punct
p89
I11
sVconjunct-abbrev_punct
p90
I505
sVcomp-comp_fin-comp_inf-obj-adjunct
p91
I355
sVroot-ne
p92
I567
sVobj_th-adjunct-conjunct-adjunct
p93
I470
sVcomp_ag-comp
p94
I126
sVcomp-conjunct
p95
I114
sVapp
p96
I6
sVcomp-comp_fin-obj_th
p97
I436
sVcomp-adjunct-comp-adjunct_rc-comp-adjunct-comp
p98
I260
sVadjunct-app-adjunct-comp-conjunct-adjunct
p99
I284
sVadjunct-obj-conjunct
p100
I98
sVconjunct-punct
p101
I179
sVcomp-adjunct-obj-adjunct
p102
I452
sVconjunct-obj_th-adjunct-comp
p103
I152
sVsubj-ne
p104
I76
sVadjunct-subj-adjunct_rc-punct
p105
I350
sVadjunct_rc-refl
p106
I587
sVcomp_inf
p107
I288
sVne-comp
p108
I212
sVcomp-comp_fin-comp_inf-obj_th-adjunct-obj-adjunct-conjunct-obj-adjunct
p109
I401
sVconjunct-adjunct-comp-comp_fin
p110
I133
sVobj-adjunct-mwe-comp-adjunct
p111
I346
sVmwe-comp-adjunct-comp-adjunct_rc-adjunct_qt-adjunct-comp-adjunct
p112
I258
sVcomp_fin-conjunct-adjunct
p113
I19
sVobj-conjunct-comp-comp_fin
p114
I438
sVcomp_fin-subj-adjunct-conjunct
p115
I555
sVadjunct-comp-adjunct_rc-adjunct_qt-adjunct-comp-adjunct
p116
I254
sVobj-adjunct-adjunct_rc-adjunct-comp-ne
p117
I410
sVcomp-comp_fin-comp_inf-obj_th
p118
I404
sVobj-conjunct-pd
p119
I434
sVadjunct-subj-punct
p120
I128
sVconjunct-comp_fin-comp
p121
I485
sVcomp_inf-obj-adjunct
p122
I327
sVcomp-comp_fin-adjunct-subj-adjunct
p123
I519
sVadjunct-mwe-subj-mwe-app-conjunct-adjunct
p124
I315
sVcomp_inf-comp-comp_fin-adjunct-comp
p125
I580
sVconjunct-comp-adjunct
p126
I91
sVconjunct-obj_th
p127
I154
sVadjunct_compar-comp
p128
I166
sVconjunct-subj-adjunct
p129
I191
sVcomp-adjunct_rc-comp
p130
I275
sVadjunct-ne-conjunct
p131
I199
sVadjunct-comp-conjunct-abbrev_punct
p132
I115
sVobj-adjunct-punct
p133
I362
sVcomp-adjunct-comp-adjunct_rc-adjunct
p134
I256
sVcomp_fin-punct
p135
I336
sVcomp_inf-obj-adjunct_rc-punct
p136
I328
sVcomp-adjunct-ne
p137
I566
sVconjunct-obj_th-conjunct-adjunct-comp-adjunct-conjunct
p138
I388
sVadjunct-root-comp-punct
p139
I426
sVcomp_inf-adjunct
p140
I243
sVsubj-app-adjunct-mwe-comp-adjunct
p141
I50
sVcomp_fin-pd-adjunct
p142
I324
sVadjunct-obj
p143
I118
sVcomp-adjunct-comp-adjunct-mwe
p144
I575
sVadjunct-comp-adjunct-pd-adjunct
p145
I344
sVsubj-adjunct-comp_fin-adjunct
p146
I376
sVconjunct-comp_fin-conjunct-comp
p147
I486
sVconjunct-obj
p148
I138
sVapp-ne
p149
I82
sVconjunct-obj_th-comp
p150
I239
sVcomp_fin-conjunct-cond
p151
I39
sVadjunct-root-comp-adjunct-punct
p152
I423
sVadjunct-conjunct-comp_fin-conjunct
p153
I482
sVobj-adjunct-subj
p154
I343
sVcomp-comp_ag-comp-adjunct
p155
I294
sVmwe-adjunct-punct-mwe
p156
I302
sVcomp-adjunct_rc-subj
p157
I277
sVadjunct-mwe-comp-adjunct-comp
p158
I516
sVmwe-comp-adjunct
p159
I48
sVadjunct-conjunct-obj
p160
I185
sVcomp-adjunct-comp-adjunct_rc-punct
p161
I270
sVconjunct-mwe
p162
I208
sVconjunct-obj_th-comp-comp_fin-comp_inf-adjunct
p163
I225
sVsubj-adjunct_rc
p164
I530
sVobj_th-adjunct
p165
I155
sVobj-pd-comp
p166
I279
sVcomp-adjunct-app-adjunct-comp-adjunct
p167
I316
sVconjunct-subj-app-ne
p168
I81
sVsubj-comp
p169
I25
sVadjunct-comp_fin-adjunct
p170
I377
sVne-adjunct-conjunct
p171
I417
sVconjunct
p172
I17
sVadjunct_qt
p173
I192
sVadjunct_qt-adjunct
p174
I268
sVmwe-comp-adjunct-comp-adjunct_rc-punct
p175
I269
sVcomp_fin-comp_inf-obj
p176
I231
sVsubj-comp-comp_fin-conjunct-adjunct
p177
I21
sVadjunct-comp-comp_fin-comp_inf-obj_th-adjunct-obj-adjunct-conjunct-obj-adjunct
p178
I403
sVobj-adjunct_rc-subj
p179
I331
sVadjunct-conjunct
p180
I62
sVobj-adjunct-aux
p181
I340
sVcomp-comp_fin-conjunct-adjunct-comp
p182
I44
sVadjunct-conjunct-pd
p183
I393
sVadjunct-comp-comp_fin-comp_inf-obj_th-adjunct-obj-adjunct-conjunct-adjunct-mwe-comp-obj
p184
I400
sVcomp_fin-conjunct-comp
p185
I487
sVsubj-adjunct-subj
p186
I334
sVadjunct_rc-adjunct_qt-adjunct-comp-adjunct
p187
I253
sVconjunct-comp_inf-obj-adjunct
p188
I58
sVsubj-adjunct-mwe-subj-mwe
p189
I314
sVcomp-conjunct-comp_fin-subj
p190
I181
sVadjunct_rc-pd-conjunct-adjunct
p191
I589
sVcomp-adjunct-comp-ne
p192
I475
sVadjunct_compar
p193
I165
sVsubj-adjunct-comp-ne
p194
I242
sVadjunct_compar-comp_fin-subj
p195
I557
sVcomp-comp_fin-subj-adjunct-comp_ag-comp
p196
I464
sVconjunct-app-punct
p197
I479
sVpd-conjunct-adjunct-obj
p198
I590
sVcomp-adjunct-comp-adjunct
p199
I342
sVcomp_fin-adjunct-ne
p200
I432
sVconjunct-obj-adjunct-comp
p201
I92
sVobj-adjunct
p202
I57
sVobj-app
p203
I550
sVmwe-adjunct-punct
p204
I210
sVsubj-comp-adjunct-comp
p205
I240
sVsubj-adjunct_rc-punct
p206
I349
sVcomp_inf-obj-adjunct_rc
p207
I332
sVcomp_inf-obj-adjunct-mwe-comp-adjunct
p208
I515
sVconjunct-comp_inf-comp
p209
I205
sVcomp-comp_ag-comp
p210
I293
sVadjunct-comp-abbrev_punct
p211
I220
sVadjunct-comp-adjunct-comp-abbrev_punct
p212
I593
sVadjunct-comp-conjunct
p213
I113
sVsubj-adjunct-comp-abbrev_punct
p214
I457
sVpunct-subj-adjunct
p215
I148
sVadjunct_compar-mwe-adjunct
p216
I312
sVadjunct-conjunct-adjunct-comp-adjunct
p217
I560
sVobj_th-punct
p218
I469
sVadjunct-subj-adjunct-punct
p219
I425
sVadjunct_qt-comp_fin-subj
p220
I194
sVsubj-adjunct-comp-adjunct
p221
I162
sVsubj-adjunct-subj-adjunct
p222
I529
sVobj-comp-adjunct
p223
I455
sVcomp_inf-obj
p224
I229
sVapp-adjunct-conjunct-adjunct
p225
I282
sVobj-adjunct-comp-comp_fin
p226
I354
sVcomp-comp_fin-adjunct-mwe-comp-adjunct-comp
p227
I518
sVcomp_fin-subj
p228
I169
sVsubj-adjunct-punct
p229
I216
sVadjunct-mwe-comp-abbrev_punct
p230
I37
sVmwe-comp_fin-pd-mwe-adjunct_rc-punct
p231
I67
sVobj-conjunct-comp-punct
p232
I440
sVcomp_fin-subj-adjunct
p233
I478
sVadjunct-comp-app
p234
I383
sVcomp-comp_fin-subj-adjunct-adjunct_compar
p235
I431
sVadjunct-comp-adjunct_compar-comp
p236
I164
sVcomp_fin-adjunct-comp
p237
I558
sVobj-adjunct-conjunct
p238
I86
sVadjunct-mwe-comp-adjunct
p239
I347
sVconjunct-adjunct_rc-pd-conjunct-adjunct-obj
p240
I592
sVadjunct-comp-comp_fin
p241
I134
sVconjunct-comp-comp_ag-comp
p242
I297
sVconjunct-subj-adjunct-comp
p243
I338
sVobj-adjunct-comp-comp_fin-comp_inf-adjunct-comp
p244
I368
sVadjunct-pd-comp-adjunct
p245
I187
sVadjunct_qt-conjunct-ne
p246
I244
sVadjunct-aux
p247
I291
sVcomp-conjunct-ne
p248
I106
sVcomp_fin-comp_inf-obj_th-adjunct-obj-adjunct-conjunct-adjunct-mwe-comp-obj
p249
I398
sVcomp_fin-comp_inf-adjunct-comp
p250
I358
sVobj-conjunct-adjunct-ne
p251
I381
sVadjunct-mwe-comp
p252
I110
sVcomp-adjunct-comp-adjunct-conjunct-adjunct-comp
p253
I321
sVsubj-adjunct-comp-adjunct-comp-adjunct
p254
I444
sVcomp-comp_fin-conjunct-obj_th-punct
p255
I12
sVadjunct-mwe-subj-mwe
p256
I309
sVapp-ne-app-punct
p257
I418
sVadjunct-subj-conjunct-comp-adjunct
p258
I533
sVadjunct-comp-adjunct-app-punct
p259
I305
sVpd-comp-adjunct-punct
p260
I190
sVconjunct-comp-adjunct-comp-ne
p261
I471
sVconjunct-adjunct-subj-punct
p262
I129
sVcomp_fin-conjunct-subj-adjunct
p263
I499
sVconjunct-comp
p264
I27
sVconjunct-obj-adjunct-conjunct
p265
I325
sVconjunct-adjunct-comp_inf-conjunct-adjunct-obj-adjunct
p266
I584
sVcomp-adjunct-comp-adjunct_rc-adjunct_qt-adjunct-comp-adjunct
p267
I257
sVadjunct-comp-adjunct-ne
p268
I565
sVpd-adjunct-ne
p269
I221
sVcomp-comp_fin-adjunct
p270
I236
sVmwe-comp-adjunct-comp
p271
I517
sVsubj-adjunct-subj-conjunct-subj-adjunct_rc-adjunct
p272
I541
sVadjunct-mwe-comp-conjunct-mwe
p273
I207
sVne-adjunct-app-punct
p274
I545
sVcomp-adjunct-punct
p275
I101
sVconjunct-comp_fin
p276
I497
sVne-conjunct
p277
I201
sVsubj-conjunct-adjunct
p278
I414
sVconjunct-adjunct-ne
p279
I504
sVadjunct_qt-adjunct-cond
p280
I267
sVmwe-comp-adjunct-comp-adjunct_rc-adjunct_qt-adjunct-comp
p281
I261
sVpunct-subj-adjunct-pd
p282
I149
sVsubj-comp-comp_fin-conjunct
p283
I16
sVcomp-abbrev_punct
p284
I32
sVne-app-punct
p285
I419
sVconjunct-refl
p286
I157
sVcomp-comp_fin-pd-conjunct
p287
I430
sVadjunct-subj-adjunct-comp
p288
I424
sVsubj-conjunct
p289
I369
sVadjunct-comp_ag-comp
p290
I461
sVsubj-app-adjunct-mwe-comp
p291
I54
sVsubj-adjunct
p292
I52
sVobj-conjunct-comp-comp_fin-adjunct
p293
I443
sVadjunct
p294
I4
sVconjunct-pd-adjunct
p295
I151
sVconjunct-obj_th-adjunct
p296
I375
sVapp-punct
p297
I46
sVcomp_ag-comp-adjunct
p298
I292
sVpd-adjunct-comp-ne
p299
I223
sVcomp_fin-comp
p300
I484
sVadjunct-conjunct-comp_fin-comp-adjunct
p301
I491
sVcomp-ne-comp
p302
I211
sVadjunct-adjunct_rc-adjunct
p303
I412
sVmwe-comp
p304
I107
sVconjunct-adjunct-comp-adjunct-comp-adjunct
p305
I548
sVadjunct-punct
p306
I64
sVpd-adjunct
p307
I144
sVadjunct-conjunct-subj-ne
p308
I193
sVobj-adjunct-obj_th-adjunct
p309
I521
sVroot-refl
p310
I374
sVconjunct-subj-comp
p311
I26
sVadjunct-subj-adjunct-comp-adjunct
p312
I217
sVobj_th-conjunct-adjunct-comp-adjunct-conjunct
p313
I389
sVconjunct-obj_th-comp-comp_fin-adjunct
p314
I234
sVobj_th-comp-comp_fin-adjunct
p315
I235
sVcomp_fin
p316
I42
sVsubj-comp-adjunct
p317
I476
sVconjunct-adjunct-comp_inf-conjunct-comp
p318
I583
sVconjunct-comp-adjunct-comp
p319
I472
sVcomp_fin-comp_inf-adjunct
p320
I360
sVobj-adjunct-comp
p321
I80
sVadjunct-comp-adjunct-conjunct
p322
I63
sVcomp-comp_fin-conjunct-adjunct-comp-adjunct
p323
I172
sVadjunct-pd
p324
I146
sVadjunct-app-adjunct-comp
p325
I286
sVobj_th-adjunct-comp-conjunct-adjunct
p326
I508
sVcomp-adjunct-subj-adjunct_rc-obj
p327
I353
sVobj-adjunct-comp_ag-comp-abbrev_punct
p328
I460
sVpd-comp-obj-adjunct-conjunct
p329
I84
sVadjunct_compar-comp-adjunct
p330
I522
sVconjunct-adjunct-comp-adjunct
p331
I120
sVadjunct-comp-conjunct-ne
p332
I105
sVsubj-app-ne
p333
I215
sVsubj-adjunct-comp-adjunct-app-adjunct-comp-adjunct
p334
I320
sVcomp_fin-comp_inf-obj-adjunct
p335
I356
sVadjunct-conjunct-comp_fin-conjunct-comp
p336
I488
sVadjunct-ne
p337
I78
sVconjunct-subj
p338
I93
sVcomp-adjunct_compar-comp
p339
I163
sVadjunct-mwe-comp-obj
p340
I399
sVcomp-comp_fin-comp
p341
I577
sVconjunct-comp_inf
p342
I563
sVpd-adjunct-comp
p343
I248
sVcomp-app
p344
I385
sVadjunct_rc-adjunct_qt-adjunct
p345
I252
sVmwe-comp-adjunct-comp-adjunct_rc-adjunct_qt-adjunct
p346
I263
sVsubj-conjunct-subj-adjunct_rc-adjunct
p347
I539
sVcomp_inf-adjunct_compar-comp_fin-subj
p348
I556
sVconjunct-adjunct-mwe
p349
I429
sVadjunct_rc-obj
p350
I352
sVconjunct-comp-obj_th-adjunct-comp
p351
I131
sVadjunct-comp-adjunct-app
p352
I307
sVobj_th-comp-comp_fin
p353
I227
sVobj-adjunct-comp-comp_fin-comp_inf
p354
I367
sVadjunct-obj-adjunct-obj
p355
I301
sVconjunct-comp_fin-conjunct-adjunct
p356
I489
sVadjunct-comp-adjunct-punct
p357
I137
sVadjunct-conjunct-adjunct-comp
p358
I561
sVsubj-adjunct-mwe
p359
I159
sVconjunct-comp-obj
p360
I474
sVadjunct-root-comp-adjunct
p361
I422
sVadjunct-subj-conjunct
p362
I538
sVobj-app-punct
p363
I408
sVconjunct-adjunct-mwe-comp
p364
I299
sVadjunct-comp-adjunct-comp-adjunct
p365
I280
sVsubj-punct
p366
I45
sVmwe-comp-adjunct-comp-adjunct_rc-adjunct_qt-adjunct-cond
p367
I262
sVadjunct-comp-ne
p368
I88
sVobj-punct
p369
I140
sVcomp_fin-adjunct-comp_fin-adjunct
p370
I171
sVadjunct-comp_fin-subj
p371
I168
sVcomp_fin-subj-adjunct-conjunct-adjunct-conjunct
p372
I552
sVobj-adjunct-app-punct
p373
I527
sVsubj-adjunct_rc-adjunct
p374
I540
sVobj-adjunct-conjunct-adjunct
p375
I89
sVobj_th-comp-comp_fin-comp_inf-obj
p376
I232
sVconjunct-adjunct-punct
p377
I428
sVadjunct-mwe-comp-adjunct-ne
p378
I108
sVcomp_fin-conjunct-subj
p379
I501
sVabbrev_punct
p380
I33
sVobj-adjunct-comp-adjunct-comp-adjunct
p381
I341
sVobj-conjunct-ne
p382
I100
sVmwe-comp_fin-neg
p383
I72
sVcomp
p384
I1
sVobj-comp
p385
I202
sVadjunct-obj_th
p386
I378
sVobj_th-adjunct-abbrev_punct
p387
I525
sVcomp_inf-comp-conjunct-adjunct
p388
I177
sVadjunct-comp-conjunct-adjunct
p389
I112
sVsubj-comp-punct
p390
I23
sVsubj-adjunct-pd
p391
I145
sVobj_th-comp-punct
p392
I228
sVadjunct-comp-comp_fin-comp_inf-obj-adjunct
p393
I364
sVsubj-adjunct-abbrev_punct
p394
I104
sVconjunct-adjunct-obj-adjunct-comp
p395
I298
sVadjunct-comp_ag-comp-abbrev_punct
p396
I458
sVcomp_fin-conjunct-adjunct-mwe
p397
I29
sVobj_th-adjunct-comp-conjunct-comp
p398
I511
sVcomp_fin-adjunct-subj-adjunct
p399
I520
sVconjunct-subj-comp-comp_fin-conjunct-adjunct-comp
p400
I24
sVconjunct-comp_fin-conjunct-subj
p401
I500
sVconjunct-app
p402
I480
sVadjunct-comp-adjunct_rc-adjunct_qt-adjunct
p403
I266
sVobj_th-adjunct-conjunct
p404
I167
sVadjunct-subj-conjunct-subj
p405
I537
sVcomp_inf-obj-adjunct-mwe
p406
I512
sVsubj-adjunct-mwe-subj-mwe-app-conjunct-adjunct
p407
I319
sVadjunct_rc-pd-conjunct-adjunct-obj
p408
I591
sVobj-mwe
p409
I183
sVpd
p410
I71
sVpunct-subj-adjunct-pd-adjunct
p411
I141
sVsubj-adjunct-subj-conjunct-subj
p412
I536
sVconjunct-adjunct-conjunct
p413
I150
sVobj-adjunct-adjunct_rc-adjunct-comp
p414
I409
sVmwe-comp_fin-pd
p415
I69
sVobj-conjunct-adjunct
p416
I121
sVsubj-adjunct-conjunct
p417
I407
sVcomp-adjunct_rc-punct
p418
I578
sVadjunct-mwe-comp-conjunct-mwe-adjunct-punct
p419
I209
sVadjunct-mwe-subj-mwe-app-conjunct-adjunct-punct
p420
I311
sVadjunct-comp-adjunct_rc-adjunct_qt-adjunct-cond
p421
I265
sVcomp-adjunct-comp
p422
I66
sVconjunct-adjunct_rc-pd-conjunct-adjunct
p423
I588
sVsubj-adjunct-subj-conjunct-adjunct-mwe-comp
p424
I467
sVadjunct-comp-adjunct-comp-adjunct-comp
p425
I542
sVcomp-adjunct-comp-adjunct-comp-adjunct
p426
I564
sVconjunct-obj-comp
p427
I337
sVcomp_fin-conjunct-adjunct-comp
p428
I9
sVobj-adjunct-comp-conjunct-adjunct
p429
I456
sVadjunct_qt-conjunct
p430
I174
sVconjunct-obj-adjunct-comp-adjunct
p431
I95
sVapp-conjunct-adjunct-punct
p432
I310
sVcomp_inf-refl
p433
I160
sVcomp-adjunct_rc-adjunct_qt
p434
I273
sVcomp-comp_fin-conjunct-adjunct
p435
I20
sVconjunct-comp-adjunct-comp-adjunct
p436
I473
sVadjunct-conjunct-ne
p437
I384
sVadjunct_rc-punct
p438
I351
sVconjunct-comp-comp_fin-adjunct
p439
I442
sVconjunct-comp_fin-subj
p440
I180
sVcond
p441
I40
sVrefl
p442
I116
sVcomp_fin-comp_inf
p443
I357
sVadjunct-comp
p444
I3
sVcomp_fin-comp_inf-obj_th
p445
I405
sVobj_th-comp
p446
I238
sVadjunct-comp-comp_fin-comp_inf-obj_th
p447
I406
sVsubj-adjunct-comp
p448
I103
sVconjunct-comp-adjunct-comp-adjunct-mwe
p449
I572
sVroot-app-punct
p450
I568
sVobj-adjunct_compar-comp-adjunct
p451
I524
sVadjunct-comp_ag
p452
I447
sVadjunct-comp-comp_fin-subj
p453
I365
sVobj_th-adjunct-comp
p454
I153
sVcomp_inf-comp
p455
I206
sVobj_th-adjunct-comp-adjunct
p456
I156
sVapp-adjunct-comp
p457
I283
sVcomp-comp_fin
p458
I41
sVconjunct-obj_th-comp-comp_fin-comp_inf-obj
p459
I230
sVcomp-subj-adjunct-conjunct-adjunct
p460
I391
sVsubj-app-punct
p461
I55
sVcomp-comp_fin-comp_inf-obj_th-adjunct-obj-adjunct-conjunct-adjunct-mwe-comp-obj
p462
I397
sVcomp_fin-subj-comp-adjunct
p463
I581
sVmwe-comp-abbrev_punct
p464
I31
sVadjunct-app-adjunct-comp-adjunct
p465
I317
sVadjunct_rc-subj
p466
I278
sVcomp_fin-obj
p467
I494
sVadjunct-adjunct_compar-mwe-adjunct
p468
I313
sVadjunct-app-ne
p469
I562
sVadjunct-comp-adjunct-app-adjunct-comp-adjunct
p470
I306
sVadjunct-comp-adjunct-abbrev_punct
p471
I451
sVsubj-adjunct-comp-adjunct-punct
p472
I102
sVcomp-comp_fin-subj-comp-adjunct
p473
I582
sVadjunct-conjunct-comp_fin-adjunct-comp
p474
I503
sVadjunct-pd-adjunct-comp-adjunct
p475
I245
sVcomp_inf-pd-adjunct-subj
p476
I290
sVpd-comp
p477
I83
sVadjunct-comp_inf-obj
p478
I415
sVobj_th-comp-comp_fin-comp_inf-adjunct
p479
I226
sVmwe-comp-adjunct-comp-adjunct_rc-comp-adjunct-comp
p480
I259
sVsubj-adjunct-subj-conjunct
p481
I531
sVcomp-adjunct-comp-adjunct-comp
p482
I249
sVadjunct-conjunct-comp_fin-obj
p483
I493
sVadjunct-conjunct-adjunct-conjunct
p484
I553
sVpd-adjunct-comp-abbrev_punct
p485
I224
sVcomp-adjunct-conjunct
p486
I61
sVcomp_fin-conjunct
p487
I14
sVadjunct-comp-adjunct-comp-ne
p488
I576
sVadjunct_rc-adjunct
p489
I411
sVadjunct-obj-adjunct-ne
p490
I379
sVadjunct-comp-adjunct-comp
p491
I186
sVsubj-adjunct-comp-adjunct-comp
p492
I445
sVobj-adjunct-comp-adjunct
p493
I94
sNI0
sVobj-conjunct-subj-adjunct
p494
I439
sVcomp-comp_fin-adjunct-comp_fin-adjunct
p495
I170
sVobj_th-adjunct-ne
p496
I597
sVcomp-adjunct-conjunct-adjunct
p497
I195
sVadjunct_rc-comp
p498
I276
sVconjunct-comp-ne
p499
I509
sVadjunct-comp_inf-conjunct-adjunct-obj-adjunct
p500
I585
sVapp-adjunct-mwe-comp-adjunct
p501
I47
sVadjunct-conjunct-comp_fin-conjunct-adjunct
p502
I490
sVpd-adjunct-comp-adjunct
p503
I246
sVobj_th
p504
I79
sVobj-adjunct_rc
p505
I333
sVconjunct-subj-adjunct-punct
p506
I462
sVadjunct_rc-adjunct_qt
p507
I274
sVadjunct-subj-conjunct-subj-adjunct
p508
I532
sVcomp-comp_fin-comp_inf-obj
p509
I233
sVpd-conjunct-adjunct
p510
I586
sVconjunct-comp_ag
p511
I127
sVcomp-comp_fin-adjunct-comp_fin-adjunct-comp_fin
p512
I173
sVadjunct-comp-adjunct-mwe
p513
I60
sVconjunct-adjunct-comp-adjunct-comp
p514
I386
sVconjunct-neg
p515
I547
sVadjunct-pd-comp-adjunct-punct
p516
I189
sVcomp_fin-adjunct-punct
p517
I496
sVconjunct-comp-adjunct-obj
p518
I119
sVadjunct-adjunct_compar-mwe-adjunct-punct-mwe
p519
I303
sVadjunct-mwe
p520
I59
sVcomp-ne-abbrev_punct
p521
I219
sVmwe-comp-adjunct-comp-ne
p522
I514
sVmwe-abbrev_punct
p523
I198
sVconjunct-adjunct-mwe-comp-abbrev_punct
p524
I43
sVapp-ne-adjunct-conjunct
p525
I416
sVcomp-punct
p526
I22
sVadjunct-comp-adjunct-pd
p527
I339
sVsubj-comp-comp_fin-conjunct-adjunct-mwe-comp-abbrev_punct
p528
I36
sVadjunct-obj-adjunct
p529
I453
sVcomp-comp_fin-subj
p530
I196
sVobj-adjunct-comp-comp_fin-subj
p531
I366
sVadjunct-obj-conjunct-ne
p532
I97
sVcomp_fin-conjunct-obj_th-punct
p533
I8
sVcomp_inf-obj-adjunct_rc-subj
p534
I330
sVcomp_ag-comp-abbrev_punct
p535
I459
sVadjunct_compar-punct
p536
I523
sVadjunct-comp_fin-punct
p537
I335
sVadjunct-pd-adjunct-comp
p538
I247
sVroot-comp-punct
p539
I427
sVmwe-conjunct-ne
p540
I571
sVcomp_fin-aux
p541
I175
sVaglt
p542
I596
sVsubj-adjunct-subj-conjunct-obj_th
p543
I534
sVobj
p544
I77
sVobj_th-adjunct-comp-conjunct-comp-ne
p545
I506
sVadjunct-subj-conjunct-obj_th
p546
I535
sVadjunct-mwe-abbrev_punct
p547
I197
sVconjunct-comp-comp_ag-comp-adjunct
p548
I295
sVmwe-conjunct
p549
I574
sVobj-adjunct-mwe
p550
I348
sVsubj-comp-ne
p551
I218
sVcomp-comp_fin-conjunct-cond
p552
I38
sVcomp_fin-pd
p553
I70
sVconjunct-adjunct-conjunct-adjunct
p554
I326
sVcomp-comp_fin-adjunct-ne
p555
I433
sVcomp-adjunct_rc-adjunct_qt-adjunct-comp
p556
I271
sVsubj
p557
I2
sVcomp-adjunct-obj
p558
I117
sVcomp-obj_th-adjunct-comp
p559
I132
sVroot-punct
p560
I544
sVobj-adjunct-comp-comp_fin-comp_inf-adjunct
p561
I361
sVsubj-adjunct-pd-adjunct
p562
I142
sVobj-adjunct-comp-comp_fin-comp_inf-obj-adjunct
p563
I363
sVadjunct-mwe-comp-adjunct-comp-ne
p564
I513
sVobj-conjunct
p565
I99
sVconjunct-adjunct-comp-adjunct-obj-adjunct-comp
p566
I448
sVadjunct-mwe-subj-mwe-comp
p567
I308
sVcomp-conjunct-punct
p568
I178
sVcomp-adjunct-abbrev_punct
p569
I450
sVconjunct-obj-conjunct-adjunct
p570
I56
sVadjunct-comp-adjunct
p571
I5
sVadjunct-conjunct-comp_fin-comp
p572
I483
sVobj-adjunct-adjunct_rc-adjunct
p573
I413
sVpd-comp-adjunct
p574
I188
sVadjunct-ne-abbrev_punct
p575
I371
sVcomp-subj-adjunct-conjunct-pd
p576
I392
sVobj-conjunct-comp-comp_fin-obj_th
p577
I437
sVadjunct-obj-adjunct-comp
p578
I300
sVadjunct-subj-comp
p579
I595
sVcomp-comp_fin-conjunct
p580
I15
sVobj-conjunct-comp
p581
I441
sVadjunct-mwe-conjunct
p582
I573
sVconjunct-adjunct
p583
I34
sVadjunct-comp-ne-comp
p584
I213
sVsubj-adjunct-ne
p585
I569
sVcomp-obj
p586
I296
sVadjunct-comp-adjunct-conjunct-adjunct-comp
p587
I322
sVconjunct-subj-ne
p588
I158
sVsubj-app
p589
I53
sVconjunct-adjunct-comp-ne
p590
I161
sVcomp_inf-comp-adjunct-comp
p591
I551
sVcomp-obj-adjunct-conjunct
p592
I85
sVconjunct-comp_fin-conjunct-subj-adjunct
p593
I498
sVadjunct_compar-comp-adjunct-comp_ag
p594
I446
sVcomp_fin-adjunct
p595
I65
sVsubj-conjunct-adjunct-comp-ne
p596
I481
sVne-adjunct
p597
I421
sVapp-adjunct
p598
I51
sVcomp-adjunct-subj-adjunct
p599
I370
sVconjunct-comp-comp_fin
p600
I526
sVadjunct-comp-adjunct_rc-punct
p601
I264
sVne
p602
I75
sVadjunct-subj-conjunct-adjunct-mwe-comp
p603
I468
sVcomp-conjunct-comp-ne
p604
I510
sVobj-conjunct-subj
p605
I435
sVcomp_fin-comp_inf-adjunct_compar-comp_fin-subj
p606
I554
sVapp-adjunct-comp-conjunct-adjunct
p607
I281
sVadjunct-abbrev_punct
p608
I136
sVconjunct-comp_ag-comp
p609
I124
sVcomp_inf-pd-adjunct-obj
p610
I287
sVcomp-adjunct
p611
I49
sVcomp_inf-pd-adjunct-punct
p612
I289
sVobj-ne
p613
I549
sVadjunct-comp-adjunct-obj-adjunct
p614
I454
sVcomp-comp_fin-subj-adjunct
p615
I463
sVadjunct_qt-adjunct-comp-adjunct
p616
I255
sVadjunct-comp-conjunct-comp-ne
p617
I507
sVconjunct-comp_fin-obj
p618
I502
sVcomp_fin-pd-adjunct-ne
p619
I382
sVcomp_fin-pd-mwe-adjunct_rc-punct
p620
I68
sVapp-ne-adjunct
p621
I420
sVcomp-subj
p622
I395
ssVdependency_bag
p623
(dp624
Vadjunct,conjunct,obj,pd,root,subj,
p625
I1988
sVadjunct,comp,obj,root,subj,
p626
I411
sVadjunct,comp_fin,neg,obj,root,subj,
p627
I906
sVadjunct,adjunct_rc,comp,mwe,root,subj,
p628
I1156
sVapp,obj,root,subj,
p629
I377
sVadjunct,conjunct,ne,root,subj,
p630
I374
sVadjunct_rc,comp_inf,obj,root,
p631
I484
sVadjunct,comp,comp_fin,comp_inf,ne,obj,obj_th,root,
p632
I1371
sVadjunct,app,comp,comp_fin,obj,root,
p633
I51
sVadjunct,comp,comp_fin,conjunct,obj_th,punct,root,
p634
I1538
sVadjunct_compar,comp,comp_inf,conjunct,obj,pd,root,
p635
I1203
sVadjunct,comp,comp_ag,comp_fin,root,
p636
I1769
sVadjunct_qt,comp,comp_fin,conjunct,obj_th,root,
p637
I1880
sVadjunct,aux,cond,conjunct,root,
p638
I1826
sVadjunct,adjunct_qt,comp,comp_fin,mwe,root,
p639
I77
sVadjunct,comp,comp_inf,conjunct,obj,refl,root,subj,
p640
I58
sVobj,obj_th,root,
p641
I918
sVadjunct_qt,comp,comp_fin,root,
p642
I620
sVadjunct_rc,comp_inf,mwe,obj,root,
p643
I485
sVcomp_inf,conjunct,neg,root,
p644
I167
sVadjunct,adjunct_rc,obj,pre_coord,root,
p645
I373
sVadjunct,conjunct,obj,root,
p646
I100
sVcomp_fin,conjunct,obj,obj_th,root,subj,
p647
I974
sVadjunct,neg,pd,root,
p648
I1355
sVadjunct,comp,comp_fin,comp_inf,punct,root,
p649
I1254
sVadjunct,app,comp,ne,punct,root,
p650
I914
sVadjunct,comp,comp_inf,pd,root,subj,
p651
I1893
sVcomp_fin,conjunct,ne,obj_th,root,
p652
I1612
sVadjunct,app,comp,comp_fin,obj,root,subj,
p653
I52
sVadjunct,comp,conjunct,ne,obj,root,
p654
I820
sVadjunct,adjunct_qt,comp,obj,root,
p655
I1483
sVadjunct,adjunct_qt,comp,comp_fin,conjunct,refl,root,subj,
p656
I1494
sVadjunct,aux,conjunct,refl,root,
p657
I288
sVcomp_ag,conjunct,ne,obj,root,
p658
I1664
sVadjunct,adjunct_rc,conjunct,pd,root,
p659
I1444
sVadjunct,comp_inf,root,
p660
I153
sVadjunct,adjunct_qt,ne,obj_th,root,
p661
I1620
sVapp,comp,root,
p662
I1301
sVadjunct_rc,comp,conjunct,mwe,obj_th,punct,root,
p663
I1139
sVadjunct,aux,comp,root,
p664
I1293
sVcomp,comp_fin,conjunct,pd,root,
p665
I1005
sVadjunct,app,comp_ag,root,subj,
p666
I1291
sVcomp,mwe,obj,punct,root,
p667
I1681
sVcomp,obj_th,root,
p668
I387
sVadjunct,comp,comp_fin,mwe,root,
p669
I460
sVadjunct,obj_th,pd,root,
p670
I1238
sVadjunct,app,comp,ne,obj_th,root,subj,
p671
I1621
sVadjunct,adjunct_rc,comp,comp_inf,punct,root,
p672
I1081
sVadjunct,adjunct_rc,comp,comp_fin,obj,punct,root,subj,
p673
I962
sVadjunct_qt,obj_th,pd,root,
p674
I1919
sVadjunct,adjunct_qt,comp,comp_fin,conjunct,punct,root,
p675
I1433
sVadjunct,aux,pd,root,
p676
I846
sVadjunct,adjunct_rc,comp,conjunct,ne,root,subj,
p677
I1958
sVadjunct_rc,comp_fin,conjunct,obj,root,
p678
I937
sVcomp,comp_fin,pd,root,subj,
p679
I947
sVcomp_fin,comp_inf,obj,root,
p680
I135
sVadjunct,comp_fin,comp_inf,conjunct,pd,root,
p681
I1654
sVadjunct_rc,comp,comp_fin,obj,root,subj,
p682
I1427
sVcomp,ne,root,subj,
p683
I920
sVaux,conjunct,neg,root,
p684
I1376
sVconjunct,root,subj,
p685
I31
sVneg,obj,root,
p686
I1352
sVaux,comp_fin,comp_inf,root,subj,
p687
I1149
sVadjunct,comp_fin,ne,obj_th,root,
p688
I1820
sVadjunct,adjunct_qt,conjunct,imp,obj,root,
p689
I2020
sVcomp,comp_fin,comp_inf,neg,root,
p690
I1336
sVadjunct,adjunct_rc,comp_inf,conjunct,refl,root,
p691
I1710
sVadjunct_rc,conjunct,obj,pd,root,
p692
I541
sVadjunct,adjunct_qt,comp,conjunct,mwe,punct,root,subj,
p693
I1272
sVadjunct,adjunct_rc,comp_fin,conjunct,root,subj,
p694
I1545
sVadjunct,adjunct_rc,obj_th,refl,root,
p695
I1117
sVadjunct,adjunct_qt,comp,comp_fin,obj_th,root,
p696
I1898
sVadjunct,comp,conjunct,mwe,root,subj,
p697
I407
sVadjunct,comp,obj,obj_th,root,
p698
I579
sVcomp_inf,root,
p699
I24
sVadjunct_compar,conjunct,punct,root,
p700
I786
sVcomp,conjunct,mwe,obj_th,root,
p701
I1928
sVadjunct,comp,comp_fin,obj_th,punct,root,subj,
p702
I638
sVadjunct,comp,conjunct,obj,root,
p703
I102
sVabbrev_punct,adjunct,conjunct,root,subj,
p704
I804
sVadjunct,app,comp,conjunct,ne,obj_th,root,
p705
I498
sVconjunct,mwe,obj,root,
p706
I1556
sVapp,conjunct,punct,root,subj,
p707
I1126
sVadjunct,aux,comp,comp_fin,obj,root,subj,
p708
I1998
sVadjunct,aux,comp,conjunct,root,subj,
p709
I817
sVadjunct,adjunct_rc,comp_fin,comp_inf,conjunct,obj,punct,root,subj,
p710
I130
sVadjunct,adjunct_rc,comp,punct,root,
p711
I399
sVadjunct,adjunct_rc,comp,conjunct,neg,root,
p712
I1501
sVadjunct,adjunct_rc,obj,punct,root,subj,
p713
I921
sVadjunct,comp,comp_fin,comp_inf,neg,obj,root,subj,
p714
I1824
sVabbrev_punct,adjunct,comp,mwe,root,
p715
I809
sVadjunct,adjunct_rc,conjunct,refl,root,
p716
I1728
sVadjunct,adjunct_rc,comp_fin,punct,root,
p717
I1781
sVadjunct,adjunct_qt,obj,root,
p718
I835
sVcomp,comp_fin,comp_inf,conjunct,root,subj,
p719
I161
sVcomp,mwe,ne,root,
p720
I1447
sVadjunct,comp,conjunct,neg,obj,root,subj,
p721
I61
sVadjunct_qt,adjunct_rc,comp,comp_fin,conjunct,obj,pd,root,
p722
I518
sVcomp,comp_fin,obj_th,root,
p723
I285
sVadjunct,comp,neg,obj_th,root,
p724
I1350
sVadjunct,adjunct_qt,comp,comp_fin,comp_inf,conjunct,obj,root,
p725
I1632
sVadjunct_qt,ne,root,subj,
p726
I634
sVadjunct,comp,comp_fin,comp_inf,pd,root,
p727
I990
sVadjunct,adjunct_rc,comp,pd,refl,root,subj,
p728
I1608
sVadjunct,app,comp,conjunct,mwe,punct,root,
p729
I1907
sVcomp,root,subj,
p730
I322
sVadjunct,adjunct_rc,comp,mwe,punct,root,subj,
p731
I1387
sVadjunct_qt,comp_ag,root,
p732
I1748
sVadjunct,app,comp,comp_inf,root,
p733
I21
sVapp,obj,punct,root,
p734
I298
sVadjunct_rc,app,root,subj,
p735
I1967
sVadjunct_compar,root,
p736
I859
sVadjunct,comp,comp_fin,root,subj,
p737
I151
sVcomp_fin,comp_inf,obj,punct,root,
p738
I391
sVadjunct,app,comp,conjunct,punct,root,
p739
I447
sVadjunct,adjunct_compar,adjunct_qt,aux,comp,comp_fin,comp_inf,pd,root,
p740
I1897
sVadjunct,comp,comp_ag,comp_fin,conjunct,root,
p741
I1963
sVcomp,conjunct,obj,refl,root,
p742
I1606
sVadjunct,comp,obj,punct,root,subj,
p743
I412
sVadjunct,adjunct_compar,comp,comp_fin,conjunct,mwe,obj,root,subj,
p744
I1837
sVadjunct,adjunct_qt,comp,comp_fin,conjunct,pd,root,subj,
p745
I196
sVapp,comp,comp_fin,conjunct,root,subj,
p746
I1533
sVadjunct,conjunct,obj,pre_coord,root,
p747
I1816
sVapp,comp_fin,comp_inf,conjunct,obj,root,
p748
I390
sVcomp_fin,conjunct,root,
p749
I98
sVadjunct_qt,conjunct,neg,root,subj,
p750
I925
sVcomp,conjunct,obj_th,refl,root,
p751
I1244
sVadjunct,adjunct_qt,adjunct_rc,obj,obj_th,root,
p752
I529
sVadjunct_compar,comp,comp_inf,conjunct,root,
p753
I787
sVadjunct_compar,comp,comp_fin,cond,conjunct,root,
p754
I1403
sVadjunct_rc,conjunct,punct,root,subj,
p755
I1321
sVadjunct,adjunct_rc,comp,conjunct,mwe,obj,root,subj,
p756
I2007
sVadjunct,adjunct_compar,adjunct_qt,comp,comp_fin,comp_inf,pd,root,subj,
p757
I1896
sVadjunct,adjunct_qt,comp,root,
p758
I177
sVadjunct,comp,conjunct,ne,root,
p759
I241
sVadjunct,app,comp,conjunct,mwe,root,
p760
I389
sVcomp,comp_fin,comp_inf,root,subj,
p761
I1851
sVadjunct_rc,obj,refl,root,
p762
I945
sVadjunct,app,comp,comp_fin,comp_inf,conjunct,obj,root,
p763
I392
sVadjunct,app,pd,root,
p764
I1304
sVadjunct_qt,conjunct,mwe,obj_th,root,
p765
I701
sVadjunct_rc,root,
p766
I483
sVcomp,comp_fin,conjunct,obj_th,root,subj,
p767
I1849
sVadjunct,conjunct,refl,root,
p768
I114
sVadjunct,adjunct_rc,conjunct,mwe,root,subj,
p769
I1873
sVadjunct,comp,ne,obj_th,root,
p770
I2000
sVadjunct,comp,comp_inf,mwe,root,
p771
I402
sVcomp_fin,conjunct,obj_th,root,subj,
p772
I978
sVadjunct,comp,comp_inf,conjunct,obj,punct,root,
p773
I171
sVadjunct,comp_fin,obj_th,punct,root,
p774
I332
sVadjunct,conjunct,
p775
I1645
sVabbrev_punct,adjunct,adjunct_rc,comp,root,subj,
p776
I1114
sVadjunct,conjunct,neg,root,
p777
I506
sVabbrev_punct,adjunct,comp,mwe,obj,root,
p778
I772
sVadjunct,mwe,pd,punct,root,
p779
I1741
sVadjunct,adjunct_qt,conjunct,punct,root,
p780
I765
sVaux,conjunct,root,subj,
p781
I669
sVadjunct,aux,comp,comp_fin,comp_inf,root,
p782
I1701
sVadjunct_qt,comp,
p783
I1480
sVcomp,comp_ag,pd,root,
p784
I1593
sVadjunct_compar,comp,obj,root,
p785
I1799
sVadjunct,comp_inf,conjunct,root,subj,
p786
I165
sVconjunct,mwe,root,
p787
I837
sVadjunct,conjunct,mwe,root,subj,
p788
I431
sVadjunct,aux,neg,root,
p789
I509
sVadjunct,obj,pre_coord,root,subj,
p790
I1819
sVadjunct,adjunct_rc,app,comp,conjunct,obj,root,
p791
I651
sVadjunct_compar,comp_fin,comp_inf,root,
p792
I1732
sVadjunct,adjunct_rc,app,comp,comp_fin,comp_inf,conjunct,obj,root,subj,
p793
I45
sVadjunct,comp_inf,obj_th,root,
p794
I264
sVadjunct,comp_fin,root,
p795
I206
sVadjunct_compar,comp_fin,refl,root,
p796
I1359
sVadjunct,adjunct_compar,comp,comp_fin,conjunct,root,subj,
p797
I980
sVadjunct,adjunct_rc,comp_fin,obj,pd,root,
p798
I1074
sVadjunct,comp,comp_inf,conjunct,obj_th,root,
p799
I1192
sVconjunct,obj_th,punct,root,
p800
I821
sVadjunct_rc,conjunct,obj,punct,root,
p801
I1761
sVpd,refl,root,
p802
I1334
sVadjunct,comp,comp_ag,punct,root,subj,
p803
I1950
sVcond,root,
p804
I125
sVadjunct,app,obj,root,
p805
I376
sVadjunct_compar,aglt,comp_fin,root,
p806
I1360
sVadjunct,comp,comp_inf,neg,root,
p807
I1200
sVadjunct,app,comp,comp_fin,ne,punct,root,subj,
p808
I1513
sVabbrev_punct,adjunct,comp_fin,conjunct,obj,root,
p809
I1417
sVadjunct_compar,comp,ne,root,
p810
I1991
sVadjunct,comp,conjunct,mwe,root,
p811
I388
sVapp,ne,root,subj,
p812
I230
sVadjunct,adjunct_rc,app,comp_inf,conjunct,obj,root,
p813
I646
sVconjunct,refl,root,
p814
I117
sVapp,comp_fin,conjunct,root,subj,
p815
I1183
sVadjunct,app,ne,obj,obj_th,root,
p816
I213
sVabbrev_punct,adjunct,comp,conjunct,root,subj,
p817
I1221
sVadjunct,comp,comp_fin,comp_inf,conjunct,obj,obj_th,pre_coord,root,
p818
I1949
sVadjunct_rc,conjunct,obj_th,root,subj,
p819
I1324
sVadjunct,aglt,comp,comp_fin,root,
p820
I1338
sVadjunct,aglt,comp_fin,root,
p821
I1026
sVadjunct,adjunct_qt,app,comp,mwe,root,
p822
I1487
sVaux,root,
p823
I4
sVadjunct,comp,mwe,ne,obj,root,subj,
p824
I771
sVadjunct,adjunct_rc,comp,pd,punct,root,subj,
p825
I1609
sVadjunct,comp,comp_fin,conjunct,pd,root,subj,
p826
I948
sVadjunct,aglt,root,subj,
p827
I1366
sVcomp_fin,mwe,obj,punct,root,
p828
I1754
sVadjunct,adjunct_qt,item,root,
p829
I810
sVadjunct,comp,comp_fin,conjunct,obj,obj_th,punct,root,subj,
p830
I971
sVobj,pd,root,
p831
I1143
sVadjunct,comp,mwe,punct,root,
p832
I403
sVadjunct,adjunct_compar,adjunct_qt,comp,comp_fin,comp_inf,conjunct,root,
p833
I1346
sVadjunct,comp_ag,obj_th,root,
p834
I320
sVcomp,pd,root,
p835
I653
sVadjunct_compar,comp,comp_inf,root,
p836
I794
sVadjunct,adjunct_qt,adjunct_rc,root,subj,
p837
I875
sVcomp,comp_fin,mwe,obj_th,root,
p838
I1822
sVadjunct,adjunct_rc,comp_fin,conjunct,obj,root,
p839
I936
sVcomp_ag,mwe,root,
p840
I1925
sVcomp,comp_ag,conjunct,root,
p841
I259
sVcomp_fin,mwe,root,
p842
I1122
sVadjunct,comp_ag,conjunct,ne,root,
p843
I802
sVadjunct,conjunct,mwe,obj,root,
p844
I627
sVadjunct,conjunct,pd,root,subj,
p845
I504
sVadjunct,comp,comp_ag,conjunct,obj,root,subj,
p846
I1614
sVapp,root,subj,
p847
I232
sVadjunct,adjunct_qt,comp,comp_fin,pd,root,subj,
p848
I1804
sVaux,root,subj,
p849
I983
sVadjunct,comp_fin,obj,root,
p850
I468
sVadjunct,mwe,obj,obj_th,root,subj,
p851
I1778
sVadjunct,comp,comp_fin,comp_inf,conjunct,root,
p852
I362
sVadjunct_rc,comp,obj,root,
p853
I944
sVaglt,comp,comp_fin,root,
p854
I490
sVadjunct,aux,obj,root,
p855
I499
sVadjunct,app,comp,ne,root,subj,
p856
I686
sVadjunct_qt,adjunct_rc,refl,root,subj,
p857
I1160
sVadjunct,comp,comp_ag,conjunct,obj_th,root,
p858
I1672
sVadjunct,comp,conjunct,obj_th,pd,root,
p859
I1582
sVcomp,conjunct,ne,root,subj,
p860
I1317
sVadjunct,comp_fin,comp_inf,obj,obj_th,root,
p861
I652
sVadjunct,app,comp,comp_fin,ne,root,
p862
I1245
sVcomp_fin,conjunct,obj,punct,root,subj,
p863
I1021
sVobj,pre_coord,root,
p864
I280
sVadjunct,adjunct_qt,comp,ne,obj,root,
p865
I1617
sVadjunct,adjunct_rc,comp,comp_fin,conjunct,root,subj,
p866
I935
sVadjunct,adjunct_qt,app,comp,conjunct,root,
p867
I698
sVconjunct,obj,obj_th,root,
p868
I587
sVabbrev_punct,adjunct,conjunct,ne,root,subj,
p869
I1865
sVapp,comp,root,subj,
p870
I1832
sVadjunct,adjunct_qt,obj_th,root,
p871
I187
sVadjunct,comp_inf,obj,punct,root,
p872
I940
sVadjunct,adjunct_rc,comp,obj,root,
p873
I433
sVadjunct,conjunct,pd,refl,root,
p874
I1999
sVadjunct,comp,comp_inf,conjunct,root,subj,
p875
I609
sVadjunct,adjunct_qt,comp_inf,conjunct,obj,root,
p876
I1386
sVadjunct,comp,comp_fin,comp_inf,conjunct,obj,punct,root,
p877
I170
sVadjunct,adjunct_qt,adjunct_rc,conjunct,neg,root,subj,
p878
I880
sVadjunct,comp,comp_ag,mwe,obj,pd,root,
p879
I1742
sVconjunct,imp,root,
p880
I1767
sVadjunct,adjunct_qt,comp,comp_fin,obj,root,
p881
I1108
sVabbrev_punct,adjunct,adjunct_rc,comp,ne,obj_th,root,subj,
p882
I2005
sVadjunct,conjunct,mwe,obj_th,punct,root,
p883
I1451
sVcomp,subj,
p884
I693
sVabbrev_punct,comp,conjunct,root,
p885
I480
sVabbrev_punct,pd,root,
p886
I1834
sVadjunct,conjunct,obj,punct,root,subj,
p887
I317
sVadjunct,adjunct_compar,comp,comp_fin,conjunct,root,
p888
I1344
sVadjunct,comp,obj_th,root,
p889
I215
sVadjunct,adjunct_qt,comp_fin,mwe,refl,root,
p890
I73
sVadjunct,adjunct_qt,comp,comp_fin,conjunct,root,subj,
p891
I1493
sVadjunct,comp_fin,mwe,obj,root,
p892
I1496
sVadjunct,adjunct_qt,app,comp,conjunct,mwe,root,
p893
I702
sVadjunct,mwe,punct,root,
p894
I888
sVadjunct,conjunct,mwe,punct,root,
p895
I1553
sVadjunct,comp,comp_inf,obj,pd,root,
p896
I1891
sVadjunct,comp,conjunct,obj_th,root,
p897
I188
sVadjunct,pd,refl,root,
p898
I1097
sVadjunct,comp,punct,
p899
I1456
sVcomp_fin,ne,root,subj,
p900
I1599
sVadjunct_rc,comp,conjunct,root,
p901
I1676
sVadjunct,comp_ag,obj,root,subj,
p902
I1399
sVadjunct,adjunct_compar,comp,conjunct,mwe,punct,root,subj,
p903
I1215
sVadjunct,comp,conjunct,mwe,ne,obj,root,
p904
I1394
sVadjunct,adjunct_rc,conjunct,obj,punct,root,
p905
I249
sVadjunct,comp,refl,root,
p906
I457
sVcomp_fin,obj,pd,root,
p907
I467
sVadjunct,adjunct_qt,comp,conjunct,obj,root,
p908
I275
sVadjunct,comp_fin,mwe,root,subj,
p909
I664
sVadjunct,comp_fin,conjunct,root,
p910
I104
sVcomp,comp_fin,cond,conjunct,root,subj,
p911
I138
sVadjunct,adjunct_qt,comp,comp_fin,mwe,root,subj,
p912
I80
sVadjunct,comp,ne,punct,root,subj,
p913
I1330
sVadjunct,adjunct_qt,adjunct_rc,obj,obj_th,punct,root,
p914
I528
sVcomp,punct,root,
p915
I315
sVadjunct,adjunct_qt,comp,comp_inf,obj,root,
p916
I1491
sVadjunct,aux,comp,comp_fin,comp_inf,conjunct,punct,root,subj,
p917
I1062
sVadjunct,adjunct_compar,comp,pd,root,
p918
I989
sVadjunct,comp,comp_fin,conjunct,ne,obj_th,root,
p919
I1425
sVadjunct,comp,comp_fin,conjunct,neg,root,
p920
I617
sVcomp,conjunct,pd,root,
p921
I746
sVapp,comp,conjunct,punct,root,subj,
p922
I1989
sVaglt,comp,comp_fin,conjunct,root,
p923
I967
sVadjunct,comp,comp_fin,comp_inf,conjunct,punct,root,subj,
p924
I758
sVadjunct,adjunct_rc,app,obj,root,subj,
p925
I1966
sVadjunct,adjunct_qt,app,conjunct,ne,root,
p926
I1407
sVadjunct,comp,comp_ag,refl,root,
p927
I1946
sVadjunct,comp,comp_inf,conjunct,punct,root,
p928
I1151
sVadjunct,conjunct,item,root,subj,
p929
I1956
sVadjunct,comp,comp_inf,root,
p930
I26
sVadjunct,comp,comp_fin,comp_inf,obj_th,subj,
p931
I1478
sVadjunct,adjunct_qt,conjunct,obj,punct,root,
p932
I2021
sVadjunct_qt,conjunct,root,subj,
p933
I181
sVadjunct,comp_inf,conjunct,obj,punct,root,
p934
I424
sVadjunct_rc,punct,root,subj,
p935
I383
sVapp,conjunct,ne,root,subj,
p936
I578
sVadjunct,comp,comp_fin,conjunct,obj,punct,root,
p937
I1007
sVadjunct_qt,comp,mwe,obj,refl,root,
p938
I1683
sVadjunct,adjunct_qt,conjunct,obj,root,
p939
I92
sVadjunct,adjunct_rc,conjunct,punct,root,
p940
I1431
sVadjunct,adjunct_qt,comp,conjunct,punct,root,
p941
I699
sVcomp,comp_ag,conjunct,obj_th,root,
p942
I1674
sVadjunct,adjunct_rc,punct,root,subj,
p943
I379
sVadjunct,comp_fin,conjunct,root,subj,
p944
I103
sVadjunct,adjunct_qt,comp_fin,comp_inf,root,
p945
I1721
sVadjunct,adjunct_qt,adjunct_rc,app,conjunct,root,
p946
I1264
sVadjunct,comp_fin,comp_inf,punct,root,subj,
p947
I1054
sVadjunct,comp,conjunct,obj_th,punct,root,subj,
p948
I68
sVconjunct,obj,punct,root,subj,
p949
I1560
sVabbrev_punct,adjunct,ne,root,
p950
I885
sVadjunct,mwe,ne,punct,root,
p951
I475
sVadjunct,comp,comp_fin,comp_inf,conjunct,obj_th,refl,root,
p952
I1660
sVadjunct,comp,comp_ag,conjunct,ne,root,
p953
I803
sVadjunct,adjunct_rc,comp,comp_fin,conjunct,obj_th,root,subj,
p954
I1515
sVadjunct,adjunct_qt,comp,comp_fin,comp_inf,mwe,obj,root,
p955
I78
sVadjunct,mwe,pd,root,
p956
I427
sVadjunct,mwe,obj_th,root,
p957
I691
sVadjunct,adjunct_rc,comp_fin,comp_inf,conjunct,obj,root,subj,
p958
I127
sVadjunct,comp,comp_fin,pre_coord,root,
p959
I1985
sVadjunct_qt,comp,comp_fin,mwe,pd,root,
p960
I84
sVcomp_inf,obj_th,root,
p961
I481
sVadjunct,ne,punct,root,subj,
p962
I1333
sVadjunct_qt,adjunct_rc,root,subj,
p963
I882
sVcomp_ag,conjunct,root,
p964
I526
sVadjunct,adjunct_rc,app,ne,obj,root,subj,
p965
I911
sVcomp,comp_fin,comp_inf,conjunct,pd,root,subj,
p966
I2023
sVcomp,comp_fin,cond,conjunct,root,
p967
I1181
sVadjunct,aux,comp_fin,comp_inf,obj,root,subj,
p968
I1693
sVapp,mwe,obj,root,
p969
I299
sVconjunct,item,root,
p970
I582
sVadjunct,mwe,root,subj,
p971
I272
sVpunct,root,subj,
p972
I393
sVadjunct_qt,punct,root,
p973
I75
sVapp,ne,root,
p974
I311
sVabbrev_punct,adjunct_qt,adjunct_rc,root,subj,
p975
I1853
sVadjunct_rc,comp_inf,obj,punct,root,
p976
I1250
sVadjunct,comp,mwe,obj,punct,root,
p977
I1232
sVcomp,comp_fin,comp_inf,conjunct,obj,obj_th,root,
p978
I1036
sVabbrev_punct,adjunct,comp,mwe,ne,root,
p979
I1589
sVadjunct_rc,conjunct,punct,root,
p980
I1535
sVadjunct,app,ne,root,
p981
I312
sVadjunct,adjunct_qt,comp,comp_fin,comp_inf,obj,pd,root,subj,
p982
I1280
sVadjunct,comp,comp_inf,obj,root,subj,
p983
I1887
sVadjunct,adjunct_qt,comp,obj,root,subj,
p984
I1397
sVadjunct,comp,conjunct,ne,obj,root,subj,
p985
I1210
sVadjunct_rc,obj,punct,root,
p986
I435
sVobj_th,root,
p987
I27
sVadjunct_qt,adjunct_rc,comp,comp_fin,punct,root,
p988
I1048
sVadjunct,comp,comp_fin,comp_inf,obj_th,punct,
p989
I1482
sVadjunct,aux,conjunct,obj,root,subj,
p990
I1883
sVadjunct,adjunct_qt,adjunct_rc,comp,cond,mwe,root,
p991
I1154
sVadjunct,comp,conjunct,obj_th,root,subj,
p992
I69
sVadjunct,comp,comp_fin,conjunct,ne,root,
p993
I890
sVadjunct,comp,root,subj,
p994
I18
sVadjunct_qt,comp,conjunct,root,
p995
I1316
sVadjunct_qt,conjunct,obj,obj_th,pd,root,
p996
I1920
sVadjunct,comp,comp_fin,mwe,refl,root,subj,
p997
I1860
sVadjunct,adjunct_qt,comp_fin,conjunct,root,
p998
I1575
sVcomp,comp_fin,comp_inf,conjunct,obj,root,subj,
p999
I292
sVadjunct,comp,comp_fin,conjunct,pd,root,
p1000
I575
sVapp,conjunct,root,
p1001
I760
sVcomp_fin,comp_inf,root,
p1002
I124
sVadjunct,app,conjunct,mwe,root,subj,
p1003
I452
sVadjunct_compar,comp_fin,conjunct,root,
p1004
I782
sVadjunct,comp,conjunct,mwe,ne,root,
p1005
I696
sVadjunct,adjunct_rc,obj_th,root,subj,
p1006
I1777
sVadjunct,comp,conjunct,pd,root,subj,
p1007
I610
sVadjunct,adjunct_qt,conjunct,obj_th,refl,root,
p1008
I1584
sVadjunct,adjunct_rc,comp,punct,root,subj,
p1009
I1170
sVadjunct,comp,comp_fin,pd,root,subj,
p1010
I883
sVadjunct,aux,comp,comp_fin,root,subj,
p1011
I1342
sVadjunct,adjunct_rc,comp,comp_fin,comp_inf,conjunct,pd,punct,root,subj,
p1012
I1981
sVadjunct,obj,punct,root,subj,
p1013
I318
sVadjunct,aux,comp_fin,comp_inf,neg,obj,root,subj,
p1014
I1692
sVadjunct,adjunct_rc,app,ne,root,
p1015
I912
sVcomp,ne,root,
p1016
I414
sVadjunct,comp,conjunct,obj,obj_th,root,subj,
p1017
I907
sVadjunct,app,conjunct,punct,root,subj,
p1018
I1176
sVadjunct,comp,comp_fin,conjunct,obj,refl,root,
p1019
I1015
sVadjunct,comp,comp_fin,comp_inf,conjunct,mwe,obj,root,subj,
p1020
I1147
sVadjunct,comp,pre_coord,root,
p1021
I1222
sVcomp_fin,comp_inf,conjunct,refl,root,
p1022
I1905
sVconjunct,refl,root,subj,
p1023
I764
sVadjunct,aux,comp_fin,root,
p1024
I1046
sVadjunct,adjunct_compar,comp,comp_inf,conjunct,pd,root,
p1025
I1205
sVcomp_fin,obj,root,subj,
p1026
I982
sVapp,conjunct,root,subj,
p1027
I409
sVadjunct,app,conjunct,root,
p1028
I325
sVadjunct_qt,conjunct,neg,root,
p1029
I90
sVconjunct,obj,root,
p1030
I162
sVadjunct_qt,adjunct_rc,ne,root,subj,
p1031
I1854
sVadjunct_compar,comp,comp_fin,conjunct,root,subj,
p1032
I1405
sVcomp,comp_fin,obj_th,refl,root,
p1033
I1733
sVabbrev_punct,adjunct,app,ne,root,
p1034
I916
sVneg,root,
p1035
I147
sVcomp,comp_fin,conjunct,neg,root,
p1036
I496
sVadjunct,comp_inf,conjunct,obj_th,punct,root,
p1037
I1194
sVadjunct,app,comp,root,subj,
p1038
I1
sVadjunct_rc,conjunct,mwe,root,
p1039
I1136
sVabbrev_punct,adjunct,comp,pd,root,
p1040
I949
sVadjunct_rc,ne,punct,root,subj,
p1041
I1332
sVadjunct,comp_fin,comp_inf,obj,root,subj,
p1042
I1694
sVcomp_fin,comp_inf,obj,obj_th,root,
p1043
I1370
sVadjunct_compar,adjunct_qt,root,
p1044
I1740
sVadjunct,adjunct_compar,comp_fin,comp_inf,conjunct,root,subj,
p1045
I1906
sVcomp_fin,conjunct,neg,root,
p1046
I1630
sVapp,comp,conjunct,obj_th,root,
p1047
I190
sVadjunct,conjunct,obj,
p1048
I1644
sVadjunct,comp,comp_fin,mwe,refl,root,
p1049
I1786
sVcomp,comp_fin,conjunct,neg,root,subj,
p1050
I2022
sVcomp,comp_inf,punct,root,
p1051
I1852
sVadjunct,app,comp_fin,obj_th,root,
p1052
I2014
sVcomp,comp_inf,conjunct,obj_th,root,
p1053
I1765
sVadjunct,comp,comp_fin,comp_inf,conjunct,mwe,obj,obj_th,
p1054
I1475
sVadjunct,adjunct_qt,comp,conjunct,pd,root,
p1055
I1053
sVadjunct,app,mwe,root,subj,
p1056
I233
sVadjunct,pd,root,subj,
p1057
I613
sVadjunct,adjunct_qt,comp,conjunct,ne,punct,root,subj,
p1058
I1275
sVadjunct_rc,comp,cond,obj,root,
p1059
I1795
sVadjunct,adjunct_rc,comp,comp_inf,conjunct,obj,pd,root,
p1060
I1703
sVadjunct,adjunct_rc,app,comp,root,subj,
p1061
I1965
sVadjunct,mwe,ne,root,
p1062
I476
sVadjunct,refl,root,subj,
p1063
I715
sVadjunct,comp,comp_fin,comp_inf,conjunct,obj,obj_th,
p1064
I1474
sVadjunct,comp_inf,conjunct,obj,obj_th,punct,root,
p1065
I1128
sVadjunct_qt,adjunct_rc,aglt,comp_fin,pd,root,
p1066
I521
sVabbrev_punct,adjunct,comp,conjunct,ne,root,
p1067
I892
sVadjunct,comp,comp_fin,obj,punct,root,subj,
p1068
I865
sVadjunct,adjunct_compar,app,comp,conjunct,mwe,punct,root,subj,
p1069
I1218
sVadjunct,adjunct_compar,comp_fin,conjunct,root,
p1070
I1345
sVadjunct,adjunct_rc,conjunct,neg,obj,root,
p1071
I343
sVabbrev_punct,adjunct,comp,conjunct,pd,root,
p1072
I850
sVcomp,comp_fin,comp_inf,obj_th,root,
p1073
I1846
sVadjunct,adjunct_rc,app,comp,comp_fin,conjunct,obj,root,subj,
p1074
I42
sVadjunct,adjunct_rc,comp,mwe,obj,root,subj,
p1075
I1961
sVadjunct,comp,comp_fin,conjunct,neg,root,subj,
p1076
I987
sVadjunct,conjunct,obj,root,subj,
p1077
I115
sVadjunct,adjunct_rc,comp,comp_inf,conjunct,root,
p1078
I267
sVadjunct,comp,conjunct,obj_th,punct,root,
p1079
I688
sVroot,subj,
p1080
I3
sVadjunct,comp,comp_fin,comp_inf,mwe,obj_th,root,
p1081
I1969
sVadjunct,adjunct_rc,cond,conjunct,obj,root,
p1082
I1964
sVadjunct,comp,ne,obj,root,
p1083
I501
sVadjunct,app,comp,comp_fin,obj,pd,root,
p1084
I50
sVadjunct,conjunct,ne,pd,root,
p1085
I1308
sVadjunct_compar,comp_fin,comp_inf,conjunct,root,
p1086
I785
sVadjunct_qt,conjunct,refl,root,
p1087
I1583
sVadjunct,comp_fin,comp_inf,obj_th,root,
p1088
I732
sVadjunct,adjunct_compar,comp,ne,root,
p1089
I1390
sVcomp_inf,conjunct,obj_th,root,
p1090
I560
sVadjunct,comp,comp_fin,conjunct,obj,root,
p1091
I336
sVadjunct,adjunct_rc,ne,obj_th,root,subj,
p1092
I2003
sVadjunct_rc,comp_inf,obj,obj_th,root,
p1093
I1253
sVadjunct,adjunct_rc,comp,obj,punct,root,subj,
p1094
I1658
sVconjunct,obj_th,root,
p1095
I192
sVadjunct,comp_fin,mwe,obj,obj_th,root,
p1096
I1438
sVadjunct,comp,comp_inf,ne,obj,root,
p1097
I2012
sVcomp,obj,root,subj,
p1098
I352
sVadjunct,comp_inf,obj,obj_th,root,
p1099
I1130
sVcomp,conjunct,ne,root,
p1100
I589
sVobj,punct,root,
p1101
I513
sVadjunct,comp,comp_fin,ne,root,
p1102
I834
sVadjunct_compar,root,subj,
p1103
I1418
sVcomp_inf,conjunct,root,subj,
p1104
I166
sVabbrev_punct,adjunct,comp,conjunct,obj_th,root,
p1105
I1421
sVadjunct,aux,comp,comp_fin,conjunct,root,
p1106
I1094
sVadjunct,comp_fin,comp_inf,obj,refl,root,subj,
p1107
I1944
sVadjunct,adjunct_qt,comp_fin,mwe,root,
p1108
I72
sVadjunct,comp,comp_fin,obj_th,root,
p1109
I216
sVadjunct_qt,comp_inf,root,
p1110
I678
sVadjunct,app,pd,punct,root,
p1111
I479
sVadjunct,comp,comp_inf,conjunct,mwe,root,
p1112
I558
sVconjunct,obj,punct,root,
p1113
I278
sVadjunct,conjunct,punct,refl,root,
p1114
I1888
sVabbrev_punct,adjunct,conjunct,obj,root,
p1115
I1270
sVadjunct,ne,punct,root,
p1116
I477
sVadjunct,comp_fin,comp_inf,mwe,obj,root,
p1117
I1059
sVadjunct_compar,comp_fin,obj_th,root,
p1118
I1601
sVadjunct,aglt,obj_th,root,
p1119
I957
sVabbrev_punct,adjunct,conjunct,obj_th,root,
p1120
I805
sVadjunct_qt,comp_fin,obj,root,
p1121
I1107
sVadjunct,adjunct_qt,app,punct,root,
p1122
I1269
sVadjunct_rc,aglt,comp_fin,conjunct,obj,root,subj,
p1123
I1023
sVabbrev_punct,adjunct,root,
p1124
I366
sVadjunct,obj_th,punct,root,subj,
p1125
I536
sVapp,obj_th,punct,root,
p1126
I658
sVadjunct,conjunct,mwe,obj_th,root,subj,
p1127
I1452
sVcomp_fin,comp_inf,conjunct,obj,root,
p1128
I290
sVadjunct,adjunct_rc,comp_fin,conjunct,refl,root,subj,
p1129
I1800
sVadjunct,adjunct_rc,comp_fin,conjunct,obj,root,subj,
p1130
I1024
sVaux,conjunct,root,
p1131
I221
sVadjunct,comp,comp_fin,conjunct,pd,punct,root,
p1132
I1086
sVadjunct,comp_inf,obj,refl,root,
p1133
I157
sVadjunct,comp,comp_inf,conjunct,neg,root,
p1134
I1150
sVadjunct,comp,comp_fin,conjunct,ne,root,subj,
p1135
I1095
sVadjunct,comp,conjunct,
p1136
I694
sVadjunct,comp,conjunct,root,
p1137
I2
sVadjunct,adjunct_rc,conjunct,pd,root,subj,
p1138
I1619
sVadjunct,comp,comp_fin,obj,pd,root,
p1139
I884
sVadjunct,comp_inf,conjunct,obj_th,refl,root,
p1140
I1866
sVcomp,comp_fin,comp_inf,obj_th,punct,root,
p1141
I1848
sVadjunct,comp,conjunct,mwe,
p1142
I1459
sVaux,comp,obj,root,
p1143
I1875
sVadjunct,conjunct,mwe,pd,root,
p1144
I195
sVcomp,comp_inf,conjunct,obj,root,subj,
p1145
I1240
sVadjunct,conjunct,root,
p1146
I13
sVaux,comp_fin,comp_inf,obj,root,
p1147
I830
sVadjunct,aux,obj_th,root,subj,
p1148
I1912
sVadjunct,comp,conjunct,pd,root,
p1149
I261
sVadjunct,comp,comp_ag,obj,
p1150
I1464
sVadjunct,comp,comp_inf,pd,root,
p1151
I429
sVadjunct,comp_fin,obj_th,root,
p1152
I218
sVabbrev_punct,adjunct,app,comp,root,
p1153
I1867
sVadjunct,app,root,
p1154
I236
sVadjunct_rc,conjunct,refl,root,subj,
p1155
I1997
sVconjunct,neg,root,
p1156
I255
sVcomp_fin,conjunct,obj,root,
p1157
I338
sVrefl,root,subj,
p1158
I1159
sVadjunct,adjunct_qt,comp_fin,comp_inf,obj,obj_th,root,
p1159
I1914
sVadjunct,comp_fin,conjunct,pd,root,
p1160
I546
sVcomp_fin,root,
p1161
I225
sVadjunct,obj,obj_th,root,
p1162
I256
sVitem,root,
p1163
I1202
sVcomp_fin,conjunct,obj,root,subj,
p1164
I337
sVabbrev_punct,adjunct,app,conjunct,root,
p1165
I1367
sVadjunct,app,comp,comp_fin,ne,obj_th,root,subj,
p1166
I1509
sVcomp_fin,conjunct,refl,root,
p1167
I1576
sVne,obj,root,subj,
p1168
I908
sVadjunct,comp,comp_ag,conjunct,obj_th,root,subj,
p1169
I1670
sVne,root,subj,
p1170
I239
sVadjunct,comp,comp_fin,comp_inf,conjunct,obj,obj_th,root,subj,
p1171
I1978
sVadjunct,comp_fin,root,subj,
p1172
I198
sVadjunct,comp,comp_ag,conjunct,punct,root,
p1173
I1615
sVcomp,conjunct,
p1174
I695
sVadjunct,comp_fin,conjunct,punct,root,subj,
p1175
I1011
sVadjunct,comp_ag,root,subj,
p1176
I473
sVadjunct,comp_inf,conjunct,obj,pd,root,
p1177
I1295
sVadjunct,adjunct_rc,pd,punct,root,
p1178
I1869
sVadjunct,comp,comp_fin,conjunct,obj_th,root,subj,
p1179
I1103
sVadjunct,comp,comp_fin,comp_inf,obj_th,punct,root,
p1180
I1635
sVadjunct,app,obj_th,root,
p1181
I660
sVadjunct,comp,comp_fin,refl,root,
p1182
I514
sVaglt,root,
p1183
I76
sVcomp_inf,conjunct,obj,root,
p1184
I113
sVcomp,comp_ag,root,subj,
p1185
I1773
sVabbrev_punct,adjunct,adjunct_qt,root,
p1186
I1410
sVadjunct,adjunct_qt,comp,mwe,obj,root,
p1187
I1685
sVadjunct,adjunct_qt,comp,comp_fin,conjunct,obj,punct,root,subj,
p1188
I1802
sVadjunct,app,comp_fin,root,subj,
p1189
I1119
sVadjunct,aux,comp_fin,conjunct,root,
p1190
I207
sVadjunct_qt,comp,comp_fin,neg,root,
p1191
I1049
sVadjunct,comp_fin,obj_th,punct,refl,root,subj,
p1192
I969
sVadjunct,adjunct_rc,comp,comp_fin,obj,root,
p1193
I398
sVadjunct,comp,pd,
p1194
I1462
sVcomp_inf,pd,root,
p1195
I636
sVadjunct,comp,item,root,
p1196
I591
sVadjunct,pd,root,
p1197
I193
sVadjunct_rc,comp,root,subj,
p1198
I382
sVadjunct,adjunct_rc,obj,root,
p1199
I347
sVadjunct,comp,comp_fin,conjunct,punct,root,
p1200
I751
sVadjunct,adjunct_compar,comp,obj,root,
p1201
I1797
sVadjunct,app,comp,comp_fin,root,subj,
p1202
I1079
sVneg,root,subj,
p1203
I1708
sVadjunct,adjunct_qt,comp,comp_fin,mwe,punct,root,
p1204
I74
sVadjunct,adjunct_qt,adjunct_rc,app,conjunct,punct,root,
p1205
I1265
sVadjunct,comp,conjunct,mwe,refl,root,
p1206
I1955
sVadjunct_rc,comp_inf,root,
p1207
I486
sVadjunct,comp,comp_fin,comp_inf,obj,root,
p1208
I515
sVmwe,root,subj,
p1209
I301
sVadjunct,comp_fin,comp_inf,conjunct,neg,obj,root,
p1210
I1246
sVcomp_fin,neg,root,subj,
p1211
I1177
sVadjunct_compar,comp,root,
p1212
I858
sVadjunct_rc,root,subj,
p1213
I384
sVadjunct_rc,comp_fin,obj,pd,punct,root,
p1214
I1076
sVrefl,root,
p1215
I28
sVadjunct,mwe,punct,root,subj,
p1216
I712
sVadjunct,aglt,comp_inf,conjunct,root,
p1217
I1125
sVadjunct,comp_fin,conjunct,neg,root,
p1218
I209
sVadjunct,adjunct_rc,app,comp,comp_fin,conjunct,mwe,obj,root,subj,
p1219
I43
sVadjunct_rc,comp,comp_fin,root,subj,
p1220
I1429
sVadjunct_rc,conjunct,pd,root,
p1221
I542
sVapp,comp,obj,root,
p1222
I1443
sVadjunct,comp,conjunct,refl,root,
p1223
I727
sVadjunct,adjunct_qt,comp,ne,root,
p1224
I666
sVadjunct,aux,comp,comp_fin,pd,root,
p1225
I1648
sVadjunct_rc,app,conjunct,obj,root,subj,
p1226
I2018
sVadjunct_rc,comp_fin,obj,obj_th,pd,root,
p1227
I1072
sVadjunct,mwe,obj_th,punct,root,
p1228
I1450
sVadjunct,comp,comp_ag,comp_fin,comp_inf,conjunct,obj,root,
p1229
I1415
sVadjunct,comp,comp_fin,conjunct,refl,root,subj,
p1230
I1096
sVadjunct,comp_inf,pd,refl,root,
p1231
I428
sVadjunct,aux,comp,comp_fin,obj_th,root,subj,
p1232
I1027
sVadjunct,comp,conjunct,mwe,obj,pd,root,
p1233
I742
sVadjunct,adjunct_rc,comp,comp_inf,conjunct,pd,root,
p1234
I1932
sVcomp_inf,refl,root,
p1235
I611
sVadjunct,comp,comp_fin,punct,root,subj,
p1236
I1006
sVadjunct,comp,conjunct,refl,root,subj,
p1237
I606
sVadjunct_rc,app,obj,root,subj,
p1238
I1507
sVadjunct,comp,punct,root,subj,
p1239
I410
sVadjunct,comp,comp_fin,comp_inf,conjunct,obj,obj_th,root,
p1240
I826
sVcomp,comp_fin,obj,root,subj,
p1241
I1212
sVadjunct_qt,comp_inf,conjunct,obj_th,root,
p1242
I1623
sVadjunct,app,comp_fin,comp_inf,obj,obj_th,root,subj,
p1243
I1375
sVadjunct,adjunct_rc,mwe,obj,root,subj,
p1244
I1960
sVcomp_fin,neg,root,
p1245
I251
sVadjunct,comp_inf,pd,root,
p1246
I430
sVadjunct,comp,comp_ag,ne,root,
p1247
I895
sVadjunct,adjunct_rc,aux,obj,root,
p1248
I926
sVcomp,conjunct,refl,root,subj,
p1249
I1874
sVadjunct,aux,comp,comp_fin,mwe,obj_th,root,subj,
p1250
I1028
sVadjunct_rc,obj_th,root,
p1251
I1445
sVadjunct_rc,conjunct,obj_th,punct,root,
p1252
I1974
sVaux,pd,root,
p1253
I654
sVadjunct,comp,obj,pd,root,subj,
p1254
I1339
sVadjunct,comp_fin,obj_th,punct,root,subj,
p1255
I968
sVadjunct,comp_fin,comp_inf,root,subj,
p1256
I494
sVadjunct,adjunct_rc,comp,conjunct,obj,obj_th,root,
p1257
I1499
sVadjunct_rc,comp,comp_inf,obj,root,
p1258
I1793
sVcomp,comp_inf,conjunct,obj,punct,root,
p1259
I1633
sVadjunct_rc,refl,root,subj,
p1260
I381
sVcomp,comp_fin,comp_inf,conjunct,obj_th,root,
p1261
I1038
sVadjunct,comp,obj_th,pd,root,
p1262
I1716
sVabbrev_punct,adjunct,obj,root,
p1263
I819
sVadjunct,conjunct,obj,pd,pre_coord,root,
p1264
I1705
sVadjunct,adjunct_rc,comp_inf,root,subj,
p1265
I1358
sVadjunct,aglt,comp,conjunct,root,
p1266
I273
sVadjunct,adjunct_compar,comp,comp_inf,conjunct,punct,root,
p1267
I790
sVadjunct,comp_fin,pd,root,subj,
p1268
I1752
sVcomp,comp_fin,conjunct,refl,root,
p1269
I489
sVadjunct,comp_fin,comp_inf,conjunct,obj_th,root,
p1270
I998
sVapp,comp,conjunct,ne,root,
p1271
I1102
sVadjunct,aux,comp,neg,root,
p1272
I1309
sVadjunct_qt,comp,root,
p1273
I488
sVadjunct,adjunct_rc,comp,comp_inf,root,subj,
p1274
I1082
sVadjunct,aux,comp,comp_fin,conjunct,root,subj,
p1275
I1064
sVadjunct,comp_fin,comp_inf,conjunct,obj,refl,root,
p1276
I134
sVadjunct,aux,conjunct,root,
p1277
I242
sVabbrev_punct,adjunct,comp,conjunct,obj,root,
p1278
I1297
sVadjunct,comp_fin,comp_inf,refl,root,subj,
p1279
I1057
sVadjunct,obj,pre_coord,root,
p1280
I1817
sVadjunct,comp,comp_fin,conjunct,obj,pd,root,
p1281
I1088
sVadjunct,adjunct_compar,comp,comp_fin,comp_inf,conjunct,root,
p1282
I784
sVadjunct,comp,comp_fin,comp_inf,conjunct,mwe,obj,root,
p1283
I132
sVabbrev_punct,comp,conjunct,obj,root,
p1284
I1727
sVadjunct,app,comp,conjunct,punct,root,subj,
p1285
I871
sVadjunct,aux,ne,root,
p1286
I893
sVadjunct,adjunct_rc,app,conjunct,obj,root,
p1287
I650
sVadjunct,adjunct_rc,comp,mwe,obj,punct,root,subj,
p1288
I1229
sVadjunct,comp,comp_ag,comp_fin,conjunct,root,subj,
p1289
I1626
sVadjunct,comp,comp_fin,comp_inf,conjunct,mwe,obj,obj_th,root,
p1290
I823
sVadjunct_qt,refl,root,
p1291
I487
sVadjunct,comp_fin,conjunct,obj_th,root,subj,
p1292
I1000
sVadjunct_rc,comp,punct,root,subj,
p1293
I845
sVadjunct,adjunct_rc,aux,comp,root,
p1294
I1835
sVadjunct_qt,conjunct,obj_th,pd,refl,root,
p1295
I1923
sVaux,comp_fin,root,
p1296
I1034
sVadjunct,comp,mwe,root,subj,
p1297
I284
sVadjunct,adjunct_rc,aux,comp,conjunct,root,subj,
p1298
I1957
sVadjunct,comp,comp_fin,conjunct,mwe,obj,root,subj,
p1299
I1185
sVadjunct_qt,conjunct,punct,root,
p1300
I97
sVadjunct,comp,comp_inf,conjunct,obj,obj_th,root,
p1301
I1129
sVadjunct,comp,comp_inf,conjunct,obj_th,root,subj,
p1302
I608
sVadjunct,adjunct_rc,comp_inf,conjunct,obj,
p1303
I1642
sVcomp,comp_fin,conjunct,obj,root,subj,
p1304
I139
sVadjunct,adjunct_rc,comp,neg,root,subj,
p1305
I1169
sVadjunct,adjunct_rc,comp,comp_fin,obj,pd,root,
p1306
I1070
sVadjunct,adjunct_qt,comp_fin,punct,root,subj,
p1307
I197
sVadjunct_compar,comp_fin,ne,root,
p1308
I1735
sVcomp_inf,conjunct,pd,root,
p1309
I145
sVadjunct,pd,punct,root,
p1310
I306
sVadjunct,app,comp,obj,root,
p1311
I53
sVadjunct,comp,conjunct,ne,obj,pd,root,
p1312
I1211
sVadjunct_rc,comp,comp_fin,punct,root,subj,
p1313
I1428
sVadjunct,comp_fin,comp_inf,conjunct,obj,pd,root,subj,
p1314
I293
sVadjunct,adjunct_qt,ne,root,
p1315
I533
sVadjunct,comp_inf,conjunct,punct,root,
p1316
I422
sVadjunct,mwe,obj,root,subj,
p1317
I768
sVadjunct,adjunct_rc,comp,conjunct,obj,root,
p1318
I341
sVadjunct,comp,comp_ag,obj,punct,root,
p1319
I1774
sVconjunct,ne,root,subj,
p1320
I474
sVapp,comp,pd,root,
p1321
I1305
sVadjunct_rc,comp_fin,comp_inf,conjunct,root,
p1322
I1040
sVadjunct,adjunct_qt,adjunct_rc,comp,conjunct,obj,root,
p1323
I1763
sVadjunct,comp_fin,comp_inf,obj,root,
p1324
I136
sVadjunct,adjunct_rc,comp,comp_fin,comp_inf,conjunct,obj,root,subj,
p1325
I960
sVadjunct,comp,pd,punct,root,
p1326
I585
sVcomp,comp_fin,comp_inf,conjunct,obj,pd,root,
p1327
I1084
sVadjunct,comp,comp_ag,obj,root,subj,
p1328
I1400
sVadjunct,app,comp_fin,conjunct,root,subj,
p1329
I1120
sVadjunct,comp_fin,comp_inf,mwe,obj,pd,root,
p1330
I1065
sVcomp,comp_ag,comp_fin,obj,pd,root,
p1331
I1908
sVadjunct,aux,comp,conjunct,neg,root,
p1332
I551
sVapp,comp,conjunct,obj,punct,root,
p1333
I2011
sVadjunct,comp,conjunct,ne,punct,root,subj,
p1334
I1442
sVadjunct,conjunct,ne,obj,obj_th,root,
p1335
I1588
sVapp,comp,mwe,obj,root,
p1336
I300
sVcomp,comp_fin,obj_th,root,subj,
p1337
I1178
sVadjunct_compar,comp,comp_inf,conjunct,obj_th,root,
p1338
I801
sVadjunct,comp_fin,comp_inf,conjunct,root,
p1339
I641
sVadjunct,ne,root,
p1340
I367
sVabbrev_punct,adjunct,pd,root,
p1341
I307
sVadjunct_rc,conjunct,neg,root,subj,
p1342
I1543
sVadjunct,adjunct_qt,comp,comp_ag,mwe,obj,root,
p1343
I1686
sVadjunct,conjunct,neg,pd,root,subj,
p1344
I775
sVadjunct,app,comp,conjunct,mwe,ne,root,
p1345
I448
sVadjunct,comp,punct,refl,root,
p1346
I628
sVapp,punct,root,
p1347
I309
sVadjunct,adjunct_qt,comp,comp_fin,comp_inf,mwe,root,
p1348
I79
sVadjunct_qt,aux,comp_inf,root,
p1349
I677
sVabbrev_punct,adjunct,conjunct,root,
p1350
I11
sVcomp,conjunct,mwe,root,
p1351
I838
sVcomp,comp_fin,refl,root,subj,
p1352
I1532
sVadjunct,adjunct_qt,root,subj,
p1353
I623
sVobj,root,
p1354
I15
sVadjunct,adjunct_qt,comp_fin,comp_inf,obj_th,root,
p1355
I1717
sVconjunct,obj,pd,root,
p1356
I745
sVcomp,comp_fin,conjunct,neg,obj,root,
p1357
I1020
sVadjunct,adjunct_qt,adjunct_rc,conjunct,obj_th,root,subj,
p1358
I877
sVadjunct,adjunct_qt,comp_inf,pd,root,
p1359
I228
sVadjunct_rc,comp,comp_fin,obj,root,
p1360
I1627
sVadjunct_qt,comp,comp_fin,comp_inf,root,
p1361
I622
sVobj,punct,root,subj,
p1362
I615
sVcomp,conjunct,obj_th,root,
p1363
I191
sVadjunct,adjunct_rc,comp,mwe,ne,obj,root,subj,
p1364
I1962
sVcomp,comp_fin,comp_inf,refl,root,
p1365
I1850
sVadjunct,comp,conjunct,mwe,obj,root,
p1366
I734
sVadjunct,comp,comp_fin,comp_inf,mwe,obj,root,subj,
p1367
I1943
sVabbrev_punct,adjunct,app,conjunct,root,subj,
p1368
I453
sVapp,comp,comp_fin,root,
p1369
I730
sVadjunct,adjunct_compar,comp,comp_fin,root,
p1370
I1004
sVadjunct,comp,comp_ag,root,subj,
p1371
I592
sVadjunct,comp_inf,conjunct,ne,obj,root,
p1372
I710
sVadjunct,comp_fin,comp_inf,conjunct,neg,root,
p1373
I1356
sVadjunct,conjunct,obj,refl,root,
p1374
I101
sVabbrev_punct,adjunct,mwe,root,
p1375
I814
sVadjunct,comp_ag,obj_th,root,subj,
p1376
I1419
sVcomp,comp_fin,conjunct,obj,refl,root,
p1377
I1019
sVaglt,comp_fin,root,
p1378
I330
sVcomp_fin,comp_inf,obj,refl,root,
p1379
I1941
sVapp,comp,comp_fin,conjunct,punct,root,subj,
p1380
I1776
sVadjunct_qt,conjunct,obj,root,subj,
p1381
I924
sVadjunct,ne,obj,root,
p1382
I289
sVadjunct,obj,pd,root,subj,
p1383
I1876
sVadjunct,app,conjunct,ne,pd,root,
p1384
I1045
sVadjunct,app,comp,mwe,obj,root,
p1385
I952
sVadjunct,comp,comp_fin,comp_inf,conjunct,mwe,root,
p1386
I631
sVadjunct,adjunct_qt,aux,obj,root,
p1387
I1522
sVadjunct_qt,aglt,conjunct,root,
p1388
I955
sVadjunct,comp,obj,punct,root,
p1389
I437
sVadjunct,adjunct_compar,root,subj,
p1390
I1726
sVadjunct,comp,comp_ag,conjunct,root,
p1391
I327
sVabbrev_punct,comp,obj,root,
p1392
I1144
sVadjunct,comp,comp_inf,obj_th,root,subj,
p1393
I1380
sVadjunct,adjunct_rc,comp,root,
p1394
I397
sVabbrev_punct,adjunct,comp,mwe,root,subj,
p1395
I689
sVconjunct,pre_coord,root,
p1396
I1089
sVadjunct,comp,comp_ag,comp_fin,conjunct,obj,root,subj,
p1397
I931
sVcomp,comp_fin,comp_inf,obj,root,
p1398
I492
sVadjunct,neg,root,
p1399
I436
sVadjunct,adjunct_compar,comp,conjunct,obj,refl,root,
p1400
I1745
sVadjunct,comp,conjunct,obj,obj_th,root,
p1401
I1032
sVadjunct,comp,mwe,ne,root,subj,
p1402
I690
sVadjunct,comp_inf,conjunct,obj_th,refl,root,subj,
p1403
I1067
sVadjunct,adjunct_qt,conjunct,root,
p1404
I183
sVadjunct,comp_fin,mwe,root,
p1405
I459
sVadjunct,adjunct_rc,comp,refl,root,
p1406
I1729
sVadjunct,pd,punct,root,subj,
p1407
I612
sVcomp,comp_inf,conjunct,obj,obj_th,root,
p1408
I1572
sVadjunct,adjunct_rc,comp,comp_fin,obj,obj_th,root,subj,
p1409
I961
sVabbrev_punct,adjunct,app,root,
p1410
I1276
sVadjunct_rc,comp,conjunct,mwe,obj_th,root,
p1411
I1141
sVadjunct,comp,conjunct,obj,pre_coord,root,subj,
p1412
I63
sVadjunct,aux,comp,obj,
p1413
I1466
sVadjunct,comp,comp_fin,comp_inf,mwe,obj,root,
p1414
I1058
sVadjunct_qt,comp,conjunct,obj_th,root,
p1415
I709
sVadjunct,comp,comp_fin,obj,root,subj,
p1416
I862
sVadjunct_rc,comp,comp_fin,comp_inf,conjunct,root,subj,
p1417
I1542
sVadjunct,adjunct_rc,comp,conjunct,obj,pd,root,
p1418
I1704
sVadjunct,comp,comp_ag,punct,root,
p1419
I932
sVadjunct,app,obj,root,subj,
p1420
I348
sVaux,comp_fin,conjunct,root,
p1421
I99
sVadjunct,aux,comp,comp_fin,comp_inf,conjunct,root,subj,
p1422
I1063
sVadjunct,adjunct_qt,comp_fin,conjunct,refl,root,subj,
p1423
I201
sVadjunct,comp,cond,conjunct,root,
p1424
I1190
sVadjunct,comp,comp_fin,conjunct,neg,obj,root,
p1425
I1016
sVadjunct,aglt,comp,comp_fin,conjunct,root,
p1426
I954
sVaux,comp,comp_fin,root,subj,
p1427
I590
sVadjunct,adjunct_rc,app,comp,ne,root,subj,
p1428
I910
sVcomp,conjunct,obj_th,root,subj,
p1429
I1175
sVobj,root,subj,
p1430
I593
sVadjunct,app,comp,comp_fin,ne,root,subj,
p1431
I1508
sVadjunct,adjunct_compar,comp,comp_fin,comp_inf,conjunct,punct,root,
p1432
I1104
sVadjunct,root,
p1433
I5
sVadjunct,comp_fin,conjunct,ne,obj_th,root,
p1434
I1611
sVadjunct,adjunct_rc,aglt,cond,conjunct,root,
p1435
I1709
sVadjunct,aux,comp,conjunct,pd,root,
p1436
I586
sVadjunct_qt,pd,root,
p1437
I667
sVadjunct,comp_fin,conjunct,obj,obj_th,root,subj,
p1438
I975
sVadjunct_qt,conjunct,pd,punct,root,subj,
p1439
I1868
sVabbrev_punct,conjunct,root,subj,
p1440
I1579
sVadjunct,adjunct_rc,aux,comp,comp_fin,conjunct,root,subj,
p1441
I1829
sVadjunct,app,comp,punct,root,subj,
p1442
I900
sVadjunct,adjunct_qt,comp,comp_ag,obj_th,root,
p1443
I1485
sVadjunct,comp_fin,comp_inf,pd,root,
p1444
I1600
sVadjunct_rc,aux,root,subj,
p1445
I1947
sVabbrev_punct,adjunct,app,comp,conjunct,mwe,root,
p1446
I449
sVcomp_inf,root,subj,
p1447
I482
sVadjunct,comp_ag,root,
p1448
I510
sVadjunct_qt,comp_inf,conjunct,obj,root,
p1449
I1385
sVadjunct_compar,comp,conjunct,root,
p1450
I1788
sVadjunct,adjunct_rc,comp,conjunct,punct,root,
p1451
I268
sVne,obj_th,root,
p1452
I572
sVadjunct_qt,comp,punct,root,
p1453
I625
sVadjunct,app,comp,punct,root,
p1454
I450
sVcomp_ag,pd,root,
p1455
I1592
sVadjunct,adjunct_compar,comp,comp_fin,conjunct,obj_th,pd,root,
p1456
I1424
sVadjunct,adjunct_compar,comp,comp_fin,mwe,obj,root,subj,
p1457
I1838
sVadjunct,adjunct_qt,comp,comp_fin,root,
p1458
I619
sVadjunct,comp,comp_fin,comp_inf,obj,root,subj,
p1459
I1055
sVapp,comp_fin,obj,punct,root,
p1460
I1841
sVadjunct,comp_fin,obj_th,root,subj,
p1461
I217
sVadjunct_rc,comp_inf,obj,root,subj,
p1462
I1251
sVadjunct,adjunct_qt,app,root,
p1463
I1268
sVadjunct,comp,comp_fin,obj_th,root,subj,
p1464
I637
sVadjunct,adjunct_qt,adjunct_rc,conjunct,root,subj,
p1465
I878
sVne,punct,root,
p1466
I1172
sVadjunct,comp,comp_inf,conjunct,root,
p1467
I180
sVaux,ne,root,
p1468
I1814
sVapp,ne,obj,root,
p1469
I577
sVadjunct,aux,conjunct,obj,root,
p1470
I1369
sVadjunct,comp,comp_fin,comp_inf,refl,root,
p1471
I1255
sVadjunct,conjunct,mwe,obj,pd,root,
p1472
I1237
sVconjunct,obj,refl,root,
p1473
I1391
sVadjunct,app,conjunct,pd,punct,root,subj,
p1474
I1315
sVadjunct,comp,obj,subj,
p1475
I1465
sVcomp,conjunct,obj,punct,root,
p1476
I941
sVadjunct_qt,conjunct,root,
p1477
I91
sVadjunct,adjunct_qt,comp,comp_fin,conjunct,obj_th,root,
p1478
I1878
sVadjunct,adjunct_qt,comp,conjunct,pd,root,subj,
p1479
I776
sVadjunct,adjunct_compar,comp,comp_ag,conjunct,ne,root,
p1480
I442
sVaux,comp,comp_fin,conjunct,root,
p1481
I353
sVaux,comp,comp_fin,comp_inf,conjunct,root,
p1482
I633
sVadjunct,adjunct_rc,comp,conjunct,root,
p1483
I270
sVcomp,conjunct,root,subj,
p1484
I543
sVadjunct,adjunct_qt,conjunct,mwe,root,
p1485
I896
sVadjunct,app,comp,comp_fin,comp_inf,ne,obj,root,subj,
p1486
I1510
sVabbrev_punct,root,subj,
p1487
I70
sVadjunct,comp_fin,punct,root,subj,
p1488
I199
sVadjunct,adjunct_rc,punct,root,
p1489
I371
sVadjunct_qt,ne,root,
p1490
I1412
sVcomp_fin,comp_inf,conjunct,obj,root,subj,
p1491
I291
sVadjunct,adjunct_qt,comp,comp_fin,conjunct,obj,root,subj,
p1492
I1801
sVadjunct_qt,comp,comp_fin,comp_inf,obj,pd,root,subj,
p1493
I1283
sVadjunct,comp,mwe,obj,punct,root,subj,
p1494
I1233
sVadjunct,comp,comp_fin,mwe,obj,punct,root,subj,
p1495
I1840
sVadjunct_compar,app,comp,punct,root,
p1496
I855
sVadjunct,adjunct_rc,comp,comp_inf,refl,root,subj,
p1497
I1168
sVadjunct,adjunct_compar,comp_fin,comp_inf,conjunct,root,
p1498
I1343
sVabbrev_punct,ne,root,
p1499
I1173
sVadjunct,adjunct_compar,comp,neg,root,
p1500
I1971
sVadjunct_qt,app,mwe,punct,root,
p1501
I1531
sVadjunct,comp,comp_fin,comp_inf,obj,obj_th,
p1502
I1476
sVadjunct_qt,neg,root,
p1503
I679
sVadjunct,comp,pd,root,subj,
p1504
I766
sVadjunct_compar,comp,comp_fin,conjunct,root,
p1505
I1401
sVaglt,cond,root,subj,
p1506
I832
sVabbrev_punct,adjunct,root,subj,
p1507
I635
sVabbrev_punct,adjunct,comp,comp_fin,conjunct,root,subj,
p1508
I1105
sVapp,mwe,ne,root,
p1509
I1526
sVadjunct,adjunct_rc,comp,conjunct,pd,root,subj,
p1510
I718
sVadjunct,conjunct,neg,pd,root,
p1511
I603
sVadjunct,comp,comp_inf,mwe,ne,root,
p1512
I1033
sVadjunct,comp_fin,conjunct,obj_th,pd,root,
p1513
I889
sVconjunct,ne,obj,punct,root,
p1514
I1666
sVadjunct,adjunct_qt,pd,root,
p1515
I227
sVcomp_fin,conjunct,mwe,root,
p1516
I356
sVadjunct,adjunct_rc,aglt,comp,obj_th,root,
p1517
I996
sVadjunct,comp_inf,refl,root,subj,
p1518
I1975
sVcomp,comp_ag,conjunct,mwe,obj_th,root,
p1519
I1927
sVadjunct_rc,app,obj,root,
p1520
I1505
sVadjunct,comp_fin,conjunct,obj,pd,root,
p1521
I1655
sVadjunct,comp_fin,conjunct,pd,root,subj,
p1522
I1707
sVcomp,comp_inf,root,subj,
p1523
I1121
sVadjunct,comp,comp_ag,root,
p1524
I511
sVadjunct,comp,conjunct,mwe,punct,root,
p1525
I849
sVcomp,comp_fin,comp_inf,conjunct,mwe,obj,root,subj,
p1526
I1146
sVadjunct_qt,refl,root,subj,
p1527
I1995
sVadjunct,conjunct,pd,root,
p1528
I194
sVadjunct,comp_fin,mwe,refl,root,
p1529
I665
sVadjunct,mwe,obj,obj_th,root,
p1530
I1449
sVadjunct,comp,comp_inf,obj,obj_th,root,
p1531
I1131
sVadjunct,comp,comp_inf,obj_th,root,
p1532
I1123
sVadjunct,comp,obj,root,
p1533
I246
sVcomp,obj,root,
p1534
I55
sVadjunct,comp_inf,conjunct,mwe,obj,root,
p1535
I753
sVadjunct,comp,comp_fin,comp_inf,conjunct,obj_th,root,
p1536
I1037
sVadjunct,app,conjunct,obj,root,subj,
p1537
I349
sVadjunct,comp_fin,comp_inf,conjunct,punct,root,
p1538
I1320
sVadjunct,app,comp,comp_fin,conjunct,obj,refl,root,subj,
p1539
I47
sVadjunct,comp,conjunct,obj,punct,root,
p1540
I406
sVadjunct,comp,comp_inf,conjunct,mwe,obj_th,root,
p1541
I1455
sVadjunct,conjunct,imp,root,
p1542
I1766
sVadjunct_qt,comp,comp_inf,obj,root,
p1543
I1492
sVadjunct,adjunct_rc,app,root,subj,
p1544
I1968
sVadjunct_qt,comp,root,subj,
p1545
I1389
sVadjunct_qt,comp,comp_fin,obj,root,subj,
p1546
I1808
sVadjunct_qt,comp,comp_fin,conjunct,obj_th,punct,root,
p1547
I1879
sVadjunct_qt,comp,comp_inf,punct,root,
p1548
I1286
sVadjunct,app,comp,comp_fin,conjunct,ne,obj,obj_th,root,subj,
p1549
I46
sVadjunct,comp,comp_fin,pd,punct,root,
p1550
I992
sVadjunct,adjunct_compar,app,comp,conjunct,mwe,root,subj,
p1551
I1217
sVadjunct,comp_fin,comp_inf,obj,obj_th,root,subj,
p1552
I1374
sVcomp,comp_fin,comp_inf,conjunct,pd,root,
p1553
I1085
sVadjunct,aux,comp,comp_inf,root,
p1554
I716
sVadjunct,adjunct_rc,comp,conjunct,obj,refl,root,
p1555
I928
sVaux,comp_fin,conjunct,root,subj,
p1556
I1184
sVcomp,comp_ag,comp_fin,root,
p1557
I1768
sVadjunct,adjunct_compar,adjunct_qt,comp,comp_fin,comp_inf,pd,root,
p1558
I1895
sVadjunct_qt,conjunct,obj_th,root,
p1559
I203
sVadjunct,adjunct_rc,comp,comp_inf,conjunct,neg,root,
p1560
I266
sVadjunct_compar,comp_fin,punct,root,
p1561
I1734
sVadjunct_qt,app,root,
p1562
I1488
sVadjunct,comp,comp_fin,conjunct,ne,obj,root,
p1563
I1594
sVadjunct,app,refl,root,subj,
p1564
I685
sVaglt,comp,root,
p1565
I953
sVcomp,comp_fin,comp_inf,pd,root,
p1566
I873
sVcomp,comp_fin,refl,root,
p1567
I1404
sVadjunct,comp,obj,punct,refl,root,
p1568
I1231
sVcomp_fin,obj_th,punct,root,subj,
p1569
I972
sVadjunct_rc,conjunct,root,subj,
p1570
I1322
sVapp,comp,comp_fin,conjunct,ne,root,subj,
p1571
I1775
sVabbrev_punct,comp,ne,root,
p1572
I887
sVadjunct_rc,comp,conjunct,obj_th,pd,root,
p1573
I1936
sVadjunct,comp_fin,comp_inf,conjunct,root,subj,
p1574
I1111
sVaux,comp,comp_fin,root,
p1575
I749
sVadjunct,comp,mwe,pd,root,
p1576
I1158
sVadjunct,adjunct_qt,comp,conjunct,mwe,obj_th,root,
p1577
I706
sVcomp_fin,conjunct,mwe,obj,root,
p1578
I1756
sVadjunct,conjunct,neg,punct,root,
p1579
I1889
sVadjunct,cond,obj,root,
p1580
I1759
sVapp,conjunct,ne,punct,root,
p1581
I1551
sVadjunct,aux,comp,conjunct,punct,root,
p1582
I818
sVadjunct,app,comp,comp_fin,conjunct,root,subj,
p1583
I868
sVcomp,punct,
p1584
I692
sVadjunct,app,comp,comp_fin,root,
p1585
I729
sVadjunct,adjunct_qt,app,comp,root,
p1586
I1409
sVadjunct,comp_inf,refl,root,
p1587
I1043
sVadjunct,app,comp,comp_fin,refl,root,
p1588
I1078
sVadjunct,comp_inf,obj_th,root,subj,
p1589
I1379
sVabbrev_punct,adjunct,app,comp,conjunct,root,
p1590
I446
sVadjunct_qt,comp,comp_fin,conjunct,obj,root,
p1591
I1436
sVaux,comp_fin,root,subj,
p1592
I1197
sVadjunct_qt,conjunct,obj,root,
p1593
I93
sVadjunct_qt,comp,punct,
p1594
I1460
sVadjunct,adjunct_qt,adjunct_rc,comp,mwe,root,
p1595
I1153
sVadjunct,comp,comp_fin,comp_inf,conjunct,pd,root,
p1596
I1653
sVadjunct,neg,obj,root,
p1597
I1329
sVadjunct,adjunct_rc,root,
p1598
I372
sVcomp_fin,conjunct,punct,root,
p1599
I94
sVadjunct,app,comp,obj,punct,root,
p1600
I54
sVadjunct,adjunct_compar,comp,obj,pd,root,
p1601
I1940
sVcomp,conjunct,obj,root,subj,
p1602
I602
sVcomp_inf,conjunct,obj,obj_th,root,
p1603
I1235
sVadjunct,adjunct_qt,adjunct_rc,comp_fin,root,subj,
p1604
I1162
sVadjunct,aux,comp_inf,root,
p1605
I1753
sVcomp_fin,punct,refl,root,
p1606
I973
sVadjunct,ne,root,subj,
p1607
I323
sVadjunct,comp_fin,comp_inf,obj_th,punct,root,subj,
p1608
I970
sVadjunct,adjunct_rc,app,comp,comp_inf,conjunct,obj,root,
p1609
I647
sVadjunct,adjunct_compar,comp,comp_fin,conjunct,refl,root,
p1610
I1787
sVadjunct,comp,comp_fin,obj,punct,root,
p1611
I1008
sVcomp_fin,comp_inf,obj,root,subj,
p1612
I1691
sVcond,root,subj,
p1613
I831
sVadjunct,comp,ne,obj,root,subj,
p1614
I502
sVadjunct_rc,comp,comp_fin,comp_inf,conjunct,pd,punct,root,subj,
p1615
I1980
sVadjunct,adjunct_rc,comp,comp_fin,comp_inf,root,subj,
p1616
I1862
sVcomp,comp_ag,conjunct,obj,root,
p1617
I1945
sVcomp,comp_fin,conjunct,obj,root,
p1618
I471
sVadjunct,adjunct_rc,comp,comp_fin,punct,root,subj,
p1619
I1863
sVadjunct,aglt,pd,root,
p1620
I1236
sVadjunct,comp,comp_fin,comp_inf,ne,root,
p1621
I549
sVabbrev_punct,adjunct,adjunct_compar,comp,conjunct,root,
p1622
I440
sVadjunct,ne,pd,root,
p1623
I308
sVcomp,conjunct,root,
p1624
I20
sVcomp,mwe,obj,pd,punct,root,
p1625
I1680
sVadjunct_qt,comp,conjunct,obj,obj_th,root,
p1626
I202
sVadjunct_qt,comp_fin,comp_inf,obj_th,root,
p1627
I1718
sVadjunct_rc,refl,root,
p1628
I1224
sVadjunct,comp,comp_fin,comp_inf,
p1629
I1472
sVadjunct,comp_inf,conjunct,obj,obj_th,root,
p1630
I755
sVabbrev_punct,adjunct,comp,root,
p1631
I385
sVadjunct_rc,comp,conjunct,root,subj,
p1632
I1328
sVadjunct,comp_inf,conjunct,obj_th,root,
p1633
I752
sVadjunct,conjunct,mwe,obj_th,root,
p1634
I1439
sVadjunct,comp_fin,conjunct,obj,root,subj,
p1635
I553
sVapp,mwe,root,subj,
p1636
I1843
sVadjunct,comp,mwe,obj,pd,punct,root,
p1637
I1679
sVadjunct,refl,root,
p1638
I426
sVcomp_inf,obj,obj_th,root,
p1639
I1300
sVadjunct,adjunct_rc,comp,comp_fin,root,
p1640
I396
sVadjunct,obj,refl,root,
p1641
I964
sVadjunct,conjunct,obj,obj_th,root,subj,
p1642
I1562
sVadjunct,adjunct_qt,comp,comp_fin,obj,refl,root,subj,
p1643
I863
sVadjunct,comp,comp_fin,obj,root,
p1644
I29
sVadjunct,conjunct,obj_th,pd,root,
p1645
I604
sVadjunct,adjunct_qt,app,ne,root,
p1646
I1408
sVadjunct,comp_fin,ne,obj,root,
p1647
I1821
sVadjunct_rc,comp_fin,conjunct,obj,root,subj,
p1648
I723
sVadjunct,comp,comp_inf,pd,punct,root,
p1649
I1894
sVadjunct,app,comp,mwe,root,
p1650
I561
sVadjunct,app,obj,punct,root,
p1651
I1118
sVadjunct_compar,comp,comp_fin,comp_inf,root,
p1652
I1731
sVcond,conjunct,root,
p1653
I1157
sVadjunct,comp_fin,neg,root,
p1654
I806
sVadjunct,adjunct_qt,comp,
p1655
I1481
sVadjunct,comp,conjunct,ne,punct,root,
p1656
I891
sVadjunct,adjunct_qt,comp,punct,root,
p1657
I656
sVcomp,comp_fin,obj,refl,root,
p1658
I564
sVadjunct_qt,adjunct_rc,obj,root,subj,
p1659
I1164
sVadjunct,comp_inf,conjunct,obj_th,root,subj,
p1660
I1068
sVaux,comp,comp_fin,obj,root,
p1661
I1213
sVadjunct_rc,conjunct,pd,root,subj,
p1662
I539
sVabbrev_punct,adjunct,comp,conjunct,root,
p1663
I375
sVadjunct,adjunct_qt,app,comp,conjunct,punct,root,
p1664
I697
sVadjunct,comp,comp_fin,comp_inf,conjunct,obj_th,punct,root,
p1665
I1662
sVadjunct,adjunct_qt,adjunct_rc,comp,obj,root,
p1666
I1521
sVadjunct,adjunct_qt,obj,root,subj,
p1667
I1517
sVcomp,comp_fin,conjunct,mwe,ne,root,subj,
p1668
I839
sVadjunct,adjunct_qt,adjunct_rc,comp,conjunct,root,subj,
p1669
I881
sVcomp,conjunct,punct,root,subj,
p1670
I1689
sVadjunct,comp,comp_inf,conjunct,refl,root,
p1671
I559
sVaux,obj,root,
p1672
I614
sVadjunct,comp_inf,root,subj,
p1673
I262
sVadjunct,comp_inf,obj,punct,root,subj,
p1674
I1948
sVadjunct_compar,comp,comp_inf,conjunct,root,subj,
p1675
I800
sVadjunct,adjunct_rc,comp,conjunct,pd,punct,root,
p1676
I717
sVadjunct_qt,conjunct,pd,root,subj,
p1677
I778
sVadjunct,app,conjunct,ne,obj,root,
p1678
I950
sVadjunct_rc,conjunct,obj_th,root,
p1679
I1953
sVadjunct,adjunct_qt,conjunct,root,subj,
p1680
I418
sVadjunct,punct,root,
p1681
I243
sVadjunct,conjunct,ne,neg,root,subj,
p1682
I2006
sVadjunct,comp,comp_fin,comp_inf,conjunct,obj,pd,root,
p1683
I1010
sVaglt,conjunct,root,
p1684
I260
sVadjunct,comp,conjunct,mwe,ne,root,subj,
p1685
I923
sVadjunct_qt,adjunct_rc,comp_fin,root,subj,
p1686
I1161
sVcomp,comp_fin,obj,obj_th,root,
p1687
I287
sVaux,comp_inf,root,
p1688
I525
sVaux,comp_inf,conjunct,root,
p1689
I714
sVadjunct_qt,comp,comp_inf,conjunct,root,
p1690
I1625
sVadjunct,comp_fin,conjunct,refl,root,subj,
p1691
I1661
sVadjunct_rc,obj,root,
p1692
I434
sVadjunct,adjunct_qt,conjunct,obj,obj_th,pd,root,
p1693
I1921
sVadjunct,adjunct_qt,aglt,root,
p1694
I1723
sVadjunct_qt,obj_th,root,
p1695
I580
sVadjunct,adjunct_qt,conjunct,mwe,root,subj,
p1696
I705
sVadjunct_qt,conjunct,obj_th,pd,root,
p1697
I1922
sVadjunct,conjunct,obj,obj_th,punct,root,
p1698
I956
sVadjunct_rc,conjunct,mwe,ne,root,subj,
p1699
I1134
sVabbrev_punct,adjunct,comp,obj,root,
p1700
I500
sVadjunct_qt,comp,comp_fin,conjunct,punct,root,
p1701
I1791
sVadjunct_rc,comp,comp_inf,conjunct,obj,root,subj,
p1702
I842
sVcomp,conjunct,obj,obj_th,root,
p1703
I822
sVadjunct,aglt,comp,comp_fin,comp_inf,root,
p1704
I1025
sVapp,obj_th,root,
p1705
I659
sVadjunct,adjunct_compar,comp,root,
p1706
I681
sVabbrev_punct,adjunct,app,comp,comp_fin,ne,root,subj,
p1707
I1514
sVcomp,comp_inf,conjunct,mwe,root,
p1708
I1289
sVadjunct,obj,root,
p1709
I16
sVadjunct_qt,aux,conjunct,root,
p1710
I182
sVadjunct,app,obj,obj_th,punct,root,
p1711
I214
sVadjunct_qt,item,root,
p1712
I1750
sVadjunct,adjunct_rc,comp_fin,root,
p1713
I1784
sVadjunct,adjunct_compar,comp,comp_inf,conjunct,obj,pd,root,
p1714
I1204
sVadjunct_qt,comp_fin,refl,root,
p1715
I811
sVadjunct,adjunct_qt,conjunct,obj_th,root,
p1716
I1277
sVobj,refl,root,
p1717
I1249
sVadjunct_qt,conjunct,mwe,root,
p1718
I1550
sVadjunct_rc,comp,conjunct,obj,root,subj,
p1719
I1256
sVadjunct,aglt,comp_inf,conjunct,obj,root,
p1720
I1534
sVadjunct,adjunct_qt,comp_fin,root,
p1721
I671
sVadjunct,adjunct_compar,comp,conjunct,root,subj,
p1722
I1132
sVadjunct,comp,comp_fin,comp_inf,obj,punct,root,
p1723
I1179
sVcomp,mwe,root,
p1724
I687
sVadjunct,adjunct_qt,comp,conjunct,root,
p1725
I184
sVcomp,comp_inf,ne,obj,root,
p1726
I1152
sVadjunct_compar,adjunct_qt,comp,comp_fin,comp_inf,obj,pd,root,subj,
p1727
I1282
sVadjunct,aux,comp_inf,conjunct,root,
p1728
I581
sVadjunct,conjunct,mwe,root,
p1729
I105
sVadjunct,adjunct_compar,comp,comp_inf,conjunct,mwe,root,
p1730
I796
sVadjunct,comp,obj,obj_th,punct,root,
p1731
I1351
sVadjunct,conjunct,mwe,obj,punct,root,
p1732
I1557
sVadjunct,comp_fin,conjunct,obj,obj_th,refl,root,
p1733
I1248
sVabbrev_punct,app,root,
p1734
I1382
sVcomp,comp_fin,conjunct,punct,root,subj,
p1735
I1884
sVadjunct,adjunct_rc,comp,cond,obj,root,subj,
p1736
I1657
sVadjunct,comp_inf,conjunct,obj,root,subj,
p1737
I721
sVcomp_fin,comp_inf,conjunct,root,
p1738
I252
sVadjunct,comp,comp_fin,mwe,obj,root,
p1739
I461
sVadjunct,adjunct_qt,adjunct_rc,obj,punct,root,
p1740
I1523
sVadjunct,comp,ne,pd,punct,root,
p1741
I596
sVadjunct,adjunct_qt,conjunct,mwe,obj,root,subj,
p1742
I1993
sVadjunct,mwe,root,
p1743
I319
sVadjunct,adjunct_qt,punct,root,
p1744
I413
sVadjunct,comp,conjunct,mwe,punct,root,subj,
p1745
I1214
sVadjunct_qt,conjunct,obj,obj_th,root,
p1746
I205
sVadjunct,adjunct_compar,app,comp,root,
p1747
I856
sVconjunct,ne,punct,root,
p1748
I1552
sVcomp,comp_fin,comp_inf,conjunct,root,
p1749
I159
sVadjunct,adjunct_rc,app,comp,conjunct,pd,punct,root,
p1750
I569
sVconjunct,neg,root,subj,
p1751
I1574
sVadjunct_rc,aux,conjunct,obj_th,root,
p1752
I1951
sVadjunct,adjunct_rc,comp,comp_inf,conjunct,obj_th,root,
p1753
I265
sVadjunct,comp,comp_ag,conjunct,obj_th,punct,root,
p1754
I1669
sVadjunct,comp_fin,conjunct,obj,punct,root,
p1755
I1018
sVadjunct,comp,comp_fin,
p1756
I1473
sVadjunct,comp_inf,obj,obj_th,punct,root,
p1757
I1298
sVabbrev_punct,adjunct,comp,comp_fin,comp_inf,conjunct,obj,root,
p1758
I1416
sVadjunct_rc,comp_fin,mwe,pd,punct,root,
p1759
I364
sVadjunct,comp,comp_fin,comp_inf,obj_th,root,
p1760
I731
sVadjunct,aux,comp_inf,conjunct,mwe,obj_th,root,
p1761
I1453
sVmwe,punct,root,
p1762
I762
sVadjunct,app,comp,comp_ag,conjunct,obj,root,subj,
p1763
I346
sVadjunct,comp_inf,obj,root,
p1764
I156
sVadjunct,adjunct_rc,obj,root,subj,
p1765
I662
sVadjunct,comp,mwe,obj,root,subj,
p1766
I283
sVadjunct,comp,comp_fin,comp_inf,pd,root,subj,
p1767
I1809
sVadjunct,app,comp,conjunct,mwe,root,subj,
p1768
I408
sVadjunct,comp_inf,conjunct,mwe,root,
p1769
I556
sVadjunct,adjunct_rc,conjunct,root,subj,
p1770
I1327
sVcomp,comp_fin,conjunct,obj,punct,root,
p1771
I1022
sVapp,comp_fin,root,subj,
p1772
I1365
sVapp,conjunct,obj,punct,root,
p1773
I854
sVadjunct,adjunct_qt,adjunct_rc,app,punct,root,
p1774
I1267
sVadjunct,app,comp,pd,root,
p1775
I380
sVadjunct_qt,punct,root,subj,
p1776
I1398
sVadjunct,app,comp,conjunct,obj,punct,root,subj,
p1777
I1219
sVcomp_fin,conjunct,obj,obj_th,root,
p1778
I334
sVadjunct,comp_fin,cond,root,
p1779
I668
sVadjunct,ne,obj,pd,root,
p1780
I570
sVadjunct,adjunct_qt,comp_fin,mwe,punct,root,
p1781
I71
sVadjunct,comp_fin,pd,punct,root,
p1782
I1996
sVadjunct,adjunct_qt,adjunct_rc,aux,conjunct,root,subj,
p1783
I876
sVadjunct,comp,mwe,punct,root,subj,
p1784
I1223
sVadjunct,app,comp_ag,root,
p1785
I1099
sVadjunct_rc,comp_fin,conjunct,root,
p1786
I938
sVadjunct,adjunct_rc,comp_fin,obj,obj_th,pd,root,
p1787
I1071
sVadjunct,comp,comp_fin,mwe,punct,root,
p1788
I739
sVroot,
p1789
I6
sVadjunct,adjunct_compar,adjunct_qt,comp_fin,comp_inf,conjunct,punct,root,
p1790
I1347
sVadjunct,comp,comp_inf,obj,root,
p1791
I163
sVadjunct,adjunct_qt,conjunct,pd,root,subj,
p1792
I1051
sVcomp_fin,pd,root,
p1793
I223
sVadjunct_rc,comp,comp_fin,conjunct,obj,root,subj,
p1794
I724
sVadjunct,comp_fin,conjunct,ne,root,
p1795
I2019
sVcomp_inf,punct,root,
p1796
I524
sVadjunct,app,comp,comp_fin,obj,punct,root,subj,
p1797
I48
sVadjunct_qt,comp,comp_fin,comp_inf,obj,root,
p1798
I618
sVadjunct,adjunct_compar,punct,root,
p1799
I1440
sVadjunct,conjunct,subj,
p1800
I1646
sVadjunct,adjunct_rc,pd,root,
p1801
I1446
sVadjunct,app,conjunct,ne,root,
p1802
I1044
sVadjunct,obj,punct,root,
p1803
I245
sVadjunct,comp,comp_fin,comp_inf,root,subj,
p1804
I1056
sVadjunct,aglt,root,
p1805
I605
sVmwe,obj_th,punct,root,
p1806
I1555
sVadjunct_qt,comp_fin,root,subj,
p1807
I812
sVconjunct,punct,root,
p1808
I96
sVadjunct,app,comp_fin,ne,obj,root,
p1809
I1842
sVadjunct,app,comp,comp_fin,punct,root,
p1810
I1077
sVadjunct_compar,comp_inf,root,
p1811
I1730
sVcomp_fin,conjunct,pd,root,
p1812
I547
sVadjunct,comp_inf,obj,root,subj,
p1813
I1188
sVadjunct,neg,obj_th,root,
p1814
I219
sVcomp,comp_inf,conjunct,punct,root,
p1815
I158
sVadjunct,adjunct_compar,punct,root,subj,
p1816
I1725
sVadjunct,comp,comp_ag,obj_th,root,
p1817
I321
sVabbrev_punct,adjunct,comp,ne,root,
p1818
I943
sVadjunct_compar,comp,comp_fin,ne,root,
p1819
I1736
sVadjunct,adjunct_rc,comp,conjunct,refl,root,
p1820
I271
sVcomp,comp_fin,comp_inf,conjunct,neg,root,
p1821
I1279
sVadjunct,comp,mwe,obj_th,root,
p1822
I1629
sVapp,obj,root,
p1823
I378
sVadjunct,app,comp,comp_fin,conjunct,obj,root,subj,
p1824
I49
sVadjunct,adjunct_qt,app,mwe,root,
p1825
I1528
sVadjunct_compar,obj,root,
p1826
I1798
sVadjunct,app,comp,comp_fin,conjunct,obj,punct,root,subj,
p1827
I56
sVapp,comp,comp_ag,ne,root,
p1828
I1549
sVcomp,refl,root,
p1829
I563
sVadjunct,comp_fin,comp_inf,obj,obj_th,punct,root,
p1830
I1372
sVadjunct_rc,conjunct,neg,pd,root,
p1831
I1569
sVcomp,conjunct,mwe,ne,root,
p1832
I1290
sVadjunct_qt,comp_fin,mwe,refl,root,
p1833
I87
sVcomp,obj_th,refl,root,
p1834
I1441
sVadjunct,app,punct,root,
p1835
I456
sVcomp,conjunct,neg,root,
p1836
I1226
sVadjunct,adjunct_qt,comp,conjunct,obj_th,root,
p1837
I700
sVadjunct,aux,comp,comp_fin,conjunct,neg,root,
p1838
I1093
sVconjunct,pd,refl,root,
p1839
I503
sVcomp_inf,conjunct,punct,root,
p1840
I110
sVadjunct,app,conjunct,root,subj,
p1841
I455
sVpd,root,subj,
p1842
I571
sVadjunct,comp_fin,obj,root,subj,
p1843
I981
sVadjunct,adjunct_qt,adjunct_rc,comp,root,subj,
p1844
I879
sVadjunct,comp,conjunct,pd,punct,root,
p1845
I1687
sVcomp,comp_fin,conjunct,ne,obj,root,
p1846
I2009
sVadjunct,comp,conjunct,root,subj,
p1847
I66
sVadjunct_rc,comp,comp_inf,conjunct,root,subj,
p1848
I109
sVadjunct,comp_fin,conjunct,punct,root,
p1849
I253
sVabbrev_punct,adjunct,conjunct,pd,root,
p1850
I302
sVadjunct,comp,comp_ag,mwe,root,
p1851
I598
sVadjunct_rc,app,cond,conjunct,obj,root,
p1852
I644
sVadjunct,comp_fin,conjunct,obj_th,punct,root,
p1853
I999
sVcomp_fin,conjunct,root,subj,
p1854
I95
sVadjunct,comp_fin,pd,root,
p1855
I222
sVcomp_fin,pd,refl,root,
p1856
I1075
sVadjunct,aux,comp,comp_fin,comp_inf,obj,root,
p1857
I1983
sVadjunct_compar,aux,comp_fin,comp_inf,conjunct,neg,root,
p1858
I1902
sVadjunct,comp,comp_fin,conjunct,refl,root,
p1859
I361
sVadjunct_qt,comp,conjunct,pd,root,subj,
p1860
I777
sVabbrev_punct,ne,pd,root,
p1861
I1833
sVadjunct_rc,comp,comp_fin,conjunct,neg,root,subj,
p1862
I1901
sVadjunct_compar,comp,comp_inf,conjunct,refl,root,
p1863
I798
sVadjunct,comp,comp_inf,punct,root,
p1864
I629
sVadjunct,app,punct,root,subj,
p1865
I1115
sVadjunct,comp,comp_inf,root,subj,
p1866
I527
sVcomp,comp_ag,comp_inf,conjunct,root,
p1867
I1497
sVadjunct_rc,comp,conjunct,pd,root,
p1868
I1563
sVadjunct,comp,comp_fin,comp_inf,conjunct,obj,root,subj,
p1869
I169
sVobj_th,root,subj,
p1870
I780
sVadjunct,aux,comp_fin,comp_inf,conjunct,root,
p1871
I1547
sVadjunct_qt,aglt,root,
p1872
I1722
sVadjunct,comp,pd,root,
p1873
I415
sVadjunct,aux,comp,comp_fin,conjunct,obj,root,
p1874
I404
sVadjunct_qt,comp,mwe,obj,root,
p1875
I1684
sVcomp,comp_fin,cond,root,
p1876
I1191
sVapp,conjunct,ne,obj,root,
p1877
I1659
sVadjunct,comp,comp_ag,comp_fin,conjunct,obj,root,
p1878
I2010
sVadjunct,comp,comp_inf,pd,refl,root,
p1879
I1892
sVadjunct,adjunct_rc,refl,root,
p1880
I1486
sVcomp_inf,mwe,root,
p1881
I1241
sVcomp_fin,mwe,obj,root,
p1882
I1757
sVadjunct_compar,comp_fin,root,
p1883
I1361
sVadjunct_qt,aux,conjunct,obj,root,
p1884
I282
sVconjunct,ne,obj,root,
p1885
I860
sVadjunct,comp_inf,mwe,obj,root,
p1886
I1503
sVabbrev_punct,adjunct,conjunct,ne,obj,obj_th,root,
p1887
I1587
sVadjunct,adjunct_rc,ne,obj,root,
p1888
I395
sVconjunct,obj_th,root,subj,
p1889
I1061
sVadjunct_qt,comp,comp_ag,root,
p1890
I1747
sVadjunct,comp_fin,pre_coord,root,subj,
p1891
I1012
sVadjunct,comp,comp_fin,ne,root,subj,
p1892
I1198
sVadjunct_compar,comp,comp_fin,punct,root,
p1893
I148
sVadjunct,comp,comp_fin,comp_inf,root,
p1894
I123
sVadjunct,app,comp,root,
p1895
I237
sVcomp_fin,root,subj,
p1896
I224
sVabbrev_punct,adjunct_qt,root,
p1897
I1413
sVadjunct,adjunct_qt,conjunct,pd,root,
p1898
I1052
sVadjunct,adjunct_rc,conjunct,neg,root,
p1899
I1675
sVadjunct_qt,comp_fin,comp_inf,punct,root,
p1900
I1720
sVadjunct,adjunct_rc,comp_fin,comp_inf,conjunct,pd,root,
p1901
I1041
sVadjunct,comp_fin,comp_inf,punct,root,
p1902
I137
sVcomp_inf,obj,refl,root,
p1903
I1299
sVadjunct,app,comp,comp_fin,conjunct,punct,root,
p1904
I750
sVconjunct,root,
p1905
I17
sVcomp,comp_fin,conjunct,mwe,root,subj,
p1906
I840
sVcomp_inf,conjunct,root,
p1907
I107
sVabbrev_punct,adjunct,comp,comp_fin,conjunct,obj,root,subj,
p1908
I1881
sVadjunct,comp_fin,comp_inf,obj,refl,root,
p1909
I828
sVadjunct_qt,root,subj,
p1910
I185
sVadjunct_qt,comp,comp_fin,conjunct,root,subj,
p1911
I1807
sVadjunct,comp,comp_fin,conjunct,pd,refl,root,
p1912
I1087
sVadjunct,app,comp,comp_inf,punct,root,
p1913
I23
sVadjunct_rc,comp,conjunct,obj,root,
p1914
I1258
sVadjunct,adjunct_qt,adjunct_rc,comp_fin,conjunct,obj,pd,root,
p1915
I516
sVaux,conjunct,obj,root,
p1916
I1979
sVadjunct,adjunct_rc,comp,mwe,ne,obj,punct,root,subj,
p1917
I1230
sVadjunct,comp_fin,comp_inf,conjunct,mwe,obj,obj_th,root,
p1918
I827
sVadjunct,adjunct_qt,refl,root,
p1919
I756
sVadjunct,comp,comp_inf,conjunct,obj,pd,root,subj,
p1920
I59
sVadjunct_rc,comp,comp_fin,conjunct,root,subj,
p1921
I1539
sVadjunct,adjunct_compar,comp,comp_ag,root,
p1922
I1598
sVadjunct_rc,conjunct,pd,punct,root,
p1923
I538
sVadjunct_qt,comp,comp_fin,root,subj,
p1924
I1307
sVcomp_fin,obj,punct,root,
p1925
I1815
sVabbrev_punct,adjunct,comp,mwe,ne,obj_th,root,
p1926
I1911
sVadjunct,comp,comp_fin,comp_inf,mwe,root,
p1927
I601
sVadjunct,app,comp,comp_fin,obj_th,pd,root,
p1928
I1650
sVapp,comp,conjunct,root,subj,
p1929
I1990
sVadjunct,ne,obj_th,root,
p1930
I1368
sVadjunct,comp,obj,pre_coord,root,
p1931
I1818
sVadjunct_qt,comp,mwe,obj,punct,root,
p1932
I1682
sVadjunct_compar,comp,comp_inf,conjunct,pd,root,
p1933
I1206
sVadjunct,comp,comp_ag,mwe,ne,root,
p1934
I2013
sVadjunct,comp,conjunct,ne,refl,root,subj,
p1935
I497
sVadjunct,comp,mwe,ne,obj_th,root,
p1936
I1910
sVadjunct,aglt,comp_fin,cond,root,
p1937
I1362
sVadjunct,comp,comp_ag,pd,root,
p1938
I1243
sVadjunct_rc,pd,refl,root,
p1939
I1568
sVadjunct_rc,comp,root,
p1940
I1318
sVadjunct_qt,adjunct_rc,root,
p1941
I534
sVadjunct,comp,comp_ag,pd,root,subj,
p1942
I847
sVadjunct,comp,ne,root,subj,
p1943
I508
sVcomp_fin,comp_inf,conjunct,mwe,obj,root,subj,
p1944
I1145
sVadjunct,adjunct_compar,comp,conjunct,mwe,root,subj,
p1945
I1216
sVadjunct,conjunct,mwe,obj,pd,pre_coord,root,
p1946
I1706
sVadjunct_qt,adjunct_rc,punct,root,subj,
p1947
I1163
sVabbrev_punct,comp,comp_inf,root,
p1948
I1954
sVobj_th,punct,root,
p1949
I1678
sVadjunct,app,comp,conjunct,pd,root,
p1950
I568
sVcomp,ne,obj,root,
p1951
I1142
sVadjunct,conjunct,neg,root,subj,
p1952
I836
sVadjunct,adjunct_rc,comp_inf,conjunct,obj,pd,root,
p1953
I1702
sVadjunct,adjunct_rc,comp,comp_inf,obj,root,subj,
p1954
I1656
sVadjunct_rc,app,obj,punct,root,
p1955
I1506
sVabbrev_punct,adjunct,obj,root,subj,
p1956
I1924
sVaux,punct,root,
p1957
I899
sVadjunct,comp_fin,comp_inf,mwe,root,subj,
p1958
I1502
sVadjunct,comp,root,
p1959
I7
sVadjunct_qt,comp_inf,conjunct,root,
p1960
I1261
sVmwe,obj_th,root,
p1961
I1554
sVadjunct,app,conjunct,punct,root,
p1962
I324
sVadjunct,comp_fin,conjunct,mwe,obj,root,
p1963
I1755
sVadjunct,adjunct_qt,aux,comp,conjunct,obj,root,subj,
p1964
I1749
sVabbrev_punct,adjunct,comp,comp_fin,conjunct,mwe,root,subj,
p1965
I144
sVadjunct,comp_fin,punct,root,
p1966
I333
sVadjunct_qt,comp_fin,mwe,root,
p1967
I89
sVmwe,obj,punct,root,
p1968
I370
sVadjunct,comp_fin,comp_inf,conjunct,obj,pd,root,
p1969
I129
sVadjunct,aux,root,
p1970
I244
sVadjunct_compar,adjunct_qt,comp,comp_fin,comp_inf,obj,pd,punct,root,subj,
p1971
I1281
sVadjunct_compar,comp,comp_fin,root,
p1972
I149
sVadjunct,adjunct_compar,comp,root,subj,
p1973
I1288
sVadjunct,conjunct,obj,pd,root,
p1974
I744
sVabbrev_punct,mwe,obj,root,
p1975
I886
sVadjunct,app,ne,obj,root,
p1976
I1751
sVadjunct_rc,punct,root,
p1977
I673
sVabbrev_punct,adjunct,adjunct_qt,comp,conjunct,root,
p1978
I704
sVpd,punct,root,
p1979
I763
sVadjunct_qt,comp,comp_inf,root,
p1980
I1002
sVadjunct,comp_ag,ne,root,
p1981
I894
sVadjunct,app,conjunct,obj,punct,root,
p1982
I1871
sVadjunct,conjunct,punct,root,subj,
p1983
I661
sVadjunct,adjunct_compar,comp,conjunct,obj,root,
p1984
I1744
sVadjunct_qt,aux,comp_inf,refl,root,
p1985
I676
sVadjunct,comp,comp_fin,ne,pd,root,subj,
p1986
I1331
sVadjunct,comp,conjunct,mwe,pd,punct,root,
p1987
I743
sVadjunct,adjunct_rc,conjunct,obj,pd,root,
p1988
I540
sVabbrev_punct,adjunct,app,comp,ne,root,
p1989
I915
sVadjunct,adjunct_compar,obj,pd,root,
p1990
I1939
sVadjunct,adjunct_rc,comp,comp_fin,comp_inf,obj,root,subj,
p1991
I959
sVcomp,comp_fin,comp_inf,obj,refl,root,
p1992
I737
sVadjunct,adjunct_compar,comp_fin,comp_inf,conjunct,obj_th,root,
p1993
I1904
sVapp,comp,comp_fin,ne,root,subj,
p1994
I1512
sVcomp_ag,root,
p1995
I257
sVadjunct,adjunct_qt,conjunct,punct,root,subj,
p1996
I421
sVadjunct,adjunct_qt,comp,comp_ag,comp_fin,mwe,root,
p1997
I173
sVadjunct,comp_fin,conjunct,obj,refl,root,
p1998
I1090
sVadjunct,adjunct_qt,comp,conjunct,ne,root,
p1999
I1274
sVcomp,comp_fin,root,subj,
p2000
I152
sVcomp,obj,punct,root,
p2001
I1180
sVadjunct,app,comp,comp_fin,obj_th,pd,punct,root,
p2002
I1649
sVadjunct,adjunct_rc,comp_fin,obj,root,
p2003
I1782
sVadjunct,comp_ag,conjunct,punct,root,
p2004
I1700
sVadjunct,adjunct_rc,comp_fin,conjunct,punct,root,subj,
p2005
I1938
sVadjunct,obj,pd,root,
p2006
I548
sVadjunct,adjunct_compar,comp,conjunct,root,
p2007
I438
sVcomp_ag,obj,root,
p2008
I1468
sVcomp,comp_fin,conjunct,obj_th,refl,root,
p2009
I1035
sVadjunct_rc,comp,comp_inf,conjunct,root,
p2010
I111
sVabbrev_punct,adjunct_qt,ne,root,
p2011
I1411
sVadjunct_rc,comp,comp_fin,conjunct,punct,root,subj,
p2012
I1541
sVadjunct_rc,comp,comp_fin,neg,root,subj,
p2013
I1430
sVadjunct,comp_fin,comp_inf,conjunct,obj,punct,root,subj,
p2014
I423
sVabbrev_punct,adjunct,comp,comp_fin,conjunct,ne,obj_th,root,
p2015
I1426
sVcomp,conjunct,mwe,ne,obj,root,
p2016
I1668
sVadjunct,comp,comp_fin,mwe,obj,punct,root,
p2017
I1495
sVadjunct,aux,conjunct,punct,root,
p2018
I1699
sVadjunct,comp,comp_fin,mwe,obj,root,subj,
p2019
I1341
sVadjunct,adjunct_rc,comp,comp_fin,root,subj,
p2020
I1861
sVadjunct,aux,comp,conjunct,root,
p2021
I552
sVadjunct,adjunct_qt,comp,conjunct,mwe,root,subj,
p2022
I1994
sVadjunct,adjunct_qt,aux,comp,comp_fin,mwe,root,
p2023
I178
sVadjunct,comp,comp_inf,conjunct,mwe,obj,root,
p2024
I557
sVadjunct,adjunct_qt,comp,comp_inf,root,
p2025
I1003
sVadjunct_rc,app,conjunct,obj,root,
p2026
I648
sVadjunct,comp,conjunct,pd,
p2027
I1461
sVadjunct,comp,comp_fin,obj,obj_th,root,
p2028
I286
sVadjunct,comp,comp_fin,comp_inf,conjunct,punct,root,
p2029
I1014
sVadjunct,adjunct_rc,comp,pd,root,subj,
p2030
I1607
sVadjunct,app,comp,comp_ag,root,
p2031
I1100
sVconjunct,ne,pd,root,
p2032
I304
sVadjunct_compar,comp_inf,conjunct,pd,root,
p2033
I1207
sVadjunct,comp,obj,punct,
p2034
I1467
sVadjunct,app,root,subj,
p2035
I0
sVcomp,obj_th,punct,root,
p2036
I639
sVapp,comp,conjunct,obj,root,
p2037
I649
sVadjunct,comp_fin,conjunct,pd,punct,root,
p2038
I1652
sVadjunct,comp,ne,pd,root,
p2039
I595
sVadjunct,comp,mwe,obj,obj_th,root,
p2040
I1448
sVaux,comp,conjunct,mwe,obj_th,root,
p2041
I1926
sVadjunct_rc,comp,cond,root,subj,
p2042
I844
sVadjunct_qt,comp_fin,root,
p2043
I813
sVadjunct,aux,comp,punct,root,
p2044
I1335
sVadjunct,comp,comp_fin,mwe,pre_coord,root,
p2045
I1986
sVadjunct,comp,comp_ag,ne,root,subj,
p2046
I1882
sVadjunct,comp,comp_fin,conjunct,obj_th,root,
p2047
I248
sVconjunct,punct,refl,root,
p2048
I1546
sVcomp,comp_fin,neg,root,
p2049
I34
sVadjunct_rc,comp,punct,root,
p2050
I1590
sVadjunct_rc,comp,pd,root,
p2051
I1613
sVabbrev_punct,adjunct,comp,conjunct,mwe,root,subj,
p2052
I922
sVadjunct,punct,root,subj,
p2053
I240
sVne,pd,root,
p2054
I1616
sVadjunct,comp,conjunct,ne,root,subj,
p2055
I313
sVadjunct,adjunct_qt,comp,root,subj,
p2056
I624
sVadjunct,comp_ag,conjunct,root,
p2057
I326
sVadjunct,adjunct_qt,root,
p2058
I176
sVadjunct,adjunct_rc,comp,comp_fin,obj,root,subj,
p2059
I958
sVcomp,comp_fin,conjunct,obj,obj_th,root,
p2060
I1595
sVcomp,comp_fin,obj,punct,root,
p2061
I1772
sVapp,pd,root,
p2062
I1303
sVadjunct,comp,comp_fin,conjunct,mwe,root,
p2063
I464
sVadjunct,adjunct_qt,comp,conjunct,ne,punct,root,
p2064
I1273
sVadjunct,comp,comp_fin,comp_inf,conjunct,obj,pd,root,subj,
p2065
I294
sVadjunct,adjunct_compar,comp_fin,obj_th,root,
p2066
I1604
sVadjunct_rc,comp,refl,root,
p2067
I1388
sVadjunct,conjunct,refl,root,subj,
p2068
I626
sVadjunct,adjunct_qt,comp_fin,obj_th,punct,root,
p2069
I1916
sVadjunct,adjunct_compar,comp,comp_inf,conjunct,root,subj,
p2070
I799
sVadjunct,comp_fin,conjunct,refl,root,
p2071
I247
sVadjunct,adjunct_qt,conjunct,obj_th,punct,root,
p2072
I1585
sVcomp,conjunct,mwe,punct,root,subj,
p2073
I1690
sVcomp_fin,conjunct,ne,root,subj,
p2074
I1913
sVadjunct,comp,comp_fin,conjunct,obj,obj_th,root,subj,
p2075
I976
sVadjunct,comp,comp_fin,cond,conjunct,root,
p2076
I1845
sVadjunct_compar,aux,comp_fin,comp_inf,conjunct,root,
p2077
I1903
sVadjunct,comp,comp_fin,subj,
p2078
I1470
sVadjunct,comp,mwe,ne,root,
p2079
I550
sVadjunct,adjunct_compar,comp,mwe,root,
p2080
I1596
sVadjunct_rc,comp,comp_fin,comp_inf,conjunct,pd,punct,refl,root,subj,
p2081
I1982
sVconjunct,neg,obj,root,
p2082
I1363
sVcomp,comp_fin,mwe,root,
p2083
I913
sVadjunct,mwe,obj,root,
p2084
I774
sVcomp,comp_ag,comp_fin,conjunct,root,
p2085
I1199
sVcomp_fin,comp_inf,root,subj,
p2086
I1148
sVadjunct,aux,comp,comp_fin,comp_inf,
p2087
I1471
sVadjunct,comp,comp_fin,obj_th,punct,root,
p2088
I470
sVadjunct,app,comp,comp_fin,conjunct,obj_th,root,subj,
p2089
I869
sVadjunct,comp,conjunct,mwe,obj_th,root,
p2090
I1112
sVadjunct,comp,comp_ag,comp_fin,pd,root,
p2091
I986
sVadjunct,adjunct_rc,comp,conjunct,obj_th,pd,root,
p2092
I1937
sVadjunct,adjunct_rc,obj_th,root,
p2093
I1116
sVcomp_fin,mwe,root,subj,
p2094
I1758
sVabbrev_punct,adjunct_qt,conjunct,mwe,obj_th,root,
p2095
I707
sVapp,ne,obj_th,root,
p2096
I1042
sVadjunct,adjunct_rc,comp,comp_inf,root,
p2097
I1080
sVadjunct,comp_fin,obj,obj_th,root,
p2098
I1437
sVabbrev_punct,adjunct,obj_th,root,
p2099
I1698
sVadjunct,aux,comp_fin,comp_inf,root,
p2100
I495
sVadjunct,comp_fin,comp_inf,conjunct,obj,obj_th,punct,root,
p2101
I829
sVadjunct,comp,comp_ag,conjunct,root,subj,
p2102
I1092
sVadjunct,comp_fin,refl,root,
p2103
I512
sVadjunct,adjunct_qt,comp,mwe,root,
p2104
I1489
sVadjunct,comp,comp_ag,mwe,ne,obj,root,subj,
p2105
I770
sVadjunct,adjunct_qt,app,conjunct,mwe,root,
p2106
I1527
sVadjunct_qt,comp_inf,obj,root,
p2107
I1165
sVapp,pd,punct,root,
p2108
I1302
sVadjunct,comp,comp_fin,comp_inf,conjunct,obj,root,
p2109
I120
sVadjunct_rc,aux,comp,conjunct,obj,root,
p2110
I1257
sVadjunct,adjunct_qt,adjunct_rc,comp_fin,conjunct,mwe,obj,pd,root,
p2111
I517
sVapp,comp,comp_inf,conjunct,obj,root,
p2112
I1234
sVadjunct_qt,adjunct_rc,comp,comp_fin,root,
p2113
I1050
sVadjunct,comp,comp_fin,comp_inf,conjunct,neg,root,
p2114
I733
sVcomp_inf,conjunct,neg,obj,root,
p2115
I1306
sVcomp_fin,comp_inf,punct,root,
p2116
I1189
sVadjunct,adjunct_qt,punct,root,subj,
p2117
I1737
sVadjunct,adjunct_rc,comp,comp_fin,conjunct,obj,root,subj,
p2118
I725
sVadjunct,aux,comp,comp_inf,conjunct,root,subj,
p2119
I607
sVadjunct,adjunct_qt,comp,obj,punct,root,subj,
p2120
I1396
sVadjunct,comp,conjunct,neg,obj,root,
p2121
I929
sVcomp,comp_inf,root,
p2122
I25
sVne,root,
p2123
I305
sVapp,root,
p2124
I310
sVadjunct,adjunct_rc,comp,conjunct,obj,root,subj,
p2125
I1325
sVadjunct_rc,pd,root,
p2126
I672
sVadjunct,adjunct_rc,conjunct,ne,pd,root,subj,
p2127
I1565
sVadjunct,adjunct_rc,conjunct,obj,root,
p2128
I344
sVadjunct,conjunct,mwe,obj,root,subj,
p2129
I1859
sVadjunct,comp,comp_inf,conjunct,obj,root,
p2130
I168
sVadjunct,comp,item,punct,root,
p2131
I1392
sVadjunct_rc,conjunct,ne,pd,root,subj,
p2132
I1566
sVadjunct,adjunct_rc,conjunct,obj,subj,
p2133
I1638
sVadjunct,comp,comp_fin,comp_inf,neg,root,
p2134
I2024
sVcomp,comp_ag,conjunct,ne,obj,root,
p2135
I1665
sVcomp,comp_ag,conjunct,ne,root,
p2136
I1319
sVadjunct,aglt,obj,root,
p2137
I963
sVadjunct,adjunct_rc,comp,conjunct,ne,root,
p2138
I1770
sVadjunct,adjunct_qt,mwe,root,
p2139
I898
sVadjunct,aux,comp,pd,root,
p2140
I1715
sVcomp,comp_fin,comp_inf,conjunct,refl,root,
p2141
I757
sVadjunct_rc,comp_fin,conjunct,punct,root,subj,
p2142
I1544
sVadjunct,app,comp,comp_ag,root,subj,
p2143
I1292
sVcomp_fin,refl,root,
p2144
I329
sVadjunct,adjunct_rc,pd,refl,root,
p2145
I1870
sVadjunct,comp,comp_fin,ne,obj_th,pd,root,
p2146
I1030
sVadjunct,adjunct_rc,comp,comp_fin,conjunct,root,
p2147
I934
sVadjunct_rc,comp,comp_inf,conjunct,punct,root,
p2148
I108
sVcomp,comp_fin,conjunct,pd,root,subj,
p2149
I946
sVadjunct,aux,conjunct,root,subj,
p2150
I1110
sVadjunct,adjunct_rc,conjunct,obj_th,root,subj,
p2151
I1323
sVadjunct,app,comp,conjunct,ne,obj,root,
p2152
I445
sVadjunct,adjunct_rc,comp,obj_th,root,subj,
p2153
I1171
sVadjunct,adjunct_qt,comp,comp_fin,refl,root,
p2154
I1899
sVcomp,comp_fin,conjunct,root,
p2155
I355
sVadjunct,adjunct_rc,app,comp,comp_fin,conjunct,obj,punct,root,subj,
p2156
I40
sVadjunct,conjunct,obj,refl,root,subj,
p2157
I1561
sVadjunct,app,conjunct,ne,root,subj,
p2158
I454
sVcomp_fin,comp_inf,mwe,obj,root,
p2159
I1060
sVcomp_inf,punct,root,subj,
p2160
I1378
sVadjunct,comp_fin,mwe,pre_coord,root,subj,
p2161
I1013
sVadjunct,adjunct_qt,comp,comp_fin,conjunct,mwe,root,
p2162
I1877
sVcomp_fin,conjunct,obj_th,root,
p2163
I1610
sVadjunct,ne,obj,root,subj,
p2164
I1622
sVapp,mwe,punct,root,
p2165
I1529
sVadjunct,
p2166
I1647
sVcomp,comp_fin,neg,pd,root,
p2167
I993
sVadjunct,comp,comp_fin,conjunct,obj,root,subj,
p2168
I140
sVadjunct,adjunct_compar,comp,conjunct,obj,root,subj,
p2169
I1201
sVadjunct,app,refl,root,
p2170
I657
sVadjunct_qt,adjunct_rc,comp_fin,pd,root,
p2171
I520
sVadjunct,comp,conjunct,obj,pd,
p2172
I1463
sVadjunct,adjunct_qt,comp,conjunct,obj,punct,root,subj,
p2173
I281
sVadjunct,adjunct_qt,adjunct_rc,obj,root,
p2174
I531
sVadjunct,comp,conjunct,pd,refl,root,
p2175
I1353
sVadjunct,comp_fin,conjunct,obj_th,root,
p2176
I210
sVadjunct,comp,comp_inf,mwe,obj,root,
p2177
I401
sVadjunct_rc,ne,root,subj,
p2178
I1225
sVadjunct,comp,comp_fin,cond,conjunct,obj,root,subj,
p2179
I1977
sVadjunct_qt,conjunct,obj,obj_th,punct,root,
p2180
I204
sVadjunct,comp,conjunct,punct,root,subj,
p2181
I65
sVadjunct,conjunct,root,subj,
p2182
I220
sVadjunct,app,comp,comp_inf,ne,root,
p2183
I22
sVadjunct,root,subj,
p2184
I39
sVadjunct,comp,conjunct,obj,punct,root,subj,
p2185
I64
sVadjunct,app,comp,mwe,punct,root,
p2186
I562
sVadjunct,comp,comp_ag,mwe,obj,root,subj,
p2187
I545
sVadjunct,adjunct_rc,ne,root,subj,
p2188
I1872
sVadjunct,adjunct_qt,adjunct_rc,obj,root,subj,
p2189
I1519
sVadjunct,adjunct_rc,aux,comp_fin,comp_inf,conjunct,obj,root,subj,
p2190
I128
sVadjunct,comp,ne,punct,root,
p2191
I1836
sVadjunct,comp_fin,comp_inf,mwe,root,
p2192
I599
sVconjunct,pd,root,
p2193
I363
sVadjunct,adjunct_qt,pd,root,subj,
p2194
I226
sVadjunct,comp,comp_ag,comp_inf,conjunct,root,
p2195
I1498
sVadjunct,conjunct,obj_th,refl,root,
p2196
I1069
sVabbrev_punct,adjunct,comp,comp_fin,root,
p2197
I833
sVadjunct,comp_fin,comp_inf,conjunct,obj,root,subj,
p2198
I119
sVadjunct,comp,comp_inf,conjunct,obj,pd,root,
p2199
I1296
sVcomp,comp_inf,conjunct,obj,root,
p2200
I277
sVadjunct,comp_inf,punct,root,
p2201
I263
sVadjunct,comp_inf,neg,obj,root,
p2202
I155
sVadjunct,neg,root,subj,
p2203
I711
sVadjunct,comp,comp_inf,obj,punct,root,
p2204
I630
sVadjunct,comp,comp_fin,conjunct,mwe,punct,root,
p2205
I462
sVadjunct_rc,conjunct,pd,refl,root,
p2206
I1564
sVcomp_fin,comp_inf,conjunct,obj_th,root,subj,
p2207
I1827
sVadjunct_rc,pd,root,subj,
p2208
I1789
sVadjunct,adjunct_compar,comp_fin,comp_inf,conjunct,refl,root,
p2209
I1349
sVadjunct,comp_fin,comp_inf,mwe,obj,root,subj,
p2210
I1942
sVadjunct,adjunct_rc,comp_fin,conjunct,obj,punct,root,
p2211
I331
sVadjunct,comp_inf,conjunct,refl,root,
p2212
I1124
sVconjunct,pd,punct,root,
p2213
I851
sVcomp,ne,obj_th,root,
p2214
I807
sVcomp,conjunct,punct,root,
p2215
I358
sVadjunct,adjunct_rc,comp,obj,punct,root,
p2216
I1591
sVadjunct_qt,comp_fin,comp_inf,root,
p2217
I1719
sVcomp,comp_fin,conjunct,refl,root,subj,
p2218
I1558
sVadjunct,comp,comp_fin,mwe,root,subj,
p2219
I565
sVadjunct,comp,conjunct,neg,pd,root,
p2220
I1354
sVadjunct,comp,comp_fin,conjunct,punct,root,subj,
p2221
I507
sVconjunct,mwe,root,subj,
p2222
I573
sVadjunct,comp,comp_inf,mwe,refl,root,
p2223
I1976
sVadjunct,adjunct_qt,comp,comp_fin,conjunct,punct,root,subj,
p2224
I1805
sVadjunct_qt,app,mwe,root,
p2225
I1530
sVcomp_inf,conjunct,obj,refl,root,
p2226
I1573
sVadjunct,adjunct_compar,comp,comp_fin,comp_inf,conjunct,obj,root,
p2227
I791
sVadjunct,comp_fin,comp_inf,conjunct,obj,obj_th,root,
p2228
I825
sVadjunct,comp,punct,root,
p2229
I478
sVadjunct_qt,adjunct_rc,punct,root,
p2230
I530
sVadjunct,adjunct_qt,comp,comp_fin,obj,root,subj,
p2231
I864
sVadjunct,conjunct,punct,root,
p2232
I10
sVadjunct,comp_fin,conjunct,neg,obj_th,root,
p2233
I328
sVadjunct,comp,obj,refl,root,
p2234
I1031
sVadjunct,comp,comp_ag,obj,root,
p2235
I816
sVadjunct,comp_inf,conjunct,neg,root,
p2236
I1825
sVadjunct,app,conjunct,obj,root,
p2237
I554
sVadjunct,adjunct_rc,comp_inf,obj,obj_th,root,
p2238
I1252
sVadjunct,adjunct_rc,ne,punct,root,subj,
p2239
I2001
sVconjunct,punct,root,subj,
p2240
I505
sVadjunct,adjunct_qt,app,comp,comp_fin,obj,root,subj,
p2241
I861
sVcomp,comp_inf,obj,root,
p2242
I297
sVadjunct,comp,comp_fin,comp_inf,pd,punct,root,
p2243
I1810
sVadjunct,comp,comp_ag,mwe,root,subj,
p2244
I544
sVadjunct,comp,comp_fin,obj,obj_th,punct,root,
p2245
I472
sVadjunct,comp,comp_fin,comp_inf,obj,punct,root,subj,
p2246
I1823
sVadjunct,comp,conjunct,mwe,obj,obj_th,root,
p2247
I1929
sVadjunct,adjunct_qt,adjunct_rc,app,root,
p2248
I1266
sVabbrev_punct,adjunct,comp,conjunct,mwe,root,
p2249
I930
sVadjunct,adjunct_qt,conjunct,obj_th,root,subj,
p2250
I1586
sVcomp,comp_fin,pd,root,
p2251
I491
sVadjunct,comp,comp_fin,comp_inf,obj,obj_th,root,
p2252
I1373
sVadjunct_qt,obj,root,
p2253
I254
sVpunct,root,
p2254
I8
sVadjunct,comp_fin,conjunct,mwe,root,subj,
p2255
I1187
sVabbrev_punct,app,mwe,root,
p2256
I1525
sVadjunct,comp,conjunct,mwe,pd,root,
p2257
I741
sVabbrev_punct,adjunct,conjunct,mwe,root,
p2258
I1393
sVadjunct,aux,comp_fin,comp_inf,conjunct,obj,obj_th,root,
p2259
I824
sVadjunct,comp,comp_ag,obj_th,root,subj,
p2260
I1420
sVadjunct,comp,comp_fin,conjunct,root,subj,
p2261
I142
sVadjunct_compar,punct,root,
p2262
I1133
sVadjunct,adjunct_rc,comp,root,subj,
p2263
I643
sVapp,conjunct,obj,root,
p2264
I555
sVadjunct,cond,conjunct,root,
p2265
I942
sVadjunct,adjunct_compar,comp,mwe,obj,root,
p2266
I1597
sVadjunct_qt,comp_inf,obj_th,root,
p2267
I1490
sVadjunct_rc,comp,comp_inf,root,subj,
p2268
I841
sVconjunct,item,root,subj,
p2269
I1738
sVadjunct_rc,obj,root,subj,
p2270
I663
sVadjunct,adjunct_rc,conjunct,punct,root,subj,
p2271
I1831
sVaglt,aux,root,
p2272
I1724
sVcomp_fin,obj_th,root,subj,
p2273
I655
sVadjunct,adjunct_qt,aux,conjunct,root,
p2274
I1337
sVadjunct_compar,adjunct_qt,comp,root,
p2275
I1739
sVcomp,conjunct,ne,obj,root,
p2276
I1098
sVadjunct,comp_inf,conjunct,neg,obj,root,
p2277
I359
sVadjunct,comp_fin,comp_inf,obj,punct,root,
p2278
I133
sVadjunct_rc,app,conjunct,obj,punct,root,
p2279
I2017
sVadjunct_qt,adjunct_rc,obj,root,
p2280
I532
sVadjunct,adjunct_compar,adjunct_qt,comp_fin,comp_inf,conjunct,root,
p2281
I1348
sVadjunct,aux,comp,obj,root,
p2282
I1209
sVadjunct,adjunct_compar,comp,comp_inf,conjunct,obj_th,root,
p2283
I793
sVcomp_fin,conjunct,obj,refl,root,
p2284
I722
sVadjunct,adjunct_qt,comp_fin,conjunct,root,subj,
p2285
I200
sVadjunct_qt,adjunct_rc,comp_fin,obj,pd,root,
p2286
I522
sVadjunct,comp,comp_inf,mwe,ne,obj,root,
p2287
I1779
sVadjunct,adjunct_rc,cond,conjunct,root,
p2288
I1712
sVadjunct,comp,comp_fin,obj_th,pd,root,
p2289
I1029
sVadjunct_rc,conjunct,mwe,
p2290
I1364
sVadjunct_qt,conjunct,pd,root,
p2291
I1909
sVadjunct,comp,comp_ag,conjunct,pd,root,
p2292
I1780
sVadjunct_rc,conjunct,obj,root,
p2293
I1536
sVadjunct,adjunct_rc,comp,conjunct,obj,subj,
p2294
I1637
sVadjunct,adjunct_qt,comp,comp_ag,root,
p2295
I1484
sVadjunct,comp_ag,comp_fin,pd,root,
p2296
I985
sVadjunct,adjunct_qt,comp,ne,pd,root,
p2297
I1278
sVadjunct,comp,comp_inf,ne,obj,obj_th,root,
p2298
I1127
sVadjunct,adjunct_compar,comp,comp_fin,comp_inf,conjunct,obj,punct,root,
p2299
I792
sVcomp_inf,obj,root,
p2300
I164
sVadjunct,comp,comp_inf,obj_th,punct,root,
p2301
I1636
sVadjunct,adjunct_rc,comp,comp_fin,ne,obj,root,
p2302
I1628
sVadjunct,ne,obj_th,root,subj,
p2303
I1885
sVadjunct,comp_inf,obj,pd,root,
p2304
I1196
sVadjunct,adjunct_qt,conjunct,obj_th,pd,root,
p2305
I1918
sVadjunct,comp_inf,conjunct,mwe,obj_th,root,
p2306
I1454
sVadjunct_qt,aux,neg,root,
p2307
I682
sVcomp,conjunct,refl,root,
p2308
I1227
sVcomp_fin,punct,root,subj,
p2309
I365
sVadjunct,comp_inf,conjunct,root,
p2310
I38
sVcomp_inf,conjunct,obj,root,subj,
p2311
I1239
sVadjunct,comp_fin,conjunct,obj,obj_th,root,
p2312
I997
sVadjunct_qt,mwe,root,
p2313
I86
sVadjunct,adjunct_qt,comp,conjunct,obj,root,subj,
p2314
I276
sVadjunct_qt,aux,root,
p2315
I683
sVadjunct_compar,comp,comp_fin,comp_inf,conjunct,obj_th,root,
p2316
I1402
sVadjunct_rc,conjunct,obj_th,pd,root,
p2317
I1567
sVadjunct,comp,comp_fin,comp_inf,obj,refl,root,
p2318
I1984
sVadjunct,adjunct_rc,comp,pd,root,
p2319
I670
sVadjunct,comp,comp_inf,conjunct,obj,pd,punct,root,
p2320
I1311
sVadjunct,adjunct_qt,comp,comp_fin,punct,root,
p2321
I174
sVadjunct,adjunct_qt,app,comp,comp_fin,mwe,root,subj,
p2322
I81
sVadjunct,comp,comp_fin,comp_inf,conjunct,obj_th,root,subj,
p2323
I988
sVadjunct,comp,obj_th,punct,root,
p2324
I713
sVadjunct,comp_inf,mwe,root,
p2325
I314
sVcomp,conjunct,mwe,root,subj,
p2326
I574
sVadjunct_rc,conjunct,obj,obj_th,root,
p2327
I1952
sVadjunct,comp_fin,comp_inf,conjunct,mwe,obj,root,
p2328
I131
sVadjunct_compar,comp,obj_th,root,
p2329
I674
sVcomp_fin,comp_inf,conjunct,root,subj,
p2330
I1828
sVadjunct,adjunct_compar,comp,punct,root,
p2331
I1287
sVadjunct_rc,comp_fin,conjunct,obj,punct,root,subj,
p2332
I726
sVadjunct,app,comp,comp_fin,conjunct,punct,root,subj,
p2333
I1559
sVabbrev_punct,adjunct,comp,conjunct,ne,root,subj,
p2334
I927
sVadjunct,app,comp,comp_fin,comp_inf,ne,root,subj,
p2335
I1511
sVadjunct,comp,comp_inf,conjunct,obj_th,punct,root,
p2336
I1193
sVadjunct,adjunct_rc,comp,ne,obj_th,root,subj,
p2337
I2004
sVadjunct,app,comp,conjunct,obj,punct,root,
p2338
I1208
sVadjunct,adjunct_compar,comp,comp_inf,conjunct,root,
p2339
I795
sVadjunct,conjunct,obj,pre_coord,punct,root,subj,
p2340
I316
sVadjunct,app,comp,ne,root,
p2341
I458
sVadjunct,adjunct_qt,comp,refl,root,
p2342
I1900
sVadjunct_qt,comp,comp_fin,comp_inf,pd,root,subj,
p2343
I1285
sVadjunct,conjunct,obj,obj_th,root,
p2344
I684
sVadjunct_qt,app,ne,root,
p2345
I1406
sVadjunct_rc,conjunct,root,
p2346
I1537
sVadjunct,obj_th,root,subj,
p2347
I767
sVadjunct,adjunct_rc,comp,mwe,obj,punct,root,
p2348
I1228
sVadjunct,adjunct_rc,comp,comp_inf,conjunct,obj,root,subj,
p2349
I843
sVadjunct,comp_ag,pd,root,subj,
p2350
I848
sVaux,comp_fin,conjunct,obj,root,
p2351
I1017
sVadjunct,aux,comp,comp_fin,root,
p2352
I584
sVadjunct,comp,comp_fin,pd,root,
p2353
I866
sVapp,conjunct,ne,root,
p2354
I594
sVadjunct,adjunct_compar,comp,conjunct,punct,root,
p2355
I439
sVadjunct,comp,comp_fin,neg,root,
p2356
I30
sVadjunct,adjunct_qt,comp,comp_fin,comp_inf,obj,root,
p2357
I621
sVadjunct,comp,
p2358
I1457
sVadjunct,comp,comp_inf,mwe,obj,refl,root,
p2359
I1504
sVadjunct,aux,comp,comp_inf,conjunct,obj,pd,root,
p2360
I1312
sVadjunct,adjunct_rc,comp,ne,root,subj,
p2361
I1113
sVcomp_fin,obj_th,root,
p2362
I1001
sVadjunct,comp,mwe,root,
p2363
I238
sVadjunct,comp,ne,refl,root,
p2364
I1696
sVadjunct,adjunct_compar,root,
p2365
I728
sVabbrev_punct,adjunct,app,comp,obj,root,
p2366
I1811
sVadjunct,adjunct_compar,comp,conjunct,mwe,root,
p2367
I441
sVadjunct,adjunct_rc,comp,comp_fin,conjunct,obj,root,
p2368
I1783
sVcomp,comp_inf,obj,punct,root,
p2369
I735
sVadjunct,comp,mwe,obj,refl,root,subj,
p2370
I769
sVadjunct,adjunct_rc,conjunct,obj,root,subj,
p2371
I1326
sVadjunct_qt,comp,comp_fin,conjunct,root,
p2372
I1434
sVadjunct,comp_fin,comp_inf,refl,root,
p2373
I600
sVadjunct,comp,comp_ag,comp_fin,conjunct,ne,root,
p2374
I2008
sVapp,comp,conjunct,obj_th,punct,root,
p2375
I189
sVadjunct,comp_inf,conjunct,obj,root,
p2376
I37
sVadjunct,comp,conjunct,mwe,obj,root,subj,
p2377
I1677
sVadjunct,comp,obj_th,root,subj,
p2378
I779
sVcomp,comp_fin,conjunct,obj,refl,root,subj,
p2379
I1992
sVadjunct,adjunct_rc,comp_inf,obj,punct,root,
p2380
I1314
sVadjunct,comp,comp_inf,conjunct,obj,obj_th,pd,root,
p2381
I1310
sVadjunct,comp,conjunct,obj,root,subj,
p2382
I57
sVadjunct,adjunct_rc,comp_inf,obj,root,
p2383
I1313
sVadjunct,comp_fin,ne,root,
p2384
I597
sVadjunct,adjunct_qt,app,comp,ne,root,
p2385
I1066
sVadjunct_qt,adjunct_rc,comp_fin,conjunct,obj,pd,root,
p2386
I519
sVcomp_inf,obj,punct,root,
p2387
I295
sVadjunct_rc,app,comp_inf,conjunct,obj,root,
p2388
I645
sVadjunct,adjunct_rc,comp,conjunct,mwe,obj_th,root,
p2389
I1140
sVadjunct,comp,comp_ag,conjunct,obj,obj_th,root,
p2390
I1671
sVadjunct,obj,obj_th,root,subj,
p2391
I903
sVadjunct,comp_inf,conjunct,pd,root,
p2392
I966
sVcomp,comp_fin,punct,root,
p2393
I150
sVapp,conjunct,punct,root,
p2394
I1618
sVconjunct,ne,root,
p2395
I9
sVadjunct,comp,obj,pd,root,
p2396
I417
sVadjunct,pre_coord,root,
p2397
I1931
sVadjunct_compar,comp_inf,punct,root,
p2398
I797
sVadjunct,comp_inf,cond,conjunct,root,
p2399
I1651
sVmwe,obj,root,
p2400
I369
sVadjunct_qt,comp_inf,conjunct,refl,root,
p2401
I1624
sVadjunct,comp,comp_fin,conjunct,obj_th,pd,root,
p2402
I1423
sVadjunct,adjunct_qt,adjunct_rc,comp,ne,obj,root,
p2403
I1520
sVadjunct,comp,comp_inf,mwe,root,subj,
p2404
I400
sVapp,comp,conjunct,root,
p2405
I1101
sVapp,comp,ne,root,
p2406
I368
sVadjunct,comp_fin,comp_inf,conjunct,obj,punct,root,
p2407
I118
sVadjunct,conjunct,obj_th,root,subj,
p2408
I535
sVcomp,comp_ag,root,
p2409
I258
sVadjunct,app,comp,conjunct,obj,pd,root,
p2410
I566
sVadjunct_qt,adjunct_rc,comp,root,subj,
p2411
I1855
sVadjunct_rc,comp,conjunct,mwe,root,subj,
p2412
I1135
sVconjunct,pd,root,subj,
p2413
I1578
sVadjunct,aglt,comp,root,
p2414
I720
sVadjunct_qt,comp,comp_fin,conjunct,obj,root,subj,
p2415
I1806
sVadjunct,comp_fin,neg,root,subj,
p2416
I1605
sVaglt,cond,conjunct,root,
p2417
I1182
sVcomp_fin,punct,root,
p2418
I250
sVadjunct,adjunct_rc,comp,conjunct,pd,root,
p2419
I719
sVadjunct,comp,comp_ag,conjunct,obj,root,
p2420
I1469
sVadjunct_qt,adjunct_rc,comp,obj,root,
p2421
I1762
sVadjunct,comp,conjunct,punct,root,
p2422
I179
sVadjunct,aglt,comp,comp_fin,comp_inf,obj_th,root,
p2423
I1634
sVpre_coord,root,subj,
p2424
I1109
sVadjunct,adjunct_qt,conjunct,ne,root,
p2425
I708
sVadjunct,adjunct_rc,app,comp,comp_fin,conjunct,neg,obj,root,subj,
p2426
I41
sVadjunct,comp,mwe,obj,pd,root,
p2427
I1340
sVadjunct_qt,comp,conjunct,obj,root,
p2428
I274
sVadjunct,app,comp,conjunct,root,subj,
p2429
I867
sVcomp_fin,conjunct,neg,root,subj,
p2430
I979
sVitem,punct,root,
p2431
I1743
sVadjunct,adjunct_rc,comp,comp_fin,conjunct,punct,root,subj,
p2432
I1516
sVapp,comp,comp_fin,punct,root,subj,
p2433
I1856
sVadjunct_rc,pd,punct,root,
p2434
I1570
sVadjunct,adjunct_rc,root,subj,
p2435
I642
sVadjunct,adjunct_compar,comp,comp_inf,conjunct,obj,root,
p2436
I789
sVaglt,cond,root,
p2437
I126
sVadjunct,app,ne,refl,root,
p2438
I748
sVabbrev_punct,ne,root,subj,
p2439
I1813
sVcomp,mwe,root,subj,
p2440
I984
sVcomp,conjunct,obj_th,pd,root,
p2441
I1935
sVadjunct_qt,comp_fin,conjunct,root,
p2442
I1577
sVadjunct,adjunct_rc,app,comp,comp_fin,conjunct,obj,refl,root,subj,
p2443
I44
sVadjunct,app,comp,conjunct,obj,root,
p2444
I444
sVcomp,comp_fin,conjunct,root,subj,
p2445
I141
sVadjunct,adjunct_qt,comp,comp_fin,conjunct,refl,root,
p2446
I1435
sVapp,comp,comp_fin,root,subj,
p2447
I1857
sVadjunct,comp,comp_fin,comp_inf,conjunct,root,subj,
p2448
I160
sVabbrev_punct,adjunct,comp,conjunct,obj,pre_coord,root,subj,
p2449
I67
sVadjunct,adjunct_qt,comp,comp_fin,comp_inf,obj,obj_th,root,
p2450
I1915
sVadjunct_compar,comp,comp_fin,comp_inf,conjunct,root,
p2451
I783
sVadjunct_rc,comp,obj,punct,root,
p2452
I1796
sVcomp_fin,conjunct,pd,punct,root,
p2453
I1972
sVadjunct,comp,comp_fin,comp_inf,obj_th,
p2454
I1479
sVadjunct,adjunct_rc,comp_inf,conjunct,root,
p2455
I1711
sVadjunct,comp_fin,conjunct,obj,root,
p2456
I335
sVadjunct_compar,conjunct,root,
p2457
I781
sVadjunct,comp,mwe,obj,root,
p2458
I773
sVadjunct,comp_ag,pd,root,
p2459
I1242
sVabbrev_punct,adjunct,comp,root,subj,
p2460
I1294
sVadjunct,adjunct_rc,app,comp,conjunct,pd,root,
p2461
I567
sVcomp,conjunct,obj_th,punct,root,
p2462
I1039
sVcomp_fin,obj,root,
p2463
I469
sVadjunct_rc,comp,comp_inf,conjunct,obj,root,
p2464
I1794
sVabbrev_punct,app,conjunct,root,subj,
p2465
I1713
sVadjunct,adjunct_compar,comp,comp_fin,conjunct,mwe,obj,refl,root,subj,
p2466
I1839
sVadjunct,adjunct_qt,comp,conjunct,mwe,root,
p2467
I703
sVadjunct,adjunct_rc,comp,comp_inf,conjunct,obj,root,
p2468
I1792
sVadjunct,app,comp,comp_fin,comp_inf,conjunct,root,subj,
p2469
I870
sVadjunct,adjunct_rc,aux,comp,conjunct,neg,root,subj,
p2470
I1959
sVadjunct,adjunct_rc,comp_fin,conjunct,obj,pd,root,
p2471
I340
sVadjunct,comp,comp_fin,conjunct,mwe,ne,root,
p2472
I465
sVadjunct,comp,comp_fin,conjunct,root,
p2473
I208
sVadjunct,comp,conjunct,obj,pd,root,
p2474
I416
sVadjunct,app,obj,obj_th,root,
p2475
I901
sVadjunct_qt,app,punct,root,
p2476
I1381
sVadjunct,adjunct_qt,comp,conjunct,root,subj,
p2477
I420
sVconjunct,ne,obj,root,subj,
p2478
I1571
sVadjunct,app,conjunct,obj_th,root,
p2479
I1695
sVmwe,root,
p2480
I537
sVadjunct,adjunct_qt,obj,refl,root,subj,
p2481
I1518
sVadjunct,comp,obj,
p2482
I1458
sVcomp,pd,punct,root,
p2483
I994
sVcomp,comp_inf,obj_th,root,
p2484
I1377
sVadjunct,comp_ag,comp_inf,obj,root,
p2485
I1383
sVadjunct,conjunct,neg,obj,root,
p2486
I405
sVadjunct_compar,app,comp,root,
p2487
I857
sVcomp_fin,comp_inf,conjunct,punct,root,
p2488
I640
sVaux,comp,conjunct,root,
p2489
I1260
sVadjunct,adjunct_rc,ne,obj,root,subj,
p2490
I2002
sVadjunct,comp,comp_ag,conjunct,mwe,root,
p2491
I1746
sVadjunct,app,ne,root,subj,
p2492
I2016
sVadjunct,adjunct_qt,comp,comp_fin,obj,punct,root,subj,
p2493
I1166
sVadjunct,comp_inf,pd,root,subj,
p2494
I1195
sVcomp_inf,conjunct,obj,punct,root,
p2495
I112
sVadjunct,comp,comp_fin,comp_inf,conjunct,obj,obj_th,refl,
p2496
I1477
sVadjunct,comp,comp_fin,conjunct,mwe,root,subj,
p2497
I143
sVadjunct,obj_th,punct,root,
p2498
I211
sVadjunct,adjunct_compar,comp,obj_th,root,
p2499
I675
sVcomp,comp_fin,ne,root,subj,
p2500
I1167
sVadjunct,app,comp_ag,conjunct,obj,root,subj,
p2501
I350
sVadjunct,comp,conjunct,mwe,pd,root,subj,
p2502
I740
sVadjunct_compar,adjunct_qt,comp,root,subj,
p2503
I1581
sVcomp,comp_fin,root,
p2504
I36
sVcomp,comp_inf,conjunct,ne,root,
p2505
I588
sVadjunct,app,conjunct,refl,root,
p2506
I872
sVadjunct,adjunct_qt,comp,comp_inf,conjunct,obj,root,
p2507
I1688
sVadjunct,obj,obj_th,punct,root,subj,
p2508
I905
sVadjunct,comp,comp_inf,mwe,pd,root,
p2509
I951
sVadjunct,adjunct_rc,pd,root,subj,
p2510
I1790
sVadjunct,adjunct_rc,comp,conjunct,mwe,obj,obj_th,root,
p2511
I1138
sVadjunct,adjunct_rc,conjunct,root,
p2512
I1432
sVadjunct,aux,obj_th,root,
p2513
I1697
sVadjunct,app,comp,conjunct,ne,root,
p2514
I761
sVadjunct,adjunct_qt,comp,comp_fin,conjunct,root,
p2515
I175
sVapp,mwe,root,
p2516
I1524
sVcomp_fin,conjunct,refl,root,subj,
p2517
I977
sVadjunct,aglt,comp,comp_inf,conjunct,root,
p2518
I1886
sVadjunct,app,comp,comp_ag,conjunct,ne,root,
p2519
I1771
sVadjunct_compar,comp,comp_inf,conjunct,obj,root,
p2520
I788
sVadjunct_qt,root,
p2521
I85
sVadjunct,comp_ag,obj,root,
p2522
I815
sVcomp,comp_fin,comp_inf,punct,root,
p2523
I1847
sVadjunct,comp,mwe,refl,root,
p2524
I1174
sVadjunct,aglt,conjunct,root,
p2525
I965
sVcomp,comp_fin,comp_inf,conjunct,obj,root,
p2526
I360
sVadjunct,adjunct_rc,conjunct,obj_th,root,
p2527
I1973
sVadjunct,adjunct_rc,app,ne,root,subj,
p2528
I909
sVadjunct,comp,comp_inf,conjunct,obj,root,subj,
p2529
I60
sVadjunct,adjunct_rc,comp,comp_fin,conjunct,obj,pd,root,
p2530
I339
sVadjunct,conjunct,obj_th,punct,root,
p2531
I583
sVcomp_ag,conjunct,obj_th,root,
p2532
I1673
sVadjunct_rc,comp,comp_fin,comp_inf,conjunct,obj_th,root,subj,
p2533
I1540
sVadjunct,comp_fin,conjunct,obj_th,refl,root,subj,
p2534
I1247
sVne,obj,root,
p2535
I432
sVadjunct,conjunct,obj_th,root,
p2536
I296
sVadjunct_rc,comp_fin,obj,pd,root,
p2537
I1073
sVadjunct,comp,comp_fin,conjunct,mwe,obj,root,
p2538
I463
sVadjunct,obj,root,subj,
p2539
I576
sVapp,comp,comp_fin,obj,root,subj,
p2540
I1858
sVcomp,comp_fin,conjunct,punct,root,
p2541
I759
sVadjunct,app,comp,conjunct,obj,root,subj,
p2542
I351
sVadjunct,comp,conjunct,ne,obj_th,root,
p2543
I1422
sVadjunct,adjunct_qt,comp,obj_th,root,
p2544
I186
sVadjunct,comp_fin,obj,pd,root,
p2545
I466
sVcomp,comp_fin,conjunct,obj_th,root,
p2546
I354
sVaux,neg,root,
p2547
I425
sVadjunct,obj,obj_th,punct,root,
p2548
I902
sVadjunct,obj_th,root,
p2549
I212
sVcomp,comp_fin,punct,root,subj,
p2550
I939
sVadjunct,adjunct_rc,conjunct,obj,punct,
p2551
I1641
sVadjunct,adjunct_rc,mwe,punct,root,
p2552
I738
sVadjunct,adjunct_rc,comp,conjunct,punct,root,subj,
p2553
I1830
sVadjunct_rc,comp,ne,root,subj,
p2554
I1812
sVcomp_inf,conjunct,refl,root,
p2555
I106
sVadjunct,app,comp,comp_fin,obj_th,root,
p2556
I2015
sVadjunct,adjunct_rc,comp,comp_inf,conjunct,pd,punct,root,
p2557
I1934
sVadjunct_rc,comp_inf,root,subj,
p2558
I1357
sVadjunct,comp_fin,comp_inf,conjunct,obj,root,
p2559
I121
sVadjunct,conjunct,ne,root,
p2560
I12
sVadjunct_compar,comp_fin,obj,obj_th,root,
p2561
I1603
sVadjunct,app,comp_fin,conjunct,obj,root,
p2562
I1864
sVconjunct,mwe,ne,obj,root,
p2563
I1667
sVadjunct_rc,comp,conjunct,obj,punct,root,
p2564
I1259
sVadjunct,comp_ag,conjunct,root,subj,
p2565
I1091
sVadjunct,adjunct_qt,comp,conjunct,ne,root,subj,
p2566
I419
sVadjunct_qt,aglt,comp,comp_fin,root,
p2567
I874
sVadjunct_rc,comp,comp_fin,conjunct,root,
p2568
I933
sVadjunct,adjunct_rc,comp,comp_inf,refl,root,
p2569
I1083
sVadjunct,comp_inf,conjunct,obj,refl,root,
p2570
I754
sVadjunct,adjunct_rc,comp,conjunct,obj_th,root,
p2571
I1500
sVadjunct,comp,comp_fin,root,
p2572
I32
sVadjunct,adjunct_rc,comp,mwe,root,
p2573
I1155
sVabbrev_punct,comp,root,
p2574
I443
sVadjunct_qt,comp_fin,mwe,root,subj,
p2575
I88
sVadjunct,adjunct_rc,comp,comp_inf,conjunct,neg,pd,root,
p2576
I1933
sVadjunct,app,comp,mwe,ne,root,
p2577
I680
sVadjunct,adjunct_compar,comp,comp_fin,conjunct,punct,root,
p2578
I1890
sVadjunct_rc,conjunct,mwe,obj_th,root,
p2579
I1137
sVadjunct,adjunct_compar,comp_fin,obj,obj_th,root,
p2580
I1602
sVabbrev_punct,obj,root,
p2581
I1580
sVcomp,punct,root,subj,
p2582
I808
sVadjunct,conjunct,obj,punct,root,
p2583
I235
sVpd,root,
p2584
I172
sVadjunct,app,comp,conjunct,mwe,ne,root,subj,
p2585
I1220
sVcomp,comp_fin,comp_inf,obj,root,subj,
p2586
I736
sVadjunct,adjunct_rc,comp,obj,root,subj,
p2587
I919
sVadjunct,comp,comp_fin,conjunct,obj,obj_th,root,
p2588
I616
sVadjunct,app,ne,punct,root,
p2589
I917
sVconjunct,obj,root,subj,
p2590
I116
sVcomp,comp_fin,comp_inf,root,
p2591
I493
sVadjunct,adjunct_qt,comp_fin,obj,root,
p2592
I1106
sVadjunct,comp_fin,conjunct,mwe,root,
p2593
I357
sVabbrev_punct,adjunct,obj,obj_th,root,subj,
p2594
I904
sVadjunct,comp_fin,comp_inf,root,
p2595
I122
sVadjunct,adjunct_rc,comp,obj_th,root,
p2596
I995
sVadjunct,cond,root,
p2597
I1760
sVcomp,conjunct,obj,root,
p2598
I279
sVcomp,conjunct,mwe,pd,root,
p2599
I747
sVcomp,comp_fin,comp_inf,conjunct,mwe,root,
p2600
I632
sVadjunct,adjunct_qt,comp,comp_fin,cond,mwe,root,
p2601
I82
sVadjunct,adjunct_qt,comp,comp_fin,root,subj,
p2602
I1803
sVcomp,comp_ag,obj,root,
p2603
I1548
sVadjunct,aux,root,subj,
p2604
I1663
sVadjunct,comp,conjunct,obj,pre_coord,punct,root,subj,
p2605
I62
sVadjunct,adjunct_qt,adjunct_rc,comp,comp_fin,pd,root,
p2606
I523
sVadjunct,adjunct_rc,obj,punct,root,
p2607
I345
sVcomp,comp_inf,conjunct,refl,root,
p2608
I1764
sVadjunct,comp,comp_fin,conjunct,mwe,obj,punct,root,subj,
p2609
I1186
sVadjunct,adjunct_rc,conjunct,obj,
p2610
I1643
sVadjunct,adjunct_rc,comp,conjunct,root,subj,
p2611
I269
sVadjunct,adjunct_qt,comp,comp_fin,comp_inf,conjunct,obj,obj_th,root,
p2612
I1631
sVadjunct,comp_fin,obj,punct,root,
p2613
I1714
sVabbrev_punct,adjunct,comp,obj,root,subj,
p2614
I853
sVadjunct,adjunct_qt,comp,conjunct,punct,root,subj,
p2615
I1271
sVadjunct,conjunct,ne,obj,root,
p2616
I451
sVadjunct,conjunct,pd,punct,root,
p2617
I303
sVadjunct,app,comp,mwe,root,subj,
p2618
I234
sVconjunct,ne,obj_th,root,
p2619
I1395
sVadjunct,adjunct_qt,comp_fin,obj_th,root,
p2620
I1917
sVadjunct_qt,comp,comp_fin,comp_inf,pd,punct,root,subj,
p2621
I1284
sVadjunct,comp,comp_ag,comp_inf,root,
p2622
I1970
sVadjunct_qt,comp_fin,mwe,pd,root,
p2623
I83
sVadjunct,adjunct_rc,conjunct,obj,refl,subj,
p2624
I1640
sVadjunct,aux,comp,comp_fin,neg,root,
p2625
I1414
sVcomp,conjunct,mwe,obj,obj_th,root,
p2626
I1930
sVadjunct,comp,comp_ag,comp_inf,obj,root,
p2627
I1384
sVadjunct,adjunct_qt,comp,conjunct,mwe,ne,root,
p2628
I897
sVadjunct_rc,comp,obj,root,subj,
p2629
I1785
sVadjunct,comp_fin,ne,root,subj,
p2630
I1047
sVadjunct,conjunct,obj,pd,punct,root,
p2631
I1987
sVadjunct,adjunct_rc,comp,conjunct,obj,punct,root,
p2632
I342
sVcomp,comp_fin,obj,root,
p2633
I35
sVadjunct,adjunct_rc,comp,comp_fin,mwe,root,
p2634
I394
sVcomp,comp_inf,conjunct,root,
p2635
I146
sVadjunct,comp,comp_fin,conjunct,obj,refl,root,subj,
p2636
I1009
sVadjunct,comp,conjunct,ne,pd,root,
p2637
I852
sVadjunct,adjunct_qt,comp,pd,root,
p2638
I229
sVadjunct,app,comp,conjunct,root,
p2639
I14
sVadjunct_qt,comp_inf,conjunct,pd,root,
p2640
I1262
sVadjunct,comp,comp_fin,punct,root,
p2641
I33
sVadjunct,comp,comp_fin,comp_inf,conjunct,refl,root,
p2642
I1844
sVcomp_fin,comp_inf,pd,root,
p2643
I1263
sVapp,punct,root,subj,
p2644
I231
sVadjunct,adjunct_rc,conjunct,obj,punct,subj,
p2645
I1639
sVadjunct,comp,ne,root,
p2646
I386
sVcomp,comp_fin,obj,pd,root,
p2647
I991
sVadjunct,comp,comp_inf,refl,root,
p2648
I154
sVcomp,root,
p2649
I19
ssVannotation
p2650
(dp2651
Vnam_fac%nam_liv_person#head%
p2652
I68
sVnam_liv_person%action%
p2653
I109
sVt3_range%t3_date%
p2654
I100
sVnam_pro#head%action#head%
p2655
I125
sVt3_range#head%t3_date#head%
p2656
I62
sVnam_liv_animal#head%
p2657
I71
sVnam_liv_person#head%nam_pro%
p2658
I137
sVnam_loc#head%nam_org#head%
p2659
I43
sVnam_eve%nam_org%
p2660
I106
sVnam_liv_person#head%
p2661
I20
sVnam_fac%nam_liv_person%
p2662
I83
sVt3_duration#head%t3_range%
p2663
I58
sVaction#head%nam_pro#head%
p2664
I89
sVi_action#head%
p2665
I19
sVaction#head%nam_org%
p2666
I92
sVnam_pro%
p2667
I17
sVnam_liv_person#head%nam_eve%
p2668
I103
sVt3_duration%nam_eve%
p2669
I98
sVnam_liv_person#head%nam_org%
p2670
I86
sVnam_adj#head%nam_org%
p2671
I12
sVt3_duration%t3_range%
p2672
I56
sVt3_duration#head%
p2673
I23
sVnam_eve%t3_date%
p2674
I72
sVt3_time#head%
p2675
I30
sVnam_org%
p2676
I11
sVnam_org%nam_adj#head%
p2677
I104
sVnam_eve#head%nam_loc#head%nam_org#head%
p2678
I105
sVnam_num_house#head%
p2679
I63
sVaction%
p2680
I64
sVnam_liv_habitant#head%
p2681
I116
sVnam_adj%
p2682
I85
sVnam_loc#head%nam_eve%
p2683
I36
sVt3_date#head%
p2684
I9
sVt3_range%nam_pro%
p2685
I142
sVnam_eve%action#head%
p2686
I120
sVnam_eve%t3_date#head%
p2687
I52
sVnam_loc#head%nam_org%
p2688
I38
sVnam_pro%t3_date%
p2689
I129
sVnam_eve%
p2690
I14
sVnam_pro%nam_liv_person%
p2691
I65
sVnam_org%nam_pro#head%
p2692
I127
sVi_action#head%nam_org%
p2693
I123
sVi_state%
p2694
I96
sS'n/a'
p2695
I0
sVnam_eve#head%action#head%
p2696
I53
sVstate#head%nam_pro%
p2697
I119
sVt3_time#head%t3_range%
p2698
I75
sVt3_duration#head%nam_eve%
p2699
I99
sVnam_fac%nam_org#head%
p2700
I122
sVperception#head%
p2701
I26
sVnam_fac%
p2702
I32
sVnam_fac%nam_liv_person#head%nam_pro%
p2703
I136
sVnam_pro#head%nam_org#head%
p2704
I50
sVnam_fac#head%
p2705
I31
sVnam_pro#head%nam_liv_person#head%
p2706
I133
sVt3_range%t3_date#head%
p2707
I48
sVnam_oth_license#head%
p2708
I91
sVnam_liv_person#head%nam_loc#head%
p2709
I145
sVnam_oth#head%
p2710
I93
sVnam_loc%nam_pro%
p2711
I131
sVnam_oth_www%
p2712
I107
sVnam_org#head%nam_eve%
p2713
I114
sVnam_adj#head%nam_fac%
p2714
I81
sVnam_liv_person#head%nam_fac%
p2715
I84
sVnam_adj#head%
p2716
I27
sVnam_eve%t3_duration%
p2717
I97
sVnam_loc%action#head%
p2718
I118
sVnam_oth_tech#head%
p2719
I60
sVnam_org%nam_loc#head%
p2720
I44
sVnam_loc%nam_eve%
p2721
I115
sVnam_org%t3_date#head%
p2722
I146
sVi_state#head%
p2723
I22
sVt3_date#head%t3_range%nam_pro%
p2724
I143
sVt3_date%t3_range%
p2725
I34
sVreporting#head%
p2726
I21
sVaspectual#head%
p2727
I18
sVnam_fac#head%nam_org%
p2728
I73
sVnam_pro%nam_adj#head%
p2729
I69
sVaction#head%nam_eve#head%
p2730
I35
sVnam_fac#head%nam_liv_person#head%
p2731
I79
sVnam_loc%nam_adj#head%
p2732
I117
sVnam_oth%
p2733
I70
sVt3_date#head%t3_range%
p2734
I3
sVnam_loc#head%nam_pro%
p2735
I121
sVt3_duration#head%t3_range#head%
p2736
I57
sVt3_time#head%t3_range#head%
p2737
I76
sVnam_oth_currency#head%
p2738
I51
sVnam_loc#head%nam_pro#head%
p2739
I108
sVaction#head%
p2740
I8
sVnam_loc#head%nam_fac%
p2741
I55
sVt3_date#head%nam_loc%
p2742
I67
sVaction#head%nam_pro%
p2743
I24
sVnam_org#head%
p2744
I10
sVnam_liv_person#head%action#head%
p2745
I110
sVnam_org#head%nam_adj#head%
p2746
I140
sVnam_org%nam_pro%
p2747
I61
sVnam_eve#head%
p2748
I13
sVlight_predicate#head%
p2749
I28
sVnam_pro#head%
p2750
I16
sVnam_oth_license%
p2751
I90
sVt3_duration%
p2752
I25
sVnam_eve%nam_liv_person#head%
p2753
I112
sVt3_set%
p2754
I95
sVnam_loc%
p2755
I41
sVnam_pro%action#head%
p2756
I78
sVnam_oth_www#head%
p2757
I139
sVt3_range%
p2758
I5
sVaction#head%nam_eve%
p2759
I15
sVnam_fac%nam_adj#head%
p2760
I102
sVt3_range#head%
p2761
I4
sVnam_pro%t3_date#head%
p2762
I130
sVt3_date%
p2763
I7
sVnam_oth_tech%
p2764
I59
sVnam_adj#head%nam_fac#head%
p2765
I101
sVnam_org%nam_liv_person%
p2766
I87
sVt3_time#head%nam_pro%
p2767
I138
sVt3_time%
p2768
I49
sVnam_eve%nam_loc#head%
p2769
I39
sVt3_date#head%t3_range#head%
p2770
I47
sVnam_eve%t3_duration#head%
p2771
I54
sVnam_liv_plant#head%
p2772
I88
sVnam_liv_person%
p2773
I6
sVnam_adj#head%nam_eve%
p2774
I113
sVt3_date#head%nam_pro%
p2775
I40
sVnam_liv_person%nam_fac%
p2776
I80
sVnam_fac%nam_pro%
p2777
I132
sVnam_pro%nam_liv_person#head%
p2778
I134
sVnam_loc%nam_org%
p2779
I111
sVstate#head%
p2780
I2
sVnam_adj#head%nam_loc%
p2781
I42
sVstate%
p2782
I128
sVnam_org#head%nam_fac#head%
p2783
I46
sVnam_loc#head%nam_eve#head%
p2784
I144
sVnam_liv_character#head%
p2785
I33
sVt3_set#head%
p2786
I29
sVnam_eve%nam_adj#head%
p2787
I82
sVnam_org#head%nam_loc#head%
p2788
I45
sVt3_range#head%nam_pro%
p2789
I141
sVt3_date%nam_pro%
p2790
I77
sVnam_pro%nam_loc#head%
p2791
I135
sVnam_loc#head%
p2792
I1
sVnam_loc#head%nam_fac#head%
p2793
I66
sVnam_org%action#head%
p2794
I124
sVt3_time%t3_range%
p2795
I74
sVnam_org#head%nam_pro#head%
p2796
I126
sVnam_liv_god#head%
p2797
I94
sVt3_date#head%nam_eve%
p2798
I37
ssVdependency_path_from
p2799
(dp2800
ss.